 sapphire.wtf

 Timestamp is 671a360d (Thu Oct 24 18:57:01 2024)

 Preferred load address is 0000000180000000

 Start         Length     Name                   Class
 0001:00000000 00001270H .text$di                CODE
 0001:00001270 000e3540H .text$mn                CODE
 0001:000e47b0 00000036H .text$mn$00             CODE
 0001:000e47e6 00000222H .text$x                 CODE
 0001:000e4a08 00000760H .text$yd                CODE
 0002:00000000 00000768H .idata$5                DATA
 0002:00000768 00000038H .00cfg                  DATA
 0002:000007a0 00000008H .CRT$XCA                DATA
 0002:000007a8 00000010H .CRT$XCL                DATA
 0002:000007b8 00000338H .CRT$XCU                DATA
 0002:00000af0 00000008H .CRT$XCZ                DATA
 0002:00000af8 00000008H .CRT$XIA                DATA
 0002:00000b00 00000008H .CRT$XIZ                DATA
 0002:00000b08 00000008H .CRT$XLA                DATA
 0002:00000b10 00000008H .CRT$XLZ                DATA
 0002:00000b18 00000008H .CRT$XPA                DATA
 0002:00000b20 00000008H .CRT$XPZ                DATA
 0002:00000b28 00000008H .CRT$XTA                DATA
 0002:00000b30 00000010H .CRT$XTZ                DATA
 0002:00000b38 00000000H .gehcont$y              DATA
 0002:00000b38 00000000H .gfids$y                DATA
 0002:00000b38 00000000H .giats$y                DATA
 0002:00000b40 001ed440H .rdata                  DATA
 0002:001edf80 00000000H .rdata$CastGuardVftablesA DATA
 0002:001edf80 00000000H .rdata$CastGuardVftablesC DATA
 0002:001edf80 00000028H .rdata$T                DATA
 0002:001edfa8 000007e4H .rdata$r                DATA
 0002:001ee78c 000001f4H .rdata$voltmd           DATA
 0002:001ee980 000003a0H .rdata$zzzdbg           DATA
 0002:001eed20 00000008H .rtc$IAA                DATA
 0002:001eed28 00000008H .rtc$IZZ                DATA
 0002:001eed30 00000008H .rtc$TAA                DATA
 0002:001eed38 00000008H .rtc$TZZ                DATA
 0002:001eed40 00000004H .tls                    DATA
 0002:001eed44 00000004H .tls$                   DATA
 0002:001eed48 00000008H .tls$ZZZ                DATA
 0002:001eed50 0000a298H .xdata                  DATA
 0002:001f8fe8 00000228H .xdata$x                DATA
 0002:001f9210 00000000H ATL$__a                 DATA
 0002:001f9210 00000000H ATL$__z                 DATA
 0002:001f9210 00000000H .edata                  DATA
 0002:001f9210 000001ccH .idata$2                DATA
 0002:001f93dc 00000014H .idata$3                DATA
 0002:001f93f0 00000768H .idata$4                DATA
 0002:001f9b58 0000114aH .idata$6                DATA
 0003:00000000 001a81b0H .data                   DATA
 0003:001a81b0 00000130H .data$r                 DATA
 0003:001a82e0 000001f0H .data$rs                DATA
 0003:001a84d0 00037638H .bss                    DATA
 0004:00000000 00008640H .pdata                  DATA
 0005:00000000 00002208H _RDATA                  DATA

  Address         Publics by Value              Rva+Base               Lib:Object

 0000:00000000       __AbsoluteZero             0000000000000000     <absolute>
 0000:00000000       ___safe_se_handler_count   0000000000000000     <absolute>
 0000:00000000       ___safe_se_handler_table   0000000000000000     <absolute>
 0000:00000000       __arm64x_extra_rfe_table   0000000000000000     <absolute>
 0000:00000000       __arm64x_extra_rfe_table_size 0000000000000000     <absolute>
 0000:00000000       __arm64x_native_entrypoint 0000000000000000     <absolute>
 0000:00000000       __arm64x_redirection_metadata 0000000000000000     <absolute>
 0000:00000000       __arm64x_redirection_metadata_count 0000000000000000     <absolute>
 0000:00000000       __dynamic_value_reloc_table 0000000000000000     <absolute>
 0000:00000000       __enclave_config           0000000000000000     <absolute>
 0000:00000000       __guard_check_icall_a64n_fptr 0000000000000000     <absolute>
 0000:00000000       __guard_eh_cont_count      0000000000000000     <absolute>
 0000:00000000       __guard_eh_cont_table      0000000000000000     <absolute>
 0000:00000000       __guard_fids_count         0000000000000000     <absolute>
 0000:00000000       __guard_fids_table         0000000000000000     <absolute>
 0000:00000000       __guard_iat_count          0000000000000000     <absolute>
 0000:00000000       __guard_iat_table          0000000000000000     <absolute>
 0000:00000000       __guard_longjmp_count      0000000000000000     <absolute>
 0000:00000000       __guard_longjmp_table      0000000000000000     <absolute>
 0000:00000000       __hybrid_auxiliary_delayload_iat 0000000000000000     <absolute>
 0000:00000000       __hybrid_auxiliary_delayload_iat_copy 0000000000000000     <absolute>
 0000:00000000       __hybrid_auxiliary_iat     0000000000000000     <absolute>
 0000:00000000       __hybrid_auxiliary_iat_copy 0000000000000000     <absolute>
 0000:00000000       __hybrid_code_map          0000000000000000     <absolute>
 0000:00000000       __hybrid_code_map_count    0000000000000000     <absolute>
 0000:00000000       __hybrid_image_info_bitfield 0000000000000000     <absolute>
 0000:00000000       __x64_code_ranges_to_entry_points 0000000000000000     <absolute>
 0000:00000000       __x64_code_ranges_to_entry_points_count 0000000000000000     <absolute>
 0000:00000100       __guard_flags              0000000000000100     <absolute>
 0000:00000000       __ImageBase                0000000180000000     <linker-defined>
 0001:00001270       ??0exception@std@@QEAA@AEBV01@@Z 0000000180002270 f i Base64.obj
 0001:000012a4       ?what@exception@std@@UEBAPEBDXZ 00000001800022a4 f i Base64.obj
 0001:000012b8       ??_Ebad_alloc@std@@UEAAPEAXI@Z 00000001800022b8 f i * CIL library *:* CIL module *
 0001:000012b8       ??_Ebad_array_new_length@std@@UEAAPEAXI@Z 00000001800022b8 f i * CIL library *:* CIL module *
 0001:000012b8       ??_Eexception@std@@UEAAPEAXI@Z 00000001800022b8 f i * CIL library *:* CIL module *
 0001:000012b8       ??_Eruntime_error@std@@UEAAPEAXI@Z 00000001800022b8 f i * CIL library *:* CIL module *
 0001:000012b8       ??_Gbad_alloc@std@@UEAAPEAXI@Z 00000001800022b8 f i Base64.obj
 0001:000012b8       ??_Gbad_array_new_length@std@@UEAAPEAXI@Z 00000001800022b8 f i Base64.obj
 0001:000012b8       ??_Gexception@std@@UEAAPEAXI@Z 00000001800022b8 f i Base64.obj
 0001:000012b8       ??_Gruntime_error@std@@UEAAPEAXI@Z 00000001800022b8 f i main.obj
 0001:000012fc       ??1bad_alloc@std@@UEAA@XZ  00000001800022fc f i Base64.obj
 0001:000012fc       ??1bad_array_new_length@std@@UEAA@XZ 00000001800022fc f i Base64.obj
 0001:000012fc       ??1system_error@std@@UEAA@XZ 00000001800022fc f i main.obj
 0001:00001314       ??0bad_array_new_length@std@@QEAA@XZ 0000000180002314 f i Base64.obj
 0001:00001334       ?_Throw_bad_array_new_length@std@@YAXXZ 0000000180002334 f i Base64.obj
 0001:00001334       ?__scrt_throw_std_bad_array_new_length@@YAXXZ 0000000180002334 f i MSVCRT:throw_bad_alloc.obj
 0001:00001354       ??0bad_array_new_length@std@@QEAA@AEBV01@@Z 0000000180002354 f i Base64.obj
 0001:00001394       ??0bad_alloc@std@@QEAA@AEBV01@@Z 0000000180002394 f i Base64.obj
 0001:000013d4       ?_Xlen_string@std@@YAXXZ   00000001800023d4 f i Base64.obj
 0001:000013e8       ?append@?$basic_string@DU?$char_traits@D@std@@V?$allocator@D@2@@std@@QEAAAEAV12@AEBV12@@Z 00000001800023e8 f i Base64.obj
 0001:00001478       ??1?$basic_string@DU?$char_traits@D@std@@V?$allocator@D@2@@std@@QEAA@XZ 0000000180002478 f i Base64.obj
 0001:000014d4       ??4?$basic_string@DU?$char_traits@D@std@@V?$allocator@D@2@@std@@QEAAAEAV01@$$QEAV01@@Z 00000001800024d4 f i Base64.obj
 0001:00001560       ??0?$basic_string@DU?$char_traits@D@std@@V?$allocator@D@2@@std@@QEAA@QEBD@Z 0000000180002560 f i Base64.obj
 0001:00001594       ??0?$basic_string@DU?$char_traits@D@std@@V?$allocator@D@2@@std@@QEAA@AEBV01@@Z 0000000180002594 f i Base64.obj
 0001:00001654       ?_Xran@?$_String_val@U?$_Simple_types@D@std@@@std@@SAXXZ 0000000180002654 f i Base64.obj
 0001:00001654       ?_Xran@?$_String_val@U?$_Simple_types@_W@std@@@std@@SAXXZ 0000000180002654 f i main.obj
 0001:00001668       ??$_Construct@$00PEBD@?$basic_string@DU?$char_traits@D@std@@V?$allocator@D@2@@std@@AEAAXQEBD_K@Z 0000000180002668 f i Base64.obj
 0001:00001720       ??$_Reallocate_grow_by@V<lambda_319d5e083f45f90dcdce5dce53cbb275>@@D@?$basic_string@DU?$char_traits@D@std@@V?$allocator@D@2@@std@@AEAAAEAV01@_KV<lambda_319d5e083f45f90dcdce5dce53cbb275>@@D@Z 0000000180002720 f i Base64.obj
 0001:00001840       ??$_Reallocate_grow_by@V<lambda_65e615be2a453ca0576c979606f46740>@@PEBD_K@?$basic_string@DU?$char_traits@D@std@@V?$allocator@D@2@@std@@AEAAAEAV01@_KV<lambda_65e615be2a453ca0576c979606f46740>@@PEBD_K@Z 0000000180002840 f i Base64.obj
 0001:00001980       ??$_Allocate_for_capacity@$0A@@?$basic_string@DU?$char_traits@D@std@@V?$allocator@D@2@@std@@CAPEADAEAV?$allocator@D@1@AEA_K@Z 0000000180002980 f i Base64.obj
 0001:000019f0       ?FastIntLerp@Animations@ImTricks@@YAHPEBD_NHHH@Z 00000001800029f0 f   imgui_tricks.obj
 0001:00001c58       ??1?$_Hash@V?$_Umap_traits@PEBDHV?$_Uhash_compare@PEBDU?$hash@PEBD@std@@U?$equal_to@PEBD@2@@std@@V?$allocator@U?$pair@QEBDH@std@@@2@$0A@@std@@@std@@QEAA@XZ 0000000180002c58 f i imgui_tricks.obj
 0001:00001c58       ??1?$_Hash@V?$_Umap_traits@PEBDMV?$_Uhash_compare@PEBDU?$hash@PEBD@std@@U?$equal_to@PEBD@2@@std@@V?$allocator@U?$pair@QEBDM@std@@@2@$0A@@std@@@std@@QEAA@XZ 0000000180002c58 f i imgui_tricks.obj
 0001:00001cf8       ?FastFloatLerp@Animations@ImTricks@@YAMPEBD_NMMM@Z 0000000180002cf8 f   imgui_tricks.obj
 0001:00001f5c       ??1?$vector@UNotifyStruct@NotifyManager@ImTricks@@V?$allocator@UNotifyStruct@NotifyManager@ImTricks@@@std@@@std@@QEAA@XZ 0000000180002f5c f i imgui_tricks.obj
 0001:00001f5c       ??1?$vector@Vc_texture2@@V?$allocator@Vc_texture2@@@std@@@std@@QEAA@XZ 0000000180002f5c f i main.obj
 0001:00001fd0       ?_Assign_grow@?$_Hash_vec@V?$allocator@V?$_List_unchecked_iterator@V?$_List_val@U?$_List_simple_types@U?$pair@QEBDH@std@@@std@@@std@@@std@@@std@@@std@@QEAAX_KV?$_List_unchecked_iterator@V?$_List_val@U?$_List_simple_types@U?$pair@QEBDH@std@@@std@@@std@@@2@@Z 0000000180002fd0 f i imgui_tricks.obj
 0001:00001fd0       ?_Assign_grow@?$_Hash_vec@V?$allocator@V?$_List_unchecked_iterator@V?$_List_val@U?$_List_simple_types@U?$pair@QEBDM@std@@@std@@@std@@@std@@@std@@@std@@QEAAX_KV?$_List_unchecked_iterator@V?$_List_val@U?$_List_simple_types@U?$pair@QEBDM@std@@@std@@@std@@@2@@Z 0000000180002fd0 f i imgui_tricks.obj
 0001:00002110       ??$emplace@U?$pair@QEBDM@std@@@?$_Hash@V?$_Umap_traits@PEBDMV?$_Uhash_compare@PEBDU?$hash@PEBD@std@@U?$equal_to@PEBD@2@@std@@V?$allocator@U?$pair@QEBDM@std@@@2@$0A@@std@@@std@@QEAA?AU?$pair@V?$_List_iterator@V?$_List_val@U?$_List_simple_types@U?$pair@QEBDM@std@@@std@@@std@@@std@@_N@1@$$QEAU?$pair@QEBDM@1@@Z 0000000180003110 f i imgui_tricks.obj
 0001:00002340       ??$emplace@U?$pair@QEBDH@std@@@?$_Hash@V?$_Umap_traits@PEBDHV?$_Uhash_compare@PEBDU?$hash@PEBD@std@@U?$equal_to@PEBD@2@@std@@V?$allocator@U?$pair@QEBDH@std@@@2@$0A@@std@@@std@@QEAA?AU?$pair@V?$_List_iterator@V?$_List_val@U?$_List_simple_types@U?$pair@QEBDH@std@@@std@@@std@@@std@@_N@1@$$QEAU?$pair@QEBDH@1@@Z 0000000180003340 f i imgui_tricks.obj
 0001:00002570       ?_Rehash_for_1@?$_Hash@V?$_Umap_traits@PEBDMV?$_Uhash_compare@PEBDU?$hash@PEBD@std@@U?$equal_to@PEBD@2@@std@@V?$allocator@U?$pair@QEBDM@std@@@2@$0A@@std@@@std@@IEAAXXZ 0000000180003570 f i imgui_tricks.obj
 0001:000027c0       ?_Rehash_for_1@?$_Hash@V?$_Umap_traits@PEBDHV?$_Uhash_compare@PEBDU?$hash@PEBD@std@@U?$equal_to@PEBD@2@@std@@V?$allocator@U?$pair@QEBDH@std@@@2@$0A@@std@@@std@@IEAAXXZ 00000001800037c0 f i imgui_tricks.obj
 0001:00002a10       ?Update@Discord@@QEAAXXZ   0000000180003a10 f   Discord.obj
 0001:00002f24       ?Stop@Discord@@QEAAXXZ     0000000180003f24 f   Discord.obj
 0001:00003098       ??0?$basic_string@DU?$char_traits@D@std@@V?$allocator@D@2@@std@@QEAA@U_String_constructor_concat_tag@1@AEBV01@QEBD_K23@Z 0000000180004098 f i Discord.obj
 0001:0000316c       ?_Get_bits@?$_Rng_from_urng_v2@IV?$mersenne_twister_engine@I$0CA@$0CHA@$0BIN@$0BP@$0JJAILANP@$0L@$0PPPPPPPP@$06$0JNCMFGIA@$0P@$0OPMGAAAA@$0BC@$0GMAHIJGF@@std@@@std@@AEAAIXZ 000000018000416c f i Discord.obj
 0001:000032fc       ?Open@BaseConnection@@QEAA_NXZ 00000001800042fc f   connection_win.obj
 0001:000033c8       ?Write@BaseConnection@@QEAA_NPEBX_K@Z 00000001800043c8 f   connection_win.obj
 0001:00003424       ?Read@BaseConnection@@QEAA_NPEAX_K@Z 0000000180004424 f   connection_win.obj
 0001:000034cc       __local_stdio_printf_options 00000001800044cc f i discord_register_win.obj
 0001:000034d4       fprintf                    00000001800044d4 f i discord_register_win.obj
 0001:00003518       ?StringCbPrintfW@@YAJPEA_W_KPEB_WZZ 0000000180004518 f i discord_register_win.obj
 0001:000038dc       ??0JsonDocument@@QEAA@XZ   00000001800048dc f i discord_rpc.obj
 0001:000039c4       ?GetStrMember@@YAPEBDPEAV?$GenericValue@U?$UTF8@D@rapidjson@@V?$MemoryPoolAllocator@VCrtAllocator@rapidjson@@@2@@rapidjson@@PEBD1@Z 00000001800049c4 f i discord_rpc.obj
 0001:00003a3c       ?now@steady_clock@chrono@std@@SA?AV?$time_point@Usteady_clock@chrono@std@@V?$duration@_JU?$ratio@$00$0DLJKMKAA@@std@@@23@@23@XZ 0000000180004a3c f i discord_rpc.obj
 0001:00003b00       ??1IoThreadHolder@@QEAA@XZ 0000000180004b00 f i discord_rpc.obj
 0001:0000434c       ??1JsonDocument@@QEAA@XZ   000000018000534c f i discord_rpc.obj
 0001:000044b4       Discord_Initialize         00000001800054b4 f   discord_rpc.obj
 0001:00004aec       Discord_UpdatePresence     0000000180005aec f   discord_rpc.obj
 0001:00004b94       ??1?$GenericDocument@U?$UTF8@D@rapidjson@@V?$MemoryPoolAllocator@VCrtAllocator@rapidjson@@@2@V?$FixedLinearAllocator@$0IAA@@@@rapidjson@@QEAA@XZ 0000000180005b94 f i discord_rpc.obj
 0001:00004c14       ?FindMember@?$GenericValue@U?$UTF8@D@rapidjson@@V?$MemoryPoolAllocator@VCrtAllocator@rapidjson@@@2@@rapidjson@@QEAA?AV?$GenericMemberIterator@$0A@U?$UTF8@D@rapidjson@@V?$MemoryPoolAllocator@VCrtAllocator@rapidjson@@@2@@2@PEBD@Z 0000000180005c14 f i discord_rpc.obj
 0001:00004d40       ??1?$GenericValue@U?$UTF8@D@rapidjson@@V?$MemoryPoolAllocator@VCrtAllocator@rapidjson@@@2@@rapidjson@@QEAA@XZ 0000000180005d40 f i discord_rpc.obj
 0001:00004d40       ?SetFlying@misc@hk@@YAXPEAVModelState@@_N@Z 0000000180005d40 f i main.obj
 0001:00004d40       FT_Trace_Disable           0000000180005d40 f i freetype:ftdebug.obj
 0001:00004d40       FT_Trace_Enable            0000000180005d40 f i freetype:ftdebug.obj
 0001:00004d40       _guard_check_icall_nop     0000000180005d40 f i MSVCRT:guard_support.obj
 0001:00004d44       ??$_Invoke@V?$tuple@V<lambda_ccb3bb1b71419415c65ba753b4b46f06>@@@std@@$0A@@thread@std@@CAIPEAX@Z 0000000180005d44 f i discord_rpc.obj
 0001:00004e90       ?_Refill_lower@?$mersenne_twister@_K$0EA@$0BDI@$0JM@$0BP@$0?EKPNJAKFFGJJOGBH@$0BN@$0BB@$0HBNGHPPPONKGAAAA@$0CF@$0?IBBCAAAAAAAAA@$0CL@@std@@IEAAXXZ 0000000180005e90 f i discord_rpc.obj
 0001:00004f88       ?Open@RpcConnection@@QEAAXXZ 0000000180005f88 f   rpc_connection.obj
 0001:000050cc       ?Close@RpcConnection@@QEAAXXZ 00000001800060cc f   rpc_connection.obj
 0001:0000511c       ?Write@RpcConnection@@QEAA_NPEBX_K@Z 000000018000611c f   rpc_connection.obj
 0001:00005188       ?Read@RpcConnection@@QEAA_NAEAVJsonDocument@@@Z 0000000180006188 f   rpc_connection.obj
 0001:000053f8       ?ParseInsitu@?$GenericDocument@U?$UTF8@D@rapidjson@@V?$MemoryPoolAllocator@VCrtAllocator@rapidjson@@@2@V?$FixedLinearAllocator@$0IAA@@@@rapidjson@@QEAAAEAV12@PEAD@Z 00000001800063f8 f i rpc_connection.obj
 0001:00005518       ??$ParseValue@$00U?$GenericInsituStringStream@U?$UTF8@D@rapidjson@@@rapidjson@@V?$GenericDocument@U?$UTF8@D@rapidjson@@V?$MemoryPoolAllocator@VCrtAllocator@rapidjson@@@2@V?$FixedLinearAllocator@$0IAA@@@@2@@?$GenericReader@U?$UTF8@D@rapidjson@@U12@V?$FixedLinearAllocator@$0IAA@@@@rapidjson@@AEAAXAEAU?$GenericInsituStringStream@U?$UTF8@D@rapidjson@@@1@AEAV?$GenericDocument@U?$UTF8@D@rapidjson@@V?$MemoryPoolAllocator@VCrtAllocator@rapidjson@@@2@V?$FixedLinearAllocator@$0IAA@@@@1@@Z 0000000180006518 f i rpc_connection.obj
 0001:0000561c       ??$SkipWhitespace@U?$GenericInsituStringStream@U?$UTF8@D@rapidjson@@@rapidjson@@@rapidjson@@YAXAEAU?$GenericInsituStringStream@U?$UTF8@D@rapidjson@@@0@@Z 000000018000661c f i rpc_connection.obj
 0001:00005664       ??$ParseNull@$00U?$GenericInsituStringStream@U?$UTF8@D@rapidjson@@@rapidjson@@V?$GenericDocument@U?$UTF8@D@rapidjson@@V?$MemoryPoolAllocator@VCrtAllocator@rapidjson@@@2@V?$FixedLinearAllocator@$0IAA@@@@2@@?$GenericReader@U?$UTF8@D@rapidjson@@U12@V?$FixedLinearAllocator@$0IAA@@@@rapidjson@@AEAAXAEAU?$GenericInsituStringStream@U?$UTF8@D@rapidjson@@@1@AEAV?$GenericDocument@U?$UTF8@D@rapidjson@@V?$MemoryPoolAllocator@VCrtAllocator@rapidjson@@@2@V?$FixedLinearAllocator@$0IAA@@@@1@@Z 0000000180006664 f i rpc_connection.obj
 0001:0000577c       ??$ParseString@$00U?$GenericInsituStringStream@U?$UTF8@D@rapidjson@@@rapidjson@@V?$GenericDocument@U?$UTF8@D@rapidjson@@V?$MemoryPoolAllocator@VCrtAllocator@rapidjson@@@2@V?$FixedLinearAllocator@$0IAA@@@@2@@?$GenericReader@U?$UTF8@D@rapidjson@@U12@V?$FixedLinearAllocator@$0IAA@@@@rapidjson@@AEAAXAEAU?$GenericInsituStringStream@U?$UTF8@D@rapidjson@@@1@AEAV?$GenericDocument@U?$UTF8@D@rapidjson@@V?$MemoryPoolAllocator@VCrtAllocator@rapidjson@@@2@V?$FixedLinearAllocator@$0IAA@@@@1@_N@Z 000000018000677c f i rpc_connection.obj
 0001:00005a5c       ??$ParseObject@$00U?$GenericInsituStringStream@U?$UTF8@D@rapidjson@@@rapidjson@@V?$GenericDocument@U?$UTF8@D@rapidjson@@V?$MemoryPoolAllocator@VCrtAllocator@rapidjson@@@2@V?$FixedLinearAllocator@$0IAA@@@@2@@?$GenericReader@U?$UTF8@D@rapidjson@@U12@V?$FixedLinearAllocator@$0IAA@@@@rapidjson@@AEAAXAEAU?$GenericInsituStringStream@U?$UTF8@D@rapidjson@@@1@AEAV?$GenericDocument@U?$UTF8@D@rapidjson@@V?$MemoryPoolAllocator@VCrtAllocator@rapidjson@@@2@V?$FixedLinearAllocator@$0IAA@@@@1@@Z 0000000180006a5c f i rpc_connection.obj
 0001:00005be0       ??$ParseArray@$00U?$GenericInsituStringStream@U?$UTF8@D@rapidjson@@@rapidjson@@V?$GenericDocument@U?$UTF8@D@rapidjson@@V?$MemoryPoolAllocator@VCrtAllocator@rapidjson@@@2@V?$FixedLinearAllocator@$0IAA@@@@2@@?$GenericReader@U?$UTF8@D@rapidjson@@U12@V?$FixedLinearAllocator@$0IAA@@@@rapidjson@@AEAAXAEAU?$GenericInsituStringStream@U?$UTF8@D@rapidjson@@@1@AEAV?$GenericDocument@U?$UTF8@D@rapidjson@@V?$MemoryPoolAllocator@VCrtAllocator@rapidjson@@@2@V?$FixedLinearAllocator@$0IAA@@@@1@@Z 0000000180006be0 f i rpc_connection.obj
 0001:00005d00       ??$ParseNumber@$00U?$GenericInsituStringStream@U?$UTF8@D@rapidjson@@@rapidjson@@V?$GenericDocument@U?$UTF8@D@rapidjson@@V?$MemoryPoolAllocator@VCrtAllocator@rapidjson@@@2@V?$FixedLinearAllocator@$0IAA@@@@2@@?$GenericReader@U?$UTF8@D@rapidjson@@U12@V?$FixedLinearAllocator@$0IAA@@@@rapidjson@@AEAAXAEAU?$GenericInsituStringStream@U?$UTF8@D@rapidjson@@@1@AEAV?$GenericDocument@U?$UTF8@D@rapidjson@@V?$MemoryPoolAllocator@VCrtAllocator@rapidjson@@@2@V?$FixedLinearAllocator@$0IAA@@@@1@@Z 0000000180006d00 f i rpc_connection.obj
 0001:0000634c       ?EndArray@?$GenericDocument@U?$UTF8@D@rapidjson@@V?$MemoryPoolAllocator@VCrtAllocator@rapidjson@@@2@V?$FixedLinearAllocator@$0IAA@@@@rapidjson@@QEAA_NI@Z 000000018000734c f i rpc_connection.obj
 0001:000063d4       ?StartArray@?$GenericDocument@U?$UTF8@D@rapidjson@@V?$MemoryPoolAllocator@VCrtAllocator@rapidjson@@@2@V?$FixedLinearAllocator@$0IAA@@@@rapidjson@@QEAA_NXZ 00000001800073d4 f i rpc_connection.obj
 0001:000064ac       ?EndObject@?$GenericDocument@U?$UTF8@D@rapidjson@@V?$MemoryPoolAllocator@VCrtAllocator@rapidjson@@@2@V?$FixedLinearAllocator@$0IAA@@@@rapidjson@@QEAA_NI@Z 00000001800074ac f i rpc_connection.obj
 0001:00006534       ?StartObject@?$GenericDocument@U?$UTF8@D@rapidjson@@V?$MemoryPoolAllocator@VCrtAllocator@rapidjson@@@2@V?$FixedLinearAllocator@$0IAA@@@@rapidjson@@QEAA_NXZ 0000000180007534 f i rpc_connection.obj
 0001:0000660c       ?String@?$GenericDocument@U?$UTF8@D@rapidjson@@V?$MemoryPoolAllocator@VCrtAllocator@rapidjson@@@2@V?$FixedLinearAllocator@$0IAA@@@@rapidjson@@QEAA_NPEBDI_N@Z 000000018000760c f i rpc_connection.obj
 0001:00006718       ?Double@?$GenericDocument@U?$UTF8@D@rapidjson@@V?$MemoryPoolAllocator@VCrtAllocator@rapidjson@@@2@V?$FixedLinearAllocator@$0IAA@@@@rapidjson@@QEAA_NN@Z 0000000180007718 f i rpc_connection.obj
 0001:00006800       ?Uint64@?$GenericDocument@U?$UTF8@D@rapidjson@@V?$MemoryPoolAllocator@VCrtAllocator@rapidjson@@@2@V?$FixedLinearAllocator@$0IAA@@@@rapidjson@@QEAA_N_K@Z 0000000180007800 f i rpc_connection.obj
 0001:00006918       ?Int64@?$GenericDocument@U?$UTF8@D@rapidjson@@V?$MemoryPoolAllocator@VCrtAllocator@rapidjson@@@2@V?$FixedLinearAllocator@$0IAA@@@@rapidjson@@QEAA_N_J@Z 0000000180007918 f i rpc_connection.obj
 0001:00006a40       ?Uint@?$GenericDocument@U?$UTF8@D@rapidjson@@V?$MemoryPoolAllocator@VCrtAllocator@rapidjson@@@2@V?$FixedLinearAllocator@$0IAA@@@@rapidjson@@QEAA_NI@Z 0000000180007a40 f i rpc_connection.obj
 0001:00006b34       ?Bool@?$GenericDocument@U?$UTF8@D@rapidjson@@V?$MemoryPoolAllocator@VCrtAllocator@rapidjson@@@2@V?$FixedLinearAllocator@$0IAA@@@@rapidjson@@QEAA_N_N@Z 0000000180007b34 f i rpc_connection.obj
 0001:00006c1c       ?Malloc@?$MemoryPoolAllocator@VCrtAllocator@rapidjson@@@rapidjson@@QEAAPEAX_K@Z 0000000180007c1c f i rpc_connection.obj
 0001:00006cc4       ?u32toa@internal@rapidjson@@YAPEADIPEAD@Z 0000000180007cc4 f i serialization.obj
 0001:00006ed4       ?u64toa@internal@rapidjson@@YAPEAD_KPEAD@Z 0000000180007ed4 f i serialization.obj
 0001:00007498       ?JsonWriteRichPresenceObj@@YA_KPEAD_KHHPEBUDiscordRichPresence@@@Z 0000000180008498 f   serialization.obj
 0001:00007b50       ?JsonWriteHandshakeObj@@YA_KPEAD_KHPEBD@Z 0000000180008b50 f   serialization.obj
 0001:00007c7c       ?JsonWriteSubscribeCommand@@YA_KPEAD_KHPEBD@Z 0000000180008c7c f   serialization.obj
 0001:00007dc4       ?JsonWriteUnsubscribeCommand@@YA_KPEAD_KHPEBD@Z 0000000180008dc4 f   serialization.obj
 0001:00007f0c       ?StartObject@?$Writer@VDirectStringBuffer@@U?$UTF8@D@rapidjson@@U23@V?$FixedLinearAllocator@$0IAA@@@$0A@@rapidjson@@QEAA_NXZ 0000000180008f0c f i serialization.obj
 0001:00008040       ?Int64@?$Writer@VDirectStringBuffer@@U?$UTF8@D@rapidjson@@U23@V?$FixedLinearAllocator@$0IAA@@@$0A@@rapidjson@@QEAA_N_J@Z 0000000180009040 f i serialization.obj
 0001:00008100       ?Int@?$Writer@VDirectStringBuffer@@U?$UTF8@D@rapidjson@@U23@V?$FixedLinearAllocator@$0IAA@@@$0A@@rapidjson@@QEAA_NH@Z 0000000180009100 f i serialization.obj
 0001:000081c0       ?Bool@?$Writer@VDirectStringBuffer@@U?$UTF8@D@rapidjson@@U23@V?$FixedLinearAllocator@$0IAA@@@$0A@@rapidjson@@QEAA_N_N@Z 00000001800091c0 f i serialization.obj
 0001:000082b4       ?String@?$Writer@VDirectStringBuffer@@U?$UTF8@D@rapidjson@@U23@V?$FixedLinearAllocator@$0IAA@@@$0A@@rapidjson@@QEAA_NPEBDI_N@Z 00000001800092b4 f i serialization.obj
 0001:0000842c       ??$?0$$BY04$$CBD@WriteArray@@QEAA@AEAVJsonWriter@@AEAY04$$CBD@Z 000000018000942c f i serialization.obj
 0001:00008584       sprintf_s                  0000000180009584 f i main.obj
 0001:000085d8       _scprintf                  00000001800095d8 f i main.obj
 0001:0000862c       ?to_string@std@@YA?AV?$basic_string@DU?$char_traits@D@std@@V?$allocator@D@2@@1@H@Z 000000018000962c f i main.obj
 0001:00008788       ?to_string@std@@YA?AV?$basic_string@DU?$char_traits@D@std@@V?$allocator@D@2@@1@M@Z 0000000180009788 f i main.obj
 0001:00008898       ??0runtime_error@std@@QEAA@AEBV01@@Z 0000000180009898 f i main.obj
 0001:000088d8       ?default_error_condition@error_category@std@@UEBA?AVerror_condition@2@H@Z 00000001800098d8 f i main.obj
 0001:000088e4       ?equivalent@error_category@std@@UEBA_NHAEBVerror_condition@2@@Z 00000001800098e4 f i main.obj
 0001:00008920       ?equivalent@error_category@std@@UEBA_NAEBVerror_code@2@H@Z 0000000180009920 f i main.obj
 0001:0000893c       ?make_error_code@std@@YA?AVerror_code@1@W4errc@1@@Z 000000018000993c f i main.obj
 0001:00008954       ??_E_System_error@std@@UEAAPEAXI@Z 0000000180009954 f i * CIL library *:* CIL module *
 0001:00008954       ??_Esystem_error@std@@UEAAPEAXI@Z 0000000180009954 f i * CIL library *:* CIL module *
 0001:00008954       ??_G_System_error@std@@UEAAPEAXI@Z 0000000180009954 f i main.obj
 0001:00008954       ??_Gsystem_error@std@@UEAAPEAXI@Z 0000000180009954 f i main.obj
 0001:00008998       ??0system_error@std@@QEAA@Verror_code@1@@Z 0000000180009998 f i main.obj
 0001:00008a68       ??0system_error@std@@QEAA@Verror_code@1@AEBV?$basic_string@DU?$char_traits@D@std@@V?$allocator@D@2@@1@@Z 0000000180009a68 f i main.obj
 0001:00008c28       ?_Throw_system_error@std@@YAXW4errc@1@@Z 0000000180009c28 f i main.obj
 0001:00008c60       ??0system_error@std@@QEAA@AEBV01@@Z 0000000180009c60 f i main.obj
 0001:00008cbc       ??0_System_error@std@@QEAA@AEBV01@@Z 0000000180009cbc f i main.obj
 0001:00008d0c       ?name@_Generic_error_category@std@@UEBAPEBDXZ 0000000180009d0c f i main.obj
 0001:00008d14       ?message@_Generic_error_category@std@@UEBA?AV?$basic_string@DU?$char_traits@D@std@@V?$allocator@D@2@@2@H@Z 0000000180009d14 f i main.obj
 0001:00008d58       ??_E_Generic_error_category@std@@UEAAPEAXI@Z 0000000180009d58 f i * CIL library *:* CIL module *
 0001:00008d58       ??_E_System_error_category@std@@UEAAPEAXI@Z 0000000180009d58 f i * CIL library *:* CIL module *
 0001:00008d58       ??_G_Generic_error_category@std@@UEAAPEAXI@Z 0000000180009d58 f i main.obj
 0001:00008d58       ??_G_System_error_category@std@@UEAAPEAXI@Z 0000000180009d58 f i main.obj
 0001:00008d7c       ?name@_System_error_category@std@@UEBAPEBDXZ 0000000180009d7c f i main.obj
 0001:00008d84       ?message@_System_error_category@std@@UEBA?AV?$basic_string@DU?$char_traits@D@std@@V?$allocator@D@2@@2@H@Z 0000000180009d84 f i main.obj
 0001:00008e14       ?default_error_condition@_System_error_category@std@@UEBA?AVerror_condition@2@H@Z 0000000180009e14 f i main.obj
 0001:00008e6c       ?_Make_ec@std@@YA?AVerror_code@1@W4__std_win_error@@@Z 0000000180009e6c f i main.obj
 0001:00008e80       ?_Throw_system_error_from_std_win_error@std@@YAXW4__std_win_error@@@Z 0000000180009e80 f i main.obj
 0001:00008ec0       ?_Get_deleter@_Ref_count_base@std@@UEBAPEAXAEBVtype_info@@@Z 0000000180009ec0 f i main.obj
 0001:00008ec0       __scrt_stub_for_is_c_termination_complete 0000000180009ec0 f i MSVCRT:ucrt_stubs.obj
 0001:00008ec0       _is_c_termination_complete 0000000180009ec0 f i MSVCRT:ucrt_stubs.obj
 0001:00008ec4       ?UnityNormalize@Vector3@@QEAA?AV1@XZ 0000000180009ec4 f i main.obj
 0001:00008f64       ?NormalizeAngles@Math@@YA?AVVector3@@V2@@Z 0000000180009f64 f   main.obj
 0001:00008fe8       ?EulerAngles@Math@@YA?AVVector3@@VQuaternion@@@Z 0000000180009fe8 f   main.obj
 0001:000091ec       ?RotatePoint@Math@@YA?AVVector3@@V2@0M@Z 000000018000a1ec f   main.obj
 0001:00009284       ?_Throw_tree_length_error@std@@YAXXZ 000000018000a284 f i main.obj
 0001:00009298       ?klass@il2cpp@@YAPEAVIl2CppClass@1@I@Z 000000018000a298 f   main.obj
 0001:000099b0       ?method@il2cpp@@YA_KI@Z    000000018000a9b0 f   main.obj
 0001:0000a970       ?_init_class@il2cpp@@YA_KPEBD0@Z 000000018000b970 f   main.obj
 0001:0000a9f4       ?field_@il2cpp@@YA_K_KPEAD_N@Z 000000018000b9f4 f   main.obj
 0001:0000aa88       ?field@il2cpp@@YA_KI@Z     000000018000ba88 f   main.obj
 0001:0000b3a4       ?init_classes@il2cpp@@YAXXZ 000000018000c3a4 f   main.obj
 0001:0000b9ac       ?init_methods@il2cpp@@YAXXZ 000000018000c9ac f   main.obj
 0001:0000c850       ?init_fields@il2cpp@@YAXXZ 000000018000d850 f   main.obj
 0001:0000d014       ?get_camera@unity@il2cpp@@YA_KXZ 000000018000e014 f   main.obj
 0001:0000d238       ?getViewMatrix@unity@il2cpp@@YA?AVMatrix@@XZ 000000018000e238 f   main.obj
 0001:0000d2ec       ?Contains@StringIl@@QEAA_NPEAV1@@Z 000000018000e2ec f i main.obj
 0001:0000d374       ?position@Transform@@QEAA?AVVector3@@XZ 000000018000e374 f i main.obj
 0001:0000d408       ?InverseTransformPoint@Transform@@QEAA?AVVector3@@V2@@Z 000000018000e408 f i main.obj
 0001:0000d4c0       ?set_position@Transform@@QEAAXVVector3@@@Z 000000018000e4c0 f i main.obj
 0001:0000d558       ?GetType@Type@@SAPEAV1@PEBD@Z 000000018000e558 f i main.obj
 0001:0000d5f4       ?transform@Object@@QEAAPEAVTransform@@XZ 000000018000e5f4 f i main.obj
 0001:0000d678       ?clientEntities@BaseNetworkable@@SAPEAVEntityRealm@1@XZ 000000018000e678 f i main.obj
 0001:0000d6ec       ?GetWorldVelocity@BaseEntity@@QEAA?AVVector3@@XZ 000000018000e6ec f i main.obj
 0001:0000d784       ?IsValid@BaseEntity@@QEAA_NXZ 000000018000e784 f i main.obj
 0001:0000d804       ?_ServerRPC@BaseEntity@@QEAAXPEBD@Z 000000018000e804 f i main.obj
 0001:0000d8b4       ?SendSignalBroadcast@BaseEntity@@QEAAXW4Signal@1@PEAD@Z 000000018000e8b4 f i main.obj
 0001:0000d968       ?_fov@Graphics@ConVar@@SAAEAMXZ 000000018000e968 f i main.obj
 0001:0000d9dc       ?IsPlayer@BaseCombatEntity@@QEAA_NXZ 000000018000e9dc f i main.obj
 0001:0000dbc8       ?repeatDelay@AttackEntity@@QEAAAEAMXZ 000000018000ebc8 f i main.obj
 0001:0000dc44       ?deployDelay@AttackEntity@@QEAAAEAMXZ 000000018000ec44 f i main.obj
 0001:0000dcc0       ?timeSinceDeploy@AttackEntity@@QEAAAEAMXZ 000000018000ecc0 f i main.obj
 0001:0000dd3c       ?nextAttackTime@AttackEntity@@QEAAAEAMXZ 000000018000ed3c f i main.obj
 0001:0000ddb8       ?StartAttackCooldown@BaseMelee@@QEAAXM@Z 000000018000edb8 f i main.obj
 0001:0000de40       ?DoAttack@BaseMelee@@QEAAXPEAVHitTest@@@Z 000000018000ee40 f i main.obj
 0001:0000dec8       ?maxDistance@BaseMelee@@QEAAAEAMXZ 000000018000eec8 f i main.obj
 0001:0000df44       ?contents@Magazine@BaseProjectile@@QEAAAEAHXZ 000000018000ef44 f i main.obj
 0001:0000dfc0       ?primaryMagazine@BaseProjectile@@QEAAAEAPEAVMagazine@1@XZ 000000018000efc0 f i main.obj
 0001:0000e03c       ?nextReloadTime@BaseProjectile@@QEAAAEAMXZ 000000018000f03c f i main.obj
 0001:0000e0b8       ?reloadTime@BaseProjectile@@QEAAAEAMXZ 000000018000f0b8 f i main.obj
 0001:0000e134       ?ShotFired@BaseProjectile@@QEAAXXZ 000000018000f134 f i main.obj
 0001:0000e1ac       ?UpdateAmmoDisplay@BaseProjectile@@QEAAXXZ 000000018000f1ac f i main.obj
 0001:0000e224       ?DidAttackClientside@BaseProjectile@@QEAAXXZ 000000018000f224 f i main.obj
 0001:0000e29c       ?BeginCycle@BaseProjectile@@QEAAXXZ 000000018000f29c f i main.obj
 0001:0000e314       ?SendSignalBroadcast@BaseProjectile@@QEAAXW4Signal@BaseEntity@@PEAD@Z 000000018000f314 f i main.obj
 0001:0000e3c8       ?flags@ModelState@@QEAAAEAHXZ 000000018000f3c8 f i main.obj
 0001:0000e444       ?TeleportTo@PlayerWalkMovement@@QEAAXVVector3@@@Z 000000018000f444 f i main.obj
 0001:0000e568       ?set_material@Renderer_@@QEAAXPEAVMaterial@@@Z 000000018000f568 f i main.obj
 0001:0000e5f0       ?get_name@Material@@QEAAPEAVStringIl@@XZ 000000018000f5f0 f i main.obj
 0001:0000e668       ?Magnitude2D@Misc@@SAMVVector3@@@Z 000000018000f668 f i main.obj
 0001:0000e6f0       ?isNpc@PlayerModel@@QEAA_NXZ 000000018000f6f0 f i main.obj
 0001:0000e76c       ?position@PlayerModel@@QEAA?AVVector3@@XZ 000000018000f76c f i main.obj
 0001:0000e808       ?get_position@PlayerEyes@@QEAA?AVVector3@@XZ 000000018000f808 f i main.obj
 0001:0000e89c       ?EyeOffset@PlayerEyes@@SA?AVVector3@@XZ 000000018000f89c f i main.obj
 0001:0000e924       ?position@PlayerEyes@@QEAA?AVVector3@@XZ 000000018000f924 f i main.obj
 0001:0000e9b8       ?position@PlayerTick@@QEAAAEAVVector3@@XZ 000000018000f9b8 f i main.obj
 0001:0000ea34       ?uid@Item@@QEAAAEAIXZ      000000018000fa34 f i main.obj
 0001:0000eab0       ?info@Item@@QEAAAEAPEAVItemDefinition@@XZ 000000018000fab0 f i main.obj
 0001:0000eb2c       ?infom_@Item@@QEAA?AUWeapon_M@@XZ 000000018000fb2c f i main.obj
 0001:0000ec18       ?itemList@ItemContainer@@QEAAAEAPEAU?$List_@PEAVItem@@@@XZ 000000018000fc18 f i main.obj
 0001:0000ec94       ?containerBelt@PlayerInventory@@QEAAAEAPEAVItemContainer@@XZ 000000018000fc94 f i main.obj
 0001:0000ed10       ?_displayName@BasePlayer@@QEAAPEB_WXZ 000000018000fd10 f i main.obj
 0001:0000ed94       ?_playerModel@BasePlayer@@QEAAAEAPEAVPlayerModel@@XZ 000000018000fd94 f i main.obj
 0001:0000ee10       ?userID@BasePlayer@@QEAAAEA_KXZ 000000018000fe10 f i main.obj
 0001:0000ee8c       ?eyes@BasePlayer@@QEAAAEAPEAVPlayerEyes@@XZ 000000018000fe8c f i main.obj
 0001:0000ef08       ?mounted@BasePlayer@@QEAAAEAPEAVBaseMountable@@XZ 000000018000ff08 f i main.obj
 0001:0000ef84       ?movement@BasePlayer@@QEAAAEAPEAVPlayerWalkMovement@@XZ 000000018000ff84 f i main.obj
 0001:0000f000       ?inventory@BasePlayer@@QEAAAEAPEAVPlayerInventory@@XZ 0000000180010000 f i main.obj
 0001:0000f07c       ?clActiveItem@BasePlayer@@QEAAAEAIXZ 000000018001007c f i main.obj
 0001:0000f0f8       ?lastSentTick@BasePlayer@@QEAAAEAPEAVPlayerTick@@XZ 00000001800100f8 f i main.obj
 0001:0000f174       ?modelState@BasePlayer@@QEAAAEAPEAVModelState@@XZ 0000000180010174 f i main.obj
 0001:0000f1f0       ?lastSentTickTime@BasePlayer@@QEAAAEAMXZ 00000001800101f0 f i main.obj
 0001:0000f26c       ?get_bone_pos@BasePlayer@@QEAA?AVVector3@@W4BoneList@@@Z 000000018001026c f i main.obj
 0001:0000f2e0       ?Distance@BasePlayer@@QEAAMVVector3@@@Z 00000001800102e0 f i main.obj
 0001:0000f384       ?SendProjectileUpdate@BasePlayer@@QEAAXPEAVPlayerProjectileUpdate@@@Z 0000000180010384 f i main.obj
 0001:0000f40c       ?GetJumpHeight@BasePlayer@@QEAAMXZ 000000018001040c f i main.obj
 0001:0000f490       ?MaxVelocity@BasePlayer@@QEAAMXZ 0000000180010490 f i main.obj
 0001:0000f574       ?GetHeldItem@BasePlayer@@QEAAPEAVItem@@XZ 0000000180010574 f i main.obj
 0001:0000f628       ?in_minicopter@BasePlayer@@QEAA_NXZ 0000000180010628 f i main.obj
 0001:0000f73c       ?HasPlayerFlag@BasePlayer@@QEAA_NW4PlayerFlags@@@Z 000000018001073c f i main.obj
 0001:0000f7c8       ?playerModel@BasePlayer@@QEAAAEAPEAVPlayerModel@@XZ 00000001800107c8 f i main.obj
 0001:0000f844       ?Entity@LocalPlayer@@SAPEAVBasePlayer@@XZ 0000000180010844 f i main.obj
 0001:0000f8b8       ?LoadFromFile@AssetBundle@@SAPEAV1@PEBD@Z 00000001800108b8 f i main.obj
 0001:0000f954       ?_HitEntity@HitTest@@QEAAAEAPEAVBaseNetworkable@@XZ 0000000180010954 f i main.obj
 0001:0000f9d0       ?MaxDistance@HitTest@@QEAAAEAMXZ 00000001800109d0 f i main.obj
 0001:0000fa4c       ?AttackRay@HitTest@@QEAAAEAURay@@XZ 0000000180010a4c f i main.obj
 0001:0000fac8       ?DidHit@HitTest@@QEAAAEA_NXZ 0000000180010ac8 f i main.obj
 0001:0000fb44       ?HitEntity@HitTest@@QEAAAEAPEAVBaseEntity@@XZ 0000000180010b44 f i main.obj
 0001:0000fbc0       ?HitPoint@HitTest@@QEAAAEAVVector3@@XZ 0000000180010bc0 f i main.obj
 0001:0000fc3c       ?HitNormal@HitTest@@QEAAAEAVVector3@@XZ 0000000180010c3c f i main.obj
 0001:0000fcb8       ?HitTransform@HitTest@@QEAAAEAPEAVTransform@@XZ 0000000180010cb8 f i main.obj
 0001:0000fd34       ?HitMaterial_@HitTest@@QEAAAEAPEAVString@il2cpp@@XZ 0000000180010d34 f i main.obj
 0001:0000fdb0       ?traveledTime@Projectile@@QEAAAEAMXZ 0000000180010db0 f i main.obj
 0001:0000fe2c       ?currentPosition@Projectile@@QEAAAEAVVector3@@XZ 0000000180010e2c f i main.obj
 0001:0000fea8       ?currentVelocity@Projectile@@QEAAAEAVVector3@@XZ 0000000180010ea8 f i main.obj
 0001:0000ff24       ?previousPosition@Projectile@@QEAAAEAVVector3@@XZ 0000000180010f24 f i main.obj
 0001:0000ffa0       ?isAuthoritative@Projectile@@QEAA_NXZ 0000000180010fa0 f i main.obj
 0001:00010024       ?w2s@utils@@YA_NVVector3@@AEAVVector2@@@Z 0000000180011024 f   main.obj
 0001:000101c8       ?LineOfSight@utils@@YA_NVVector3@@0@Z 00000001800111c8 f   main.obj
 0001:000102f0       ?belt_tab_mov@belt@@YAXVVector2@@@Z 00000001800112f0 f   main.obj
 0001:000103f8       ?wear_tab_mov@wear@@YAXVVector2@@@Z 00000001800113f8 f   main.obj
 0001:00010500       ?DrawLine@ImGuiRendering@@QEAAXMMMMUImColor@@M_N@Z 0000000180011500 f i main.obj
 0001:00010608       ?DrawFilledCircle@ImGuiRendering@@QEAAXMMMUImColor@@@Z 0000000180011608 f i main.obj
 0001:000106b0       ?DrawString@ImGuiRendering@@QEAAXMMUImColor@@HHMPEBDZZ 00000001800116b0 f i main.obj
 0001:00010e94       ?DrawTexture@ImGuiRendering@@QEAAXUImVec2@@H0UImColor@@PEAX@Z 0000000180011e94 f i main.obj
 0001:00010f3c       ?Rect@ImGuiRendering@@QEAAXMMMMUImColor@@MH@Z 0000000180011f3c f i main.obj
 0001:00010fb0       ?FilledRect@ImGuiRendering@@QEAAXMMMMUImColor@@MH@Z 0000000180011fb0 f i main.obj
 0001:00011024       ?FilledRectGradient@ImGuiRendering@@QEAAXMMMMUImColor@@000@Z 0000000180012024 f i main.obj
 0001:000110c0       ?Triangle@ImGuiRendering@@QEAAXMMMMMMUImColor@@M@Z 00000001800120c0 f i main.obj
 0001:00011288       ?DrawDamageIndicator@hitmarker@@QEAAXPEAUImDrawList@@@Z 0000000180012288 f   main.obj
 0001:000116dc       ?draw_hits@hitmarker@@QEAAXPEAUImDrawList@@@Z 00000001800126dc f   main.obj
 0001:000118f0       ?render_hitmarker@hitmarker@@SAXAEAUhitmarker_t@@AEBVVector2@@PEAUImDrawList@@@Z 00000001800128f0 f   main.obj
 0001:00011f00       ??$?RVVector3@@V0@VColor@@M_N_N@?$UnmanagedPointer@$$A6AXVVector3@@0VColor@@M_N2@Z@@QEAA?A_PVVector3@@0VColor@@M_N2@Z 0000000180012f00 f i main.obj
 0001:00011fa8       ?dynamic_vectors@@YAXAEAV?$vector@VVector3@@V?$allocator@VVector3@@@std@@@std@@MMH@Z 0000000180012fa8 f i main.obj
 0001:00012328       ?find_manipulate_angle@other@@YAXXZ 0000000180013328 f   main.obj
 0001:00012b58       ?_AtlRaiseException@ATL@@YAXKK@Z 0000000180013b58 f i main.obj
 0001:00012b68       ?AtlThrowImpl@ATL@@YAXJ@Z  0000000180013b68 f i main.obj
 0001:00012b9c       ?_AtlInitializeCriticalSectionEx@ATL@@YAHPEAU_RTL_CRITICAL_SECTION@@KK@Z 0000000180013b9c f i main.obj
 0001:00012ba4       ?_AtlGetStringResourceImage@ATL@@YAPEBUATLSTRINGRESOURCEIMAGE@1@PEAUHINSTANCE__@@PEAUHRSRC__@@I@Z 0000000180013ba4 f i main.obj
 0001:00012c34       ?Allocate@CWin32Heap@ATL@@UEAAPEAX_K@Z 0000000180013c34 f i main.obj
 0001:00012c44       ?Free@CWin32Heap@ATL@@UEAAXPEAX@Z 0000000180013c44 f i main.obj
 0001:00012c64       ?Reallocate@CWin32Heap@ATL@@UEAAPEAXPEAX_K@Z 0000000180013c64 f i main.obj
 0001:00012ca4       ?GetSize@CWin32Heap@ATL@@UEAA_KPEAX@Z 0000000180013ca4 f i main.obj
 0001:00012cb4       ??_ECWin32Heap@ATL@@UEAAPEAXI@Z 0000000180013cb4 f i * CIL library *:* CIL module *
 0001:00012cb4       ??_GCWin32Heap@ATL@@UEAAPEAXI@Z 0000000180013cb4 f i main.obj
 0001:00012d04       ?GetInstance@CAtlStringMgr@ATL@@SAPEAUIAtlStringMgr@2@XZ 0000000180013d04 f i main.obj
 0001:00012e24       ?Allocate@CAtlStringMgr@ATL@@UEAAPEAUCStringData@2@HH@Z 0000000180013e24 f i main.obj
 0001:00012ea8       ?Free@CAtlStringMgr@ATL@@UEAAXPEAUCStringData@2@@Z 0000000180013ea8 f i main.obj
 0001:00012eb4       ?Reallocate@CAtlStringMgr@ATL@@UEAAPEAUCStringData@2@PEAU32@HH@Z 0000000180013eb4 f i main.obj
 0001:00012f1c       ?GetNilString@CAtlStringMgr@ATL@@UEAAPEAUCStringData@2@XZ 0000000180013f1c f i main.obj
 0001:00012f28       ?Clone@CAtlStringMgr@ATL@@UEAAPEAUIAtlStringMgr@2@XZ 0000000180013f28 f i main.obj
 0001:00012f28       ?_Getal@?$_Tree@V?$_Tmap_traits@I_KU?$less@I@std@@V?$allocator@U?$pair@$$CBI_K@std@@@2@$0A@@std@@@std@@IEAAAEAV?$allocator@U?$_Tree_node@U?$pair@$$CBI_K@std@@PEAX@std@@@2@XZ 0000000180013f28 f i main.obj
 0001:00012f2c       ??_ECAtlStringMgr@ATL@@UEAAPEAXI@Z 0000000180013f2c f i * CIL library *:* CIL module *
 0001:00012f2c       ??_GCAtlStringMgr@ATL@@UEAAPEAXI@Z 0000000180013f2c f i main.obj
 0001:00012f58       ?get_texture@c_texture_cache2@@QEAA?AVc_texture2@@PEAXH@Z 0000000180013f58 f i main.obj
 0001:00013084       ?CosTanSinLineH@@YA?AVVector2@@MMHHH@Z 0000000180014084 f   main.obj
 0001:0001310c       ?miscvis@otherEsp@@YAX_KPEAD_N2MPEBDPEB_WUImColor@@Vc_texture2@@UImVec2@@@Z 000000018001410c f   main.obj
 0001:00013840       ?miscvis@otherEsp@@YAX_KPEAD_N2MPEBDPEB_WUImColor@@@Z 0000000180014840 f   main.obj
 0001:00013efc       ?bradley_@otherEsp@@YAX_KPEAD@Z 0000000180014efc f   main.obj
 0001:00014374       ?corpse@otherEsp@@YAX_KPEAD@Z 0000000180015374 f   main.obj
 0001:000145c8       ?tc@otherEsp@@YAX_KPEAD@Z  00000001800155c8 f   main.obj
 0001:00014978       ?sleepingbag@otherEsp@@YAX_KPEAD@Z 0000000180015978 f   main.obj
 0001:00014bcc       ?bed@otherEsp@@YAX_KPEAD@Z 0000000180015bcc f   main.obj
 0001:00014e20       ?world@otherEsp@@YAX_KPEAD@Z 0000000180015e20 f   main.obj
 0001:0001517c       ?Skeleton@@YAXPEAVBasePlayer@@UImColor@@@Z 000000018001617c f   main.obj
 0001:00015ba0       ?OOF@@YAXPEAVBasePlayer@@UImColor@@@Z 0000000180016ba0 f   main.obj
 0001:00016300       ?get_icon_name@@YA?AVc_getitemicon@@PEAVBasePlayer@@@Z 0000000180017300 f   main.obj
 0001:00017060       ?ESP@@YAXPEAVBasePlayer@@UImColor@@@Z 0000000180018060 f   main.obj
 0001:000187f0       ??0ImGuiToast@@QEAA@HHPEBDZZ 00000001800197f0 f i main.obj
 0001:0001888c       ?RenderNotifications@ImGui@@YAXXZ 000000018001988c f i main.obj
 0001:000192e4       ?BulletTP@@YA_NPEAVProjectile@@VVector3@@11M@Z 000000018001a2e4 f   main.obj
 0001:0001a75c       ?ProjectileUpdate_hk@exploit@hk@@YAXPEAVProjectile@@@Z 000000018001b75c f   main.obj
 0001:0001a7f0       ?DoMovement@exploit@hk@@YAXPEAVProjectile@@M@Z 000000018001b7f0 f   main.obj
 0001:0001aec4       ?HandChams@misc@hk@@YAXXZ  000000018001bec4 f   main.obj
 0001:0001ba58       ?PowerShoot@misc@hk@@YAXHPEAVBaseProjectile@@VVector3@@PEAVBasePlayer@@@Z 000000018001ca58 f   main.obj
 0001:0001be54       ?ClientInput@misc@hk@@YAXPEAVBasePlayer@@PEAVModelState@@@Z 000000018001ce54 f   main.obj
 0001:000208d4       ??$?RVVector3@@VQuaternion@@MMVColor@@M_N@?$UnmanagedPointer@$$A6AXVVector3@@VQuaternion@@MMVColor@@M_N@Z@@QEAA?A_PVVector3@@VQuaternion@@MMVColor@@M_N@Z 00000001800218d4 f i main.obj
 0001:00020c7c       ?UpdateAmbient@misc@hk@@YAXPEAVTOD_Sky@@@Z 0000000180021c7c f   main.obj
 0001:00020db4       ?Run@misc@hk@@YAPEAU_UncStr@@PEAVConsoleOptions@@PEAU3@_K@Z 0000000180021db4 f   main.obj
 0001:00020f18       ?DoAttack_hk@combat@hk@@YAXPEAVFlintStrikeWeapon@@@Z 0000000180021f18 f i main.obj
 0001:00020fb8       ?GetRandomVelocity@combat@hk@@YAMPEAVItemModProjectile@@@Z 0000000180021fb8 f   main.obj
 0001:00021020       ?AddPunch@combat@hk@@YAXPEAVHeldEntity@@VVector3@@M@Z 0000000180022020 f   main.obj
 0001:00021080       ?MoveTowards_hk@combat@hk@@YA?AVVector3@@V3@0M@Z 0000000180022080 f i main.obj
 0001:000211fc       ?DoHit@combat@hk@@YA_NPEAVProjectile@@PEAVHitTest@@VVector3@@2@Z 00000001800221fc f   main.obj
 0001:00021e28       ?CanAttack@combat@hk@@YA_NPEAVBasePlayer@@@Z 0000000180022e28 f   main.obj
 0001:00021e40       ?GetModifiedAimConeDirection@combat@hk@@YA?AVVector3@@MV3@_N@Z 0000000180022e40 f   main.obj
 0001:000230d4       ?hk_BodyLeanOffset@combat@hk@@YA?AVVector3@@PEAVPlayerEyes@@@Z 00000001800240d4 f   main.obj
 0001:00023138       ?hk_EyePositionForPlayer@combat@hk@@YA?AVVector3@@PEAVBaseMountable@@PEAVBasePlayer@@PEAVQuaternion@@@Z 0000000180024138 f   main.obj
 0001:00023204       ?LaunchProjectile_hk@combat@hk@@YAXPEAVBaseProjectile@@@Z 0000000180024204 f   main.obj
 0001:0002320c       ?hk_DoFirstPersonCamera@combat@hk@@YAXPEAVPlayerEyes@@PEAVComponent@@@Z 000000018002420c f   main.obj
 0001:00023428       ?UpdateVelocity_hk@@YAXPEAVPlayerWalkMovement@@@Z 0000000180024428 f   main.obj
 0001:00023bdc       ?HandleJumping_hk@@YAXPEAVPlayerWalkMovement@@PEAVModelState@@_N2@Z 0000000180024bdc f   main.obj
 0001:00024170       ?DoHitNotify@@YAXPEAVBaseCombatEntity@@PEAVHitInfo@@PEAVProjectile@@@Z 0000000180025170 f   main.obj
 0001:000245e0       ?OnLand_hk@@YAXPEAVBasePlayer@@M@Z 00000001800255e0 f   main.obj
 0001:00024628       ?hk2_@@YAXPEAXPEAPEAX0@Z   0000000180025628 f   main.obj
 0001:00024628       ?hk_@@YAXPEAXPEAPEAX0@Z    0000000180025628 f   main.obj
 0001:00024680       ?hk__@@YAXXZ               0000000180025680 f   main.obj
 0001:00024928       ?dfc@@YAMPEAVBasePlayer@@@Z 0000000180025928 f   main.obj
 0001:000249b0       ?get_color@@YA?AUImColor@@PEAVBasePlayer@@@Z 00000001800259b0 f   main.obj
 0001:00024c60       ?ent_loop@@YAXXZ           0000000180025c60 f   main.obj
 0001:00027324       ?_Find_root_name_end@filesystem@std@@YAPEB_WQEB_W0@Z 0000000180028324 f i main.obj
 0001:00027408       ??_0path@filesystem@std@@QEAAAEAV012@AEBV012@@Z 0000000180028408 f i main.obj
 0001:00027698       ?string@path@filesystem@std@@QEBA?AV?$basic_string@DU?$char_traits@D@std@@V?$allocator@D@2@@3@XZ 0000000180028698 f i main.obj
 0001:000277ec       ??0path@filesystem@std@@QEAA@AEBV012@@Z 00000001800287ec f i main.obj
 0001:000278b0       ??0filesystem_error@filesystem@std@@QEAA@AEBV?$basic_string@DU?$char_traits@D@std@@V?$allocator@D@2@@2@Verror_code@2@@Z 00000001800288b0 f i main.obj
 0001:00027940       ??0filesystem_error@filesystem@std@@QEAA@AEBV?$basic_string@DU?$char_traits@D@std@@V?$allocator@D@2@@2@AEBVpath@12@Verror_code@2@@Z 0000000180028940 f i main.obj
 0001:00027a48       ?what@filesystem_error@filesystem@std@@UEBAPEBDXZ 0000000180028a48 f i main.obj
 0001:00027a58       ?_Pretty_message@filesystem_error@filesystem@std@@CA?AV?$basic_string@DU?$char_traits@D@std@@V?$allocator@D@2@@3@V?$basic_string_view@DU?$char_traits@D@std@@@3@AEBVpath@23@1@Z 0000000180028a58 f i main.obj
 0001:00027cd4       ??_Efilesystem_error@filesystem@std@@UEAAPEAXI@Z 0000000180028cd4 f i * CIL library *:* CIL module *
 0001:00027cd4       ??_Gfilesystem_error@filesystem@std@@UEAAPEAXI@Z 0000000180028cd4 f i main.obj
 0001:00027d08       ??1filesystem_error@filesystem@std@@UEAA@XZ 0000000180028d08 f i main.obj
 0001:00027d94       ?_Throw_fs_error@filesystem@std@@YAXPEBDW4__std_win_error@@@Z 0000000180028d94 f i main.obj
 0001:00027dec       ??0filesystem_error@filesystem@std@@QEAA@AEBV012@@Z 0000000180028dec f i main.obj
 0001:00027e6c       ?_Throw_fs_error@filesystem@std@@YAXPEBDW4__std_win_error@@AEBVpath@12@@Z 0000000180028e6c f i main.obj
 0001:00027ecc       ?_Open_dir@_Dir_enum_impl@filesystem@std@@SA?AW4__std_win_error@@AEAVpath@23@W4directory_options@23@AEAU_Find_file_handle@23@AEAU__std_fs_find_data@@@Z 0000000180028ecc f i main.obj
 0001:00028070       ?_Refresh@_Dir_enum_impl@filesystem@std@@QEAAXAEBU__std_fs_find_data@@@Z 0000000180029070 f i main.obj
 0001:000281cc       ?_Advance_and_reset_if_no_more_files@_Recursive_dir_enum_impl@filesystem@std@@SA?AW4__std_win_error@@AEAV?$shared_ptr@U_Recursive_dir_enum_impl@filesystem@std@@@3@@Z 00000001800291cc f i main.obj
 0001:00028524       ?_Get_any_status@filesystem@std@@YA?AU_File_status_and_error@12@AEBVpath@12@W4__std_fs_stats_flags@@@Z 0000000180029524 f i main.obj
 0001:000285e8       ?Create@CConfig@@QEAAXXZ   00000001800295e8 f i main.obj
 0001:000289a4       ?GetConfigList@CConfig@@QEAA?AV?$vector@V?$basic_string@DU?$char_traits@D@std@@V?$allocator@D@2@@std@@V?$allocator@V?$basic_string@DU?$char_traits@D@std@@V?$allocator@D@2@@std@@@2@@std@@XZ 00000001800299a4 f i main.obj
 0001:00029054       ?Save@CConfig@@QEAAXPEBD@Z 000000018002a054 f i main.obj
 0001:00029404       ?Remove@CConfig@@QEAAXPEBD@Z 000000018002a404 f i main.obj
 0001:000295e4       ?Load@CConfig@@QEAAXPEBD@Z 000000018002a5e4 f i main.obj
 0001:00029958       ?SetupValue@CConfig@@AEAAXAEAHHV?$basic_string@DU?$char_traits@D@std@@V?$allocator@D@2@@std@@1@Z 000000018002a958 f i main.obj
 0001:00029b90       ?SetupValue@CConfig@@AEAAXAEA_N_NV?$basic_string@DU?$char_traits@D@std@@V?$allocator@D@2@@std@@2@Z 000000018002ab90 f i main.obj
 0001:00029dc8       ?SetupValue@CConfig@@AEAAXAEAMMV?$basic_string@DU?$char_traits@D@std@@V?$allocator@D@2@@std@@1@Z 000000018002adc8 f i main.obj
 0001:0002a000       ?Setup@CConfig@@AEAAXXZ    000000018002b000 f i main.obj
 0001:0003516c       ??1CConfig@@QEAA@XZ        000000018003616c f i main.obj
 0001:000352ac       ?Draw_Perfection_Circle@@YAXMUImColor@@@Z 00000001800362ac f   main.obj
 0001:000354ac       ?Init@@YAXXZ               00000001800364ac f   main.obj
 0001:00035978       ?Addbind@@YAXXZ            0000000180036978 f   main.obj
 0001:00035b40       ?keybinds@@YAXXZ           0000000180036b40 f   main.obj
 0001:000362b4       ?pre_draw@@YAXXZ           00000001800372b4 f   main.obj
 0001:00039ce0       ?net_menu@@YAXXZ           000000018003ace0 f   main.obj
 0001:0003d458       ?WndProcHook@@YA_JQEAUHWND__@@I_K_J@Z 000000018003e458 f   main.obj
 0001:0003d564       ?resize_hook@@YAJPEAUIDXGISwapChain@@IIIW4DXGI_FORMAT@@I@Z 000000018003e564 f   main.obj
 0001:0003d5ec       ?present_hook@@YAJPEAUIDXGISwapChain@@II@Z 000000018003e5ec f   main.obj
 0001:0003e004       ?Start@@YAXXZ              000000018003f004 f   main.obj
 0001:0003e20c       ?start_hack@@YAXXZ         000000018003f20c f   main.obj
 0001:0003e28c       DllMain                    000000018003f28c f   main.obj
 0001:0003e2d0       ??0?$vector@HV?$allocator@H@std@@@std@@QEAA@V?$initializer_list@H@1@AEBV?$allocator@H@1@@Z 000000018003f2d0 f i main.obj
 0001:0003e3c8       ??1?$vector@U_Find_file_handle@filesystem@std@@V?$allocator@U_Find_file_handle@filesystem@std@@@3@@std@@QEAA@XZ 000000018003f3c8 f i main.obj
 0001:0003e454       ??1?$vector@VImGuiToast@@V?$allocator@VImGuiToast@@@std@@@std@@QEAA@XZ 000000018003f454 f i main.obj
 0001:0003e4c8       ??1?$vector@Vc_texture@@V?$allocator@Vc_texture@@@std@@@std@@QEAA@XZ 000000018003f4c8 f i main.obj
 0001:0003e5d0       ??1?$vector@V?$basic_string@DU?$char_traits@D@std@@V?$allocator@D@2@@std@@V?$allocator@V?$basic_string@DU?$char_traits@D@std@@V?$allocator@D@2@@std@@@2@@std@@QEAA@XZ 000000018003f5d0 f i main.obj
 0001:0003e63c       ??0?$CStringT@DV?$StrTraitATL@DV?$ChTraitsCRT@D@ATL@@@ATL@@@ATL@@QEAA@PEB_W@Z 000000018003f63c f i main.obj
 0001:0003e740       ??1?$vector@VVector3@@V?$allocator@VVector3@@@std@@@std@@QEAA@XZ 000000018003f740 f i main.obj
 0001:0003e7b4       ?get@?$singleton@Vhitmarker@@@@SAAEAVhitmarker@@XZ 000000018003f7b4 f i main.obj
 0001:0003e86c       ??A?$map@I_KU?$less@I@std@@V?$allocator@U?$pair@$$CBI_K@std@@@2@@std@@QEAAAEA_KAEBI@Z 000000018003f86c f i main.obj
 0001:0003e940       ??0?$map@I_KU?$less@I@std@@V?$allocator@U?$pair@$$CBI_K@std@@@2@@std@@QEAA@AEBV01@@Z 000000018003f940 f i main.obj
 0001:0003ea0c       ?find@?$basic_string@_WU?$char_traits@_W@std@@V?$allocator@_W@2@@std@@QEBA_KQEB_W_K@Z 000000018003fa0c f i main.obj
 0001:0003eae4       ?assign@?$basic_string@_WU?$char_traits@_W@std@@V?$allocator@_W@2@@std@@QEAAAEAV12@QEB_W_K@Z 000000018003fae4 f i main.obj
 0001:0003ec04       ??1?$basic_string@_WU?$char_traits@_W@std@@V?$allocator@_W@2@@std@@QEAA@XZ 000000018003fc04 f i main.obj
 0001:0003ec68       ?find@?$basic_string@DU?$char_traits@D@std@@V?$allocator@D@2@@std@@QEBA_KQEBD_K@Z 000000018003fc68 f i main.obj
 0001:0003ed24       ?append@?$basic_string@DU?$char_traits@D@std@@V?$allocator@D@2@@std@@QEAAAEAV12@QEBD@Z 000000018003fd24 f i main.obj
 0001:0003eda8       ??4?$CStringT@DV?$StrTraitATL@DV?$ChTraitsCRT@D@ATL@@@ATL@@@ATL@@QEAAAEAV01@PEB_W@Z 000000018003fda8 f i main.obj
 0001:0003eec0       ??1?$vector@Ud_indicator_t@hitmarker@@V?$allocator@Ud_indicator_t@hitmarker@@@std@@@std@@QEAA@XZ 000000018003fec0 f i main.obj
 0001:0003ef34       ??1?$deque@Uhitmarker_t@@V?$allocator@Uhitmarker_t@@@std@@@std@@QEAA@XZ 000000018003ff34 f i main.obj
 0001:0003efe8       ?assign@?$basic_string@DU?$char_traits@D@std@@V?$allocator@D@2@@std@@QEAAAEAV12@QEBD_K@Z 000000018003ffe8 f i main.obj
 0001:0003f0f8       ?deallocate@?$allocator@Um_keybind@@@std@@QEAAXQEAUm_keybind@@_K@Z 00000001800400f8 f i main.obj
 0001:0003f0f8       ?deallocate@?$allocator@V?$basic_string@DU?$char_traits@D@std@@V?$allocator@D@2@@std@@@std@@QEAAXQEAV?$basic_string@DU?$char_traits@D@std@@V?$allocator@D@2@@2@_K@Z 00000001800400f8 f i main.obj
 0001:0003f13c       ?deallocate@?$allocator@PEAV?$VarType@H@@@std@@QEAAXQEAPEAV?$VarType@H@@_K@Z 000000018004013c f i main.obj
 0001:0003f13c       ?deallocate@?$allocator@PEAV?$VarType@M@@@std@@QEAAXQEAPEAV?$VarType@M@@_K@Z 000000018004013c f i main.obj
 0001:0003f13c       ?deallocate@?$allocator@PEAV?$VarType@_N@@@std@@QEAAXQEAPEAV?$VarType@_N@@_K@Z 000000018004013c f i main.obj
 0001:0003f13c       ?deallocate@?$allocator@U_Find_file_handle@filesystem@std@@@std@@QEAAXQEAU_Find_file_handle@filesystem@2@_K@Z 000000018004013c f i main.obj
 0001:0003f180       ?deallocate@?$allocator@VImGuiToast@@@std@@QEAAXQEAVImGuiToast@@_K@Z 0000000180040180 f i main.obj
 0001:0003f1c4       ?deallocate@?$allocator@Vc_texture2@@@std@@QEAAXQEAVc_texture2@@_K@Z 00000001800401c4 f i main.obj
 0001:0003f208       ?deallocate@?$allocator@VVector3@@@std@@QEAAXQEAVVector3@@_K@Z 0000000180040208 f i main.obj
 0001:0003f24c       ?LoadStringW@?$CStringT@DV?$StrTraitATL@DV?$ChTraitsCRT@D@ATL@@@ATL@@@ATL@@QEAAHPEAUHINSTANCE__@@I@Z 000000018004024c f i main.obj
 0001:0003f368       ?deallocate@?$allocator@Ud_indicator_t@hitmarker@@@std@@QEAAXQEAUd_indicator_t@hitmarker@@_K@Z 0000000180040368 f i main.obj
 0001:0003f3ac       ?PrepareWrite2@?$CSimpleStringT@D$0A@@ATL@@AEAAXH@Z 00000001800403ac f i main.obj
 0001:0003f410       ?Reallocate@?$CSimpleStringT@D$0A@@ATL@@AEAAXH@Z 0000000180040410 f i main.obj
 0001:0003f458       ?Fork@?$CSimpleStringT@D$0A@@ATL@@AEAAXH@Z 0000000180040458 f i main.obj
 0001:0003f538       ?ThrowMemoryException@?$CSimpleStringT@D$0A@@ATL@@KAXXZ 0000000180040538 f i main.obj
 0001:0003f548       ??$map_contains_key@V?$map@I_KU?$less@I@std@@V?$allocator@U?$pair@$$CBI_K@std@@@2@@std@@I@@YA_NV?$map@I_KU?$less@I@std@@V?$allocator@U?$pair@$$CBI_K@std@@@2@@std@@I@Z 0000000180040548 f i main.obj
 0001:0003f5e0       ??$?HDU?$char_traits@D@std@@V?$allocator@D@1@@std@@YA?AV?$basic_string@DU?$char_traits@D@std@@V?$allocator@D@2@@0@AEBV10@QEBD@Z 00000001800405e0 f i main.obj
 0001:0003f640       ??$?HDU?$char_traits@D@std@@V?$allocator@D@1@@std@@YA?AV?$basic_string@DU?$char_traits@D@std@@V?$allocator@D@2@@0@$$QEAV10@QEBD@Z 0000000180040640 f i main.obj
 0001:0003f68c       ??$insert@U?$pair@I_K@std@@$0A@@?$map@I_KU?$less@I@std@@V?$allocator@U?$pair@$$CBI_K@std@@@2@@std@@QEAA?AU?$pair@V?$_Tree_iterator@V?$_Tree_val@U?$_Tree_simple_types@U?$pair@$$CBI_K@std@@@std@@@std@@@std@@_N@1@$$QEAU?$pair@I_K@1@@Z 000000018004068c f i main.obj
 0001:0003f780       ??$?HDU?$char_traits@D@std@@V?$allocator@D@1@@std@@YA?AV?$basic_string@DU?$char_traits@D@std@@V?$allocator@D@2@@0@$$QEAV10@0@Z 0000000180040780 f i main.obj
 0001:0003f914       ??$insert@U?$pair@II@std@@$0A@@?$map@I_KU?$less@I@std@@V?$allocator@U?$pair@$$CBI_K@std@@@2@@std@@QEAA?AU?$pair@V?$_Tree_iterator@V?$_Tree_val@U?$_Tree_simple_types@U?$pair@$$CBI_K@std@@@std@@@std@@@std@@_N@1@$$QEAU?$pair@II@1@@Z 0000000180040914 f i main.obj
 0001:0003fa08       ??$Read@_K@@YA_K_K@Z       0000000180040a08 f i main.obj
 0001:0003fa2c       ??$GetHeldEntity@VBaseProjectile@@@BasePlayer@@QEAAPEAVBaseProjectile@@XZ 0000000180040a2c f i main.obj
 0001:0003fb40       ??$sprintf_s@$0BAA@@@YAHAEAY0BAA@DPEBDZZ 0000000180040b40 f i main.obj
 0001:0003fb98       ??$sprintf_s@$0DC@@@YAHAEAY0DC@DPEBDZZ 0000000180040b98 f i main.obj
 0001:0003fbf0       ??$FindClosest@PEAVBaseEntity@@@EntityRealm@BaseNetworkable@@QEAAPEAVBaseEntity@@IPEAV1@M@Z 0000000180040bf0 f i main.obj
 0001:0003fe3c       ??$LoadAsset@VMaterial@@@AssetBundle@@QEAAPEAVMaterial@@PEADPEAVType@@@Z 0000000180040e3c f i main.obj
 0001:0003ff00       ??$LoadAsset@VShader@@@AssetBundle@@QEAAPEAVShader@@PEADPEAVType@@@Z 0000000180040f00 f i main.obj
 0001:0003ffc4       ??$GetHeldEntity@VBaseMelee@@@BasePlayer@@QEAAPEAVBaseMelee@@XZ 0000000180040fc4 f i main.obj
 0001:000400d8       ??$GetHeldEntity@VHeldEntity@@@BasePlayer@@QEAAPEAVHeldEntity@@XZ 00000001800410d8 f i main.obj
 0001:000401ec       ??$FindClosest@PEAVBaseNetworkable@@@EntityRealm@BaseNetworkable@@QEAAPEAV1@IPEAV1@M@Z 00000001800411ec f i main.obj
 0001:00040440       ??$_Convert_wide_to_narrow_replace_chars@U?$char_traits@D@std@@V?$allocator@D@2@@filesystem@std@@YA?AV?$basic_string@DU?$char_traits@D@std@@V?$allocator@D@2@@1@W4__std_code_page@@V?$basic_string_view@_WU?$char_traits@_W@std@@@1@AEBV?$allocator@D@1@@Z 0000000180041440 f i main.obj
 0001:00040588       ??$?YV?$basic_string_view@DU?$char_traits@D@std@@@std@@$0A@@?$basic_string@DU?$char_traits@D@std@@V?$allocator@D@2@@std@@QEAAAEAV01@AEBV?$basic_string_view@DU?$char_traits@D@std@@@1@@Z 0000000180041588 f i main.obj
 0001:00040614       ??$_Reallocate_grow_by@V<lambda_25953b27f3c43b57ba59f021c7f225c5>@@_W@?$basic_string@_WU?$char_traits@_W@std@@V?$allocator@_W@2@@std@@AEAAAEAV01@_KV<lambda_25953b27f3c43b57ba59f021c7f225c5>@@_W@Z 0000000180041614 f i main.obj
 0001:00040744       ??$_Reallocate_grow_by@V<lambda_1dfe18491bcca09701d8ccb01d0b0af4>@@PEB_W_K@?$basic_string@_WU?$char_traits@_W@std@@V?$allocator@_W@2@@std@@AEAAAEAV01@_KV<lambda_1dfe18491bcca09701d8ccb01d0b0af4>@@PEB_W_K@Z 0000000180041744 f i main.obj
 0001:00040894       ??$_Construct@$00PEB_W@?$basic_string@_WU?$char_traits@_W@std@@V?$allocator@_W@2@@std@@AEAAXQEB_W_K@Z 0000000180041894 f i main.obj
 0001:00040958       ??$_Reallocate_grow_by@V<lambda_9013ee9e23efe4882b67eff5b0ecf103>@@$$V@?$basic_string@DU?$char_traits@D@std@@V?$allocator@D@2@@std@@AEAAAEAV01@_KV<lambda_9013ee9e23efe4882b67eff5b0ecf103>@@@Z 0000000180041958 f i main.obj
 0001:00040a54       ??$_Destroy_range@V?$allocator@U_Find_file_handle@filesystem@std@@@std@@@std@@YAXPEAU_Find_file_handle@filesystem@0@QEAU120@AEAV?$allocator@U_Find_file_handle@filesystem@std@@@0@@Z 0000000180041a54 f i main.obj
 0001:00040a88       ??$_Destroy_range@V?$allocator@V?$basic_string@DU?$char_traits@D@std@@V?$allocator@D@2@@std@@@std@@@std@@YAXPEAV?$basic_string@DU?$char_traits@D@std@@V?$allocator@D@2@@0@QEAV10@AEAV?$allocator@V?$basic_string@DU?$char_traits@D@std@@V?$allocator@D@2@@std@@@0@@Z 0000000180041a88 f i main.obj
 0001:00040b00       ??$_Reallocate_grow_by@V<lambda_a3050a43f3157934f354774ab3dd2e02>@@_K_W@?$basic_string@_WU?$char_traits@_W@std@@V?$allocator@_W@2@@std@@AEAAAEAV01@_KV<lambda_a3050a43f3157934f354774ab3dd2e02>@@_K_W@Z 0000000180041b00 f i main.obj
 0001:00040c40       ??$_Reallocate_grow_by@V<lambda_e1befb086ad3257e3f042a63030725f7>@@_KD@?$basic_string@DU?$char_traits@D@std@@V?$allocator@D@2@@std@@AEAAAEAV01@_KV<lambda_e1befb086ad3257e3f042a63030725f7>@@_KD@Z 0000000180041c40 f i main.obj
 0001:00040d6c       ??1?$_Tree_head_scoped_ptr@V?$allocator@U?$_Tree_node@U?$pair@$$CBI_K@std@@PEAX@std@@@std@@V?$_Tree_val@U?$_Tree_simple_types@U?$pair@$$CBI_K@std@@@std@@@2@@std@@QEAA@XZ 0000000180041d6c f i main.obj
 0001:00040dd4       ??1?$_Tidy_guard@V?$vector@HV?$allocator@H@std@@@std@@@std@@QEAA@XZ 0000000180041dd4 f i main.obj
 0001:00040e38       ?_Growmap@?$deque@Uhitmarker_t@@V?$allocator@Uhitmarker_t@@@std@@@std@@AEAAX_K@Z 0000000180041e38 f i main.obj
 0001:0004101c       ?_Insert_node@?$_Tree_val@U?$_Tree_simple_types@U?$pair@$$CBIM@std@@@std@@@std@@QEAAPEAU?$_Tree_node@U?$pair@$$CBIM@std@@PEAX@2@U?$_Tree_id@PEAU?$_Tree_node@U?$pair@$$CBIM@std@@PEAX@std@@@2@QEAU32@@Z 000000018004201c f i imgui.obj
 0001:0004101c       ?_Insert_node@?$_Tree_val@U?$_Tree_simple_types@U?$pair@$$CBIUbutton_state@@@std@@@std@@@std@@QEAAPEAU?$_Tree_node@U?$pair@$$CBIUbutton_state@@@std@@PEAX@2@U?$_Tree_id@PEAU?$_Tree_node@U?$pair@$$CBIUbutton_state@@@std@@PEAX@std@@@2@QEAU32@@Z 000000018004201c f i imgui_widgets.obj
 0001:0004101c       ?_Insert_node@?$_Tree_val@U?$_Tree_simple_types@U?$pair@$$CBIUcheckbox_state@@@std@@@std@@@std@@QEAAPEAU?$_Tree_node@U?$pair@$$CBIUcheckbox_state@@@std@@PEAX@2@U?$_Tree_id@PEAU?$_Tree_node@U?$pair@$$CBIUcheckbox_state@@@std@@PEAX@std@@@2@QEAU32@@Z 000000018004201c f i imgui_widgets.obj
 0001:0004101c       ?_Insert_node@?$_Tree_val@U?$_Tree_simple_types@U?$pair@$$CBIUcombo_state@@@std@@@std@@@std@@QEAAPEAU?$_Tree_node@U?$pair@$$CBIUcombo_state@@@std@@PEAX@2@U?$_Tree_id@PEAU?$_Tree_node@U?$pair@$$CBIUcombo_state@@@std@@PEAX@std@@@2@QEAU32@@Z 000000018004201c f i imgui_widgets.obj
 0001:0004101c       ?_Insert_node@?$_Tree_val@U?$_Tree_simple_types@U?$pair@$$CBIUinput_state@@@std@@@std@@@std@@QEAAPEAU?$_Tree_node@U?$pair@$$CBIUinput_state@@@std@@PEAX@2@U?$_Tree_id@PEAU?$_Tree_node@U?$pair@$$CBIUinput_state@@@std@@PEAX@std@@@2@QEAU32@@Z 000000018004201c f i imgui_widgets.obj
 0001:0004101c       ?_Insert_node@?$_Tree_val@U?$_Tree_simple_types@U?$pair@$$CBIUkey_state@@@std@@@std@@@std@@QEAAPEAU?$_Tree_node@U?$pair@$$CBIUkey_state@@@std@@PEAX@2@U?$_Tree_id@PEAU?$_Tree_node@U?$pair@$$CBIUkey_state@@@std@@PEAX@std@@@2@QEAU32@@Z 000000018004201c f i imgui_widgets.obj
 0001:0004101c       ?_Insert_node@?$_Tree_val@U?$_Tree_simple_types@U?$pair@$$CBIUpicker_state@@@std@@@std@@@std@@QEAAPEAU?$_Tree_node@U?$pair@$$CBIUpicker_state@@@std@@PEAX@2@U?$_Tree_id@PEAU?$_Tree_node@U?$pair@$$CBIUpicker_state@@@std@@PEAX@std@@@2@QEAU32@@Z 000000018004201c f i imgui_widgets.obj
 0001:0004101c       ?_Insert_node@?$_Tree_val@U?$_Tree_simple_types@U?$pair@$$CBIUselectable_state@@@std@@@std@@@std@@QEAAPEAU?$_Tree_node@U?$pair@$$CBIUselectable_state@@@std@@PEAX@2@U?$_Tree_id@PEAU?$_Tree_node@U?$pair@$$CBIUselectable_state@@@std@@PEAX@std@@@2@QEAU32@@Z 000000018004201c f i imgui_widgets.obj
 0001:0004101c       ?_Insert_node@?$_Tree_val@U?$_Tree_simple_types@U?$pair@$$CBIUslider_state@@@std@@@std@@@std@@QEAAPEAU?$_Tree_node@U?$pair@$$CBIUslider_state@@@std@@PEAX@2@U?$_Tree_id@PEAU?$_Tree_node@U?$pair@$$CBIUslider_state@@@std@@PEAX@std@@@2@QEAU32@@Z 000000018004201c f i imgui_widgets.obj
 0001:0004101c       ?_Insert_node@?$_Tree_val@U?$_Tree_simple_types@U?$pair@$$CBIUsubtab_state@@@std@@@std@@@std@@QEAAPEAU?$_Tree_node@U?$pair@$$CBIUsubtab_state@@@std@@PEAX@2@U?$_Tree_id@PEAU?$_Tree_node@U?$pair@$$CBIUsubtab_state@@@std@@PEAX@std@@@2@QEAU32@@Z 000000018004201c f i imgui_widgets.obj
 0001:0004101c       ?_Insert_node@?$_Tree_val@U?$_Tree_simple_types@U?$pair@$$CBIUtab_state@@@std@@@std@@@std@@QEAAPEAU?$_Tree_node@U?$pair@$$CBIUtab_state@@@std@@PEAX@2@U?$_Tree_id@PEAU?$_Tree_node@U?$pair@$$CBIUtab_state@@@std@@PEAX@std@@@2@QEAU32@@Z 000000018004201c f i imgui_widgets.obj
 0001:0004101c       ?_Insert_node@?$_Tree_val@U?$_Tree_simple_types@U?$pair@$$CBI_K@std@@@std@@@std@@QEAAPEAU?$_Tree_node@U?$pair@$$CBI_K@std@@PEAX@2@U?$_Tree_id@PEAU?$_Tree_node@U?$pair@$$CBI_K@std@@PEAX@std@@@2@QEAU32@@Z 000000018004201c f i main.obj
 0001:00041248       ?_Xlength@?$vector@HV?$allocator@H@std@@@std@@CAXXZ 0000000180042248 f i main.obj
 0001:00041248       ?_Xlength@?$vector@PEAV?$VarType@H@@V?$allocator@PEAV?$VarType@H@@@std@@@std@@CAXXZ 0000000180042248 f i main.obj
 0001:00041248       ?_Xlength@?$vector@PEAV?$VarType@M@@V?$allocator@PEAV?$VarType@M@@@std@@@std@@CAXXZ 0000000180042248 f i main.obj
 0001:00041248       ?_Xlength@?$vector@PEAV?$VarType@_N@@V?$allocator@PEAV?$VarType@_N@@@std@@@std@@CAXXZ 0000000180042248 f i main.obj
 0001:00041248       ?_Xlength@?$vector@U_Find_file_handle@filesystem@std@@V?$allocator@U_Find_file_handle@filesystem@std@@@3@@std@@CAXXZ 0000000180042248 f i main.obj
 0001:00041248       ?_Xlength@?$vector@Ud_indicator_t@hitmarker@@V?$allocator@Ud_indicator_t@hitmarker@@@std@@@std@@CAXXZ 0000000180042248 f i main.obj
 0001:00041248       ?_Xlength@?$vector@Um_keybind@@V?$allocator@Um_keybind@@@std@@@std@@CAXXZ 0000000180042248 f i main.obj
 0001:00041248       ?_Xlength@?$vector@V?$basic_string@DU?$char_traits@D@std@@V?$allocator@D@2@@std@@V?$allocator@V?$basic_string@DU?$char_traits@D@std@@V?$allocator@D@2@@std@@@2@@std@@CAXXZ 0000000180042248 f i main.obj
 0001:00041248       ?_Xlength@?$vector@VImGuiToast@@V?$allocator@VImGuiToast@@@std@@@std@@CAXXZ 0000000180042248 f i main.obj
 0001:00041248       ?_Xlength@?$vector@VVector3@@V?$allocator@VVector3@@@std@@@std@@CAXXZ 0000000180042248 f i main.obj
 0001:00041248       ?_Xlength@?$vector@Vc_texture2@@V?$allocator@Vc_texture2@@@std@@@std@@CAXXZ 0000000180042248 f i main.obj
 0001:0004125c       ?_Xlen@?$deque@Uhitmarker_t@@V?$allocator@Uhitmarker_t@@@std@@@std@@CAXXZ 000000018004225c f i main.obj
 0001:00041270       ??$_Emplace_reallocate@AEAMAEAMM@?$vector@VVector3@@V?$allocator@VVector3@@@std@@@std@@AEAAPEAVVector3@@QEAV2@AEAM1$$QEAM@Z 0000000180042270 f i main.obj
 0001:00041270       ??$_Emplace_reallocate@AEAMMAEAM@?$vector@VVector3@@V?$allocator@VVector3@@@std@@@std@@AEAAPEAVVector3@@QEAV2@AEAM$$QEAM1@Z 0000000180042270 f i main.obj
 0001:00041270       ??$_Emplace_reallocate@AEAMMM@?$vector@VVector3@@V?$allocator@VVector3@@@std@@@std@@AEAAPEAVVector3@@QEAV2@AEAM$$QEAM2@Z 0000000180042270 f i main.obj
 0001:00041270       ??$_Emplace_reallocate@MAEAMM@?$vector@VVector3@@V?$allocator@VVector3@@@std@@@std@@AEAAPEAVVector3@@QEAV2@$$QEAMAEAM1@Z 0000000180042270 f i main.obj
 0001:00041270       ??$_Emplace_reallocate@MMAEAM@?$vector@VVector3@@V?$allocator@VVector3@@@std@@@std@@AEAAPEAVVector3@@QEAV2@$$QEAM1AEAM@Z 0000000180042270 f i main.obj
 0001:00041270       ??$_Emplace_reallocate@MMM@?$vector@VVector3@@V?$allocator@VVector3@@@std@@@std@@AEAAPEAVVector3@@QEAV2@$$QEAM11@Z 0000000180042270 f i main.obj
 0001:000413bc       ??$make_shared@U_Recursive_dir_enum_impl@filesystem@std@@U_Creator@_Dir_enum_impl@23@AEBW4directory_options@23@@std@@YA?AV?$shared_ptr@U_Recursive_dir_enum_impl@filesystem@std@@@0@$$QEAU_Creator@_Dir_enum_impl@filesystem@0@AEBW4directory_options@40@@Z 00000001800423bc f i main.obj
 0001:000414f8       ??$_Emplace_reallocate@Um_keybind@@@?$vector@Um_keybind@@V?$allocator@Um_keybind@@@std@@@std@@AEAAPEAUm_keybind@@QEAU2@$$QEAU2@@Z 00000001800424f8 f i main.obj
 0001:000416c0       ??$_Emplace_reallocate@PEAV?$VarType@H@@@?$vector@PEAV?$VarType@H@@V?$allocator@PEAV?$VarType@H@@@std@@@std@@AEAAPEAPEAV?$VarType@H@@QEAPEAV2@$$QEAPEAV2@@Z 00000001800426c0 f i main.obj
 0001:000416c0       ??$_Emplace_reallocate@PEAV?$VarType@M@@@?$vector@PEAV?$VarType@M@@V?$allocator@PEAV?$VarType@M@@@std@@@std@@AEAAPEAPEAV?$VarType@M@@QEAPEAV2@$$QEAPEAV2@@Z 00000001800426c0 f i main.obj
 0001:000416c0       ??$_Emplace_reallocate@PEAV?$VarType@_N@@@?$vector@PEAV?$VarType@_N@@V?$allocator@PEAV?$VarType@_N@@@std@@@std@@AEAAPEAPEAV?$VarType@_N@@QEAPEAV2@$$QEAPEAV2@@Z 00000001800426c0 f i main.obj
 0001:00041860       ??$_Emplace_reallocate@U_Find_file_handle@filesystem@std@@@?$vector@U_Find_file_handle@filesystem@std@@V?$allocator@U_Find_file_handle@filesystem@std@@@3@@std@@AEAAPEAU_Find_file_handle@filesystem@1@QEAU231@$$QEAU231@@Z 0000000180042860 f i main.obj
 0001:00041b74       ??$_Emplace_reallocate@AEBVImGuiToast@@@?$vector@VImGuiToast@@V?$allocator@VImGuiToast@@@std@@@std@@AEAAPEAVImGuiToast@@QEAV2@AEBV2@@Z 0000000180042b74 f i main.obj
 0001:00041d98       ??$_Emplace_reallocate@AEBVc_texture2@@@?$vector@Vc_texture2@@V?$allocator@Vc_texture2@@@std@@@std@@AEAAPEAVc_texture2@@QEAV2@AEBV2@@Z 0000000180042d98 f i main.obj
 0001:00041fb0       ??$_Emplace_reallocate@V?$basic_string@DU?$char_traits@D@std@@V?$allocator@D@2@@std@@@?$vector@V?$basic_string@DU?$char_traits@D@std@@V?$allocator@D@2@@std@@V?$allocator@V?$basic_string@DU?$char_traits@D@std@@V?$allocator@D@2@@std@@@2@@std@@AEAAPEAV?$basic_string@DU?$char_traits@D@std@@V?$allocator@D@2@@1@QEAV21@$$QEAV21@@Z 0000000180042fb0 f i main.obj
 0001:000422e0       ??$_Emplace_reallocate@AEBUd_indicator_t@hitmarker@@@?$vector@Ud_indicator_t@hitmarker@@V?$allocator@Ud_indicator_t@hitmarker@@@std@@@std@@AEAAPEAUd_indicator_t@hitmarker@@QEAU23@AEBU23@@Z 00000001800432e0 f i main.obj
 0001:000424f8       ??$_Erase_tree@V?$allocator@U?$_Tree_node@U?$pair@$$CBIUselectable_state@@@std@@PEAX@std@@@std@@@?$_Tree_val@U?$_Tree_simple_types@U?$pair@$$CBIUselectable_state@@@std@@@std@@@std@@QEAAXAEAV?$allocator@U?$_Tree_node@U?$pair@$$CBIUselectable_state@@@std@@PEAX@std@@@1@PEAU?$_Tree_node@U?$pair@$$CBIUselectable_state@@@std@@PEAX@1@@Z 00000001800434f8 f i imgui_widgets.obj
 0001:000424f8       ??$_Erase_tree@V?$allocator@U?$_Tree_node@U?$pair@$$CBI_K@std@@PEAX@std@@@std@@@?$_Tree_val@U?$_Tree_simple_types@U?$pair@$$CBI_K@std@@@std@@@std@@QEAAXAEAV?$allocator@U?$_Tree_node@U?$pair@$$CBI_K@std@@PEAX@std@@@1@PEAU?$_Tree_node@U?$pair@$$CBI_K@std@@PEAX@1@@Z 00000001800434f8 f i main.obj
 0001:000424f8       ??$_Erase_tree@V?$allocator@U?$_Tree_node@U?$pair@$$CB_KPEAVBoneCache@@@std@@PEAX@std@@@std@@@?$_Tree_val@U?$_Tree_simple_types@U?$pair@$$CB_KPEAVBoneCache@@@std@@@std@@@std@@QEAAXAEAV?$allocator@U?$_Tree_node@U?$pair@$$CB_KPEAVBoneCache@@@std@@PEAX@std@@@1@PEAU?$_Tree_node@U?$pair@$$CB_KPEAVBoneCache@@@std@@PEAX@1@@Z 00000001800434f8 f i main.obj
 0001:000424f8       ??$_Erase_tree_and_orphan@V?$allocator@U?$_Tree_node@U?$pair@$$CBI_K@std@@PEAX@std@@@std@@@?$_Tree_val@U?$_Tree_simple_types@U?$pair@$$CBI_K@std@@@std@@@std@@QEAAXAEAV?$allocator@U?$_Tree_node@U?$pair@$$CBI_K@std@@PEAX@std@@@1@PEAU?$_Tree_node@U?$pair@$$CBI_K@std@@PEAX@1@@Z 00000001800434f8 f i main.obj
 0001:0004254c       ??$_Allocate_for_capacity@$0A@@?$basic_string@_WU?$char_traits@_W@std@@V?$allocator@_W@2@@std@@CAPEA_WAEAV?$allocator@_W@1@AEA_K@Z 000000018004354c f i main.obj
 0001:000425c8       ?_Delete_this@?$_Ref_count_obj2@U_Recursive_dir_enum_impl@filesystem@std@@@std@@EEAAXXZ 00000001800435c8 f i main.obj
 0001:000425e4       ?_Destroy@?$_Ref_count_obj2@U_Recursive_dir_enum_impl@filesystem@std@@@std@@EEAAXXZ 00000001800435e4 f i main.obj
 0001:00042610       ?_Change_array@?$vector@VVector3@@V?$allocator@VVector3@@@std@@@std@@AEAAXQEAVVector3@@_K1@Z 0000000180043610 f i main.obj
 0001:000426b8       ??_E?$_Ref_count_obj2@U_Recursive_dir_enum_impl@filesystem@std@@@std@@UEAAPEAXI@Z 00000001800436b8 f i * CIL library *:* CIL module *
 0001:000426b8       ??_G?$_Ref_count_obj2@U_Recursive_dir_enum_impl@filesystem@std@@@std@@UEAAPEAXI@Z 00000001800436b8 f i main.obj
 0001:000426e4       ??$_Allocate_at_least_helper@V?$allocator@VVector3@@@std@@@std@@YAPEAVVector3@@AEAV?$allocator@VVector3@@@0@AEA_K@Z 00000001800436e4 f i main.obj
 0001:00042758       ??$_Convert_stringoid_to_wide@U_Normal_conversion@filesystem@std@@@filesystem@std@@YA?AV?$basic_string@_WU?$char_traits@_W@std@@V?$allocator@_W@2@@1@V?$basic_string_view@DU?$char_traits@D@std@@@1@U_Normal_conversion@01@@Z 0000000180043758 f i main.obj
 0001:000428c0       ??$_Copy_nodes@$0A@@?$_Tree@V?$_Tmap_traits@I_KU?$less@I@std@@V?$allocator@U?$pair@$$CBI_K@std@@@2@$0A@@std@@@std@@IEAAPEAU?$_Tree_node@U?$pair@$$CBI_K@std@@PEAX@1@PEAU21@0@Z 00000001800438c0 f i main.obj
 0001:00042960       __local_stdio_scanf_options 0000000180043960 f i imgui.obj
 0001:00042968       printf                     0000000180043968 f i imgui.obj
 0001:000429b8       sscanf                     00000001800439b8 f i imgui.obj
 0001:00042a04       ?Clear@ImGuiKeyRoutingTable@@QEAAXXZ 0000000180043a04 f i imgui.obj
 0001:00042aa0       ??0ImGuiContext@@QEAA@PEAUImFontAtlas@@@Z 0000000180043aa0 f i imgui.obj
 0001:00043850       ?MenuBarRect@ImGuiWindow@@QEBA?AUImRect@@XZ 0000000180044850 f i imgui.obj
 0001:0004390c       ?GetKeyOwnerData@ImGui@@YAPEAUImGuiKeyOwnerData@@PEAUImGuiContext@@W4ImGuiKey@@@Z 000000018004490c f i imgui.obj
 0001:00043998       ?AddInputCharacter@ImGuiIO@@QEAAXI@Z 0000000180044998 f   imgui.obj
 0001:00043a3c       ?AddKeyAnalogEvent@ImGuiIO@@QEAAXW4ImGuiKey@@_NM@Z 0000000180044a3c f   imgui.obj
 0001:00043ba4       ?AddKeyEvent@ImGuiIO@@QEAAXW4ImGuiKey@@_N@Z 0000000180044ba4 f   imgui.obj
 0001:00043bd0       ?AddMousePosEvent@ImGuiIO@@QEAAXMM@Z 0000000180044bd0 f   imgui.obj
 0001:00043d48       ?AddMouseButtonEvent@ImGuiIO@@QEAAXH_N@Z 0000000180044d48 f   imgui.obj
 0001:00043e54       ?AddMouseWheelEvent@ImGuiIO@@QEAAXMM@Z 0000000180044e54 f   imgui.obj
 0001:00043f0c       ?AddFocusEvent@ImGuiIO@@QEAAX_N@Z 0000000180044f0c f   imgui.obj
 0001:00043fe0       ?ImFormatString@@YAHPEAD_KPEBDZZ 0000000180044fe0 f   imgui.obj
 0001:00044054       ?ImFormatStringV@@YAHPEAD_KPEBD0@Z 0000000180045054 f   imgui.obj
 0001:000440d4       ?ImFormatStringToTempBuffer@@YAXPEAPEBD0PEBDZZ 00000001800450d4 f   imgui.obj
 0001:00044164       ?ImFormatStringToTempBufferV@@YAXPEAPEBD0PEBDPEAD@Z 0000000180045164 f   imgui.obj
 0001:000441f0       ?ImHashStr@@YAIPEBD_KI@Z   00000001800451f0 f   imgui.obj
 0001:0004429c       ?ImFileOpen@@YAPEAU_iobuf@@PEBD0@Z 000000018004529c f   imgui.obj
 0001:000443c0       ?ImFileLoadToMemory@@YAPEAXPEBD0PEA_KH@Z 00000001800453c0 f   imgui.obj
 0001:000444e8       ?ImTextCharFromUtf8@@YAHPEAIPEBD1@Z 00000001800454e8 f   imgui.obj
 0001:00044688       ?ImTextStrFromUtf8@@YAHPEAGHPEBD1PEAPEBD@Z 0000000180045688 f   imgui.obj
 0001:00044728       ?ImTextCountCharsFromUtf8@@YAHPEBD0@Z 0000000180045728 f   imgui.obj
 0001:00044848       ?ImTextStrToUtf8@@YAHPEADHPEBG1@Z 0000000180045848 f   imgui.obj
 0001:000448e8       ?ImTextCountUtf8BytesFromStr@@YAHPEBG0@Z 00000001800458e8 f   imgui.obj
 0001:00044930       ?ImAlphaBlendColors@@YAIII@Z 0000000180045930 f   imgui.obj
 0001:000449c0       ?ColorConvertFloat4ToU32@ImGui@@YAIAEBUImVec4@@@Z 00000001800459c0 f   imgui.obj
 0001:00044a64       ?ColorConvertRGBtoHSV@ImGui@@YAXMMMAEAM00@Z 0000000180045a64 f   imgui.obj
 0001:00044b0c       ?ColorConvertHSVtoRGB@ImGui@@YAXMMMAEAM00@Z 0000000180045b0c f   imgui.obj
 0001:00044c94       ?append@ImGuiTextBuffer@@QEAAXPEBD0@Z 0000000180045c94 f   imgui.obj
 0001:00044d24       ?appendf@ImGuiTextBuffer@@QEAAXPEBDZZ 0000000180045d24 f   imgui.obj
 0001:00044d48       ?appendfv@ImGuiTextBuffer@@QEAAXPEBDPEAD@Z 0000000180045d48 f   imgui.obj
 0001:00044e08       ?GetColorU32@ImGui@@YAII@Z 0000000180045e08 f   imgui.obj
 0001:00044e44       ?PushStyleColor@ImGui@@YAXHI@Z 0000000180045e44 f   imgui.obj
 0001:00044f08       ?PushStyleColor@ImGui@@YAXHAEBUImVec4@@@Z 0000000180045f08 f   imgui.obj
 0001:00044f64       ?PopStyleColor@ImGui@@YAXH@Z 0000000180045f64 f   imgui.obj
 0001:00044fbc       ?PushStyleVar@ImGui@@YAXHM@Z 0000000180045fbc f   imgui.obj
 0001:00045034       ?PushStyleVar@ImGui@@YAXHAEBUImVec2@@@Z 0000000180046034 f   imgui.obj
 0001:000450c0       ?PopStyleVar@ImGui@@YAXH@Z 00000001800460c0 f   imgui.obj
 0001:0004514c       ?FindRenderedTextEnd@ImGui@@YAPEBDPEBD0@Z 000000018004614c f   imgui.obj
 0001:0004517c       ?RenderText@ImGui@@YAXUImVec2@@PEBD1_N@Z 000000018004617c f   imgui.obj
 0001:00045264       ?RenderTextWrapped@ImGui@@YAXUImVec2@@PEBD1M@Z 0000000180046264 f   imgui.obj
 0001:00045348       ?RenderTextClippedEx@ImGui@@YAXPEAUImDrawList@@AEBUImVec2@@1PEBD2PEBU3@1PEBUImRect@@@Z 0000000180046348 f   imgui.obj
 0001:00045540       ?RenderTextClipped@ImGui@@YAXAEBUImVec2@@0PEBD1PEBU2@0PEBUImRect@@@Z 0000000180046540 f   imgui.obj
 0001:000455e4       ?RenderFrame@ImGui@@YAXUImVec2@@0I_NM@Z 00000001800465e4 f   imgui.obj
 0001:00045754       ?RenderFrameBorder@ImGui@@YAXUImVec2@@0M@Z 0000000180046754 f   imgui.obj
 0001:00045890       ?RenderNavHighlight@ImGui@@YAXAEBUImRect@@IH@Z 0000000180046890 f   imgui.obj
 0001:00045b1c       ?RenderMouseCursor@ImGui@@YAXUImVec2@@MHIII@Z 0000000180046b1c f   imgui.obj
 0001:00045f18       ?Initialize@ImGui@@YAXXZ   0000000180046f18 f   imgui.obj
 0001:00046224       ?CallContextHooks@ImGui@@YAXPEAUImGuiContext@@W4ImGuiContextHookType@@@Z 0000000180047224 f   imgui.obj
 0001:0004628c       ??0ImGuiWindow@@QEAA@PEAUImGuiContext@@PEBD@Z 000000018004728c f   imgui.obj
 0001:00046604       ?GetID@ImGuiWindow@@QEAAIPEBD0@Z 0000000180047604 f   imgui.obj
 0001:00046664       ?GetID@ImGuiWindow@@QEAAIH@Z 0000000180047664 f   imgui.obj
 0001:000466d8       ?GetIDFromRectangle@ImGuiWindow@@QEAAIAEBUImRect@@@Z 00000001800476d8 f   imgui.obj
 0001:000467ec       ?SetActiveID@ImGui@@YAXIPEAUImGuiWindow@@@Z 00000001800477ec f   imgui.obj
 0001:00046948       ?MarkItemEdited@ImGui@@YAXI@Z 0000000180047948 f   imgui.obj
 0001:00046970       ?IsWindowContentHoverable@ImGui@@YA_NPEAUImGuiWindow@@H@Z 0000000180047970 f   imgui.obj
 0001:000469dc       ?IsItemHovered@ImGui@@YA_NH@Z 00000001800479dc f   imgui.obj
 0001:00046b30       ?ItemHoverable@ImGui@@YA_NAEBUImRect@@I@Z 0000000180047b30 f   imgui.obj
 0001:00046c8c       ?IsClippedEx@ImGui@@YA_NAEBUImRect@@I@Z 0000000180047c8c f   imgui.obj
 0001:00046ce0       ?MemAlloc@ImGui@@YAPEAX_K@Z 0000000180047ce0 f   imgui.obj
 0001:00046cfc       ?MemFree@ImGui@@YAXPEAX@Z  0000000180047cfc f   imgui.obj
 0001:00046d1c       ?SetClipboardText@ImGui@@YAXPEBD@Z 0000000180047d1c f   imgui.obj
 0001:00046e88       ?GetForegroundd1awList@ImGui@@YAPEAUImDrawList@@XZ 0000000180047e88 f   imgui.obj
 0001:00046eac       ?StartMouseMovingWindow@ImGui@@YAXPEAUImGuiWindow@@@Z 0000000180047eac f   imgui.obj
 0001:00046f64       ?UpdateMouseMovingWindowEndFrame@ImGui@@YAXXZ 0000000180047f64 f   imgui.obj
 0001:00047150       ?UpdateHoveredWindowAndCaptureFlags@ImGui@@YAXXZ 0000000180048150 f   imgui.obj
 0001:000473c8       ?NewFrame@ImGui@@YAXXZ     00000001800483c8 f   imgui.obj
 0001:00048818       ?PushClipRect@ImGui@@YAXAEBUImVec2@@0_N@Z 0000000180049818 f   imgui.obj
 0001:0004889c       ?PopClipRect@ImGui@@YAXXZ  000000018004989c f   imgui.obj
 0001:00048dc0       ?EndFrame@ImGui@@YAXXZ     0000000180049dc0 f   imgui.obj
 0001:0004911c       ?Render@ImGui@@YAXXZ       000000018004a11c f   imgui.obj
 0001:0004946c       ?CalcTextSize@ImGui@@YA?AUImVec2@@PEBD0_NM@Z 000000018004a46c f   imgui.obj
 0001:00049708       ?CustomBeginChildEx@ImGui@@YA_NPEBDIAEBUImVec2@@_NH@Z 000000018004a708 f   imgui.obj
 0001:00049b20       ?CustomBeginChild@ImGui@@YA_NPEBDAEBUImVec2@@_NH@Z 000000018004ab20 f   imgui.obj
 0001:00049b98       ?CustomEndChild@ImGui@@YAXXZ 000000018004ab98 f   imgui.obj
 0001:00049d9c       ?BeginChildEx@ImGui@@YA_NPEBDIAEBUImVec2@@_NH@Z 000000018004ad9c f   imgui.obj
 0001:00049f70       ?EndChild@ImGui@@YAXXZ     000000018004af70 f   imgui.obj
 0001:0004a150       ?FindWindowByID@ImGui@@YAPEAUImGuiWindow@@I@Z 000000018004b150 f   imgui.obj
 0001:0004bf74       ?Begin@ImGui@@YA_NPEBDPEA_NH@Z 000000018004cf74 f   imgui.obj
 0001:0004e0d8       ?End@ImGui@@YAXXZ          000000018004f0d8 f   imgui.obj
 0001:0004e258       ?BringWindowToDisplayBehind@ImGui@@YAXPEAUImGuiWindow@@0@Z 000000018004f258 f   imgui.obj
 0001:0004e310       ?FindWindowDisplayIndex@ImGui@@YAHPEAUImGuiWindow@@@Z 000000018004f310 f   imgui.obj
 0001:0004e34c       ?FocusWindow@ImGui@@YAXPEAUImGuiWindow@@@Z 000000018004f34c f   imgui.obj
 0001:0004e548       ?FocusTopMostWindowUnderOne@ImGui@@YAXPEAUImGuiWindow@@0@Z 000000018004f548 f   imgui.obj
 0001:0004e5e0       ?SetCurrentFont@ImGui@@YAXPEAUImFont@@@Z 000000018004f5e0 f   imgui.obj
 0001:0004e67c       ?PushFont@ImGui@@YAXPEAUImFont@@@Z 000000018004f67c f   imgui.obj
 0001:0004e6f4       ?PopFont@ImGui@@YAXXZ      000000018004f6f4 f   imgui.obj
 0001:0004e75c       ?PushItemFlag@ImGui@@YAXH_N@Z 000000018004f75c f   imgui.obj
 0001:0004e794       ?PushTextWrapPos@ImGui@@YAXM@Z 000000018004f794 f   imgui.obj
 0001:0004e828       ?IsWindowHovered@ImGui@@YA_NH@Z 000000018004f828 f   imgui.obj
 0001:0004e87c       ?SetWindowPos@ImGui@@YAXPEAUImGuiWindow@@AEBUImVec2@@H@Z 000000018004f87c f   imgui.obj
 0001:0004e9d0       ?SetWindowSize@ImGui@@YAXPEAUImGuiWindow@@AEBUImVec2@@H@Z 000000018004f9d0 f   imgui.obj
 0001:0004eabc       ?SetWindowCollapsed@ImGui@@YAXPEAUImGuiWindow@@_NH@Z 000000018004fabc f   imgui.obj
 0001:0004eb00       ?SetItemDefaultFocus@ImGui@@YAXXZ 000000018004fb00 f   imgui.obj
 0001:0004ec34       ?PushID@ImGui@@YAXPEBD@Z   000000018004fc34 f   imgui.obj
 0001:0004ec70       ?PushID@ImGui@@YAXH@Z      000000018004fc70 f   imgui.obj
 0001:0004ecac       ?IsRectVisible@ImGui@@YA_NAEBUImVec2@@0@Z 000000018004fcac f   imgui.obj
 0001:0004ed1c       ?GetKeyData@ImGui@@YAPEAUImGuiKeyData@@PEAUImGuiContext@@W4ImGuiKey@@@Z 000000018004fd1c f   imgui.obj
 0001:0004eda8       ?GetKeyName@ImGui@@YAPEBDW4ImGuiKey@@@Z 000000018004fda8 f   imgui.obj
 0001:0004ee60       ?CalcTypematicRepeatAmount@ImGui@@YAHMMMM@Z 000000018004fe60 f   imgui.obj
 0001:0004eeb4       ?GetTypematicRepeatRate@ImGui@@YAXHPEAM0@Z 000000018004feb4 f   imgui.obj
 0001:0004ef0c       ?GetKeyPressedAmount@ImGui@@YAHW4ImGuiKey@@MM@Z 000000018004ff0c f   imgui.obj
 0001:0004f110       ?GetShortcutRoutingData@ImGui@@YAPEAUImGuiKeyRoutingData@@H@Z 0000000180050110 f   imgui.obj
 0001:0004f258       ?SetShortcutRouting@ImGui@@YA_NHIH@Z 0000000180050258 f   imgui.obj
 0001:0004f360       ?IsKeyDown@ImGui@@YA_NW4ImGuiKey@@@Z 0000000180050360 f   imgui.obj
 0001:0004f398       ?IsKeyPressed@ImGui@@YA_NW4ImGuiKey@@IH@Z 0000000180050398 f   imgui.obj
 0001:0004f41c       ?IsMouseDown@ImGui@@YA_NH@Z 000000018005041c f   imgui.obj
 0001:0004f454       ?IsMouseClicked@ImGui@@YA_NHIH@Z 0000000180050454 f   imgui.obj
 0001:0004f4c8       ?IsMouseReleased@ImGui@@YA_NH@Z 00000001800504c8 f   imgui.obj
 0001:0004f4fc       ?IsMouseHoveringRect@ImGui@@YA_NAEBUImVec2@@0_N@Z 00000001800504fc f   imgui.obj
 0001:0004f5dc       ?IsMousePosValid@ImGui@@YA_NPEBUImVec2@@@Z 00000001800505dc f   imgui.obj
 0001:0005067c       ?UpdateInputEvents@ImGui@@YAX_N@Z 000000018005167c f   imgui.obj
 0001:00050bcc       ?TestKeyOwner@ImGui@@YA_NW4ImGuiKey@@I@Z 0000000180051bcc f   imgui.obj
 0001:00050c68       ?Shortcut@ImGui@@YA_NHIH@Z 0000000180051c68 f   imgui.obj
 0001:00050d70       ?ItemSize@ImGui@@YAXAEBUImVec2@@M@Z 0000000180051d70 f   imgui.obj
 0001:00050ecc       ?ItemAdd@ImGui@@YA_NAEBUImRect@@IPEBU2@H@Z 0000000180051ecc f   imgui.obj
 0001:0005106c       ?SameLine@ImGui@@YAXMM@Z   000000018005206c f   imgui.obj
 0001:000510d8       ?PushItemWidth@ImGui@@YAXM@Z 00000001800520d8 f   imgui.obj
 0001:00051180       ?CalcItemWidth@ImGui@@YAMXZ 0000000180052180 f   imgui.obj
 0001:000511f0       ?CalcItemSize@ImGui@@YA?AUImVec2@@U2@MM@Z 00000001800521f0 f   imgui.obj
 0001:000512c8       ?GetContentRegionMax@ImGui@@YA?AUImVec2@@XZ 00000001800522c8 f   imgui.obj
 0001:00051324       ?GetContentRegionMaxAbs@ImGui@@YA?AUImVec2@@XZ 0000000180052324 f   imgui.obj
 0001:00051360       ?GetContentRegionAvail@ImGui@@YA?AUImVec2@@XZ 0000000180052360 f   imgui.obj
 0001:000513b0       ?BeginGroup@ImGui@@YAXXZ   00000001800523b0 f   imgui.obj
 0001:000514d8       ?EndGroup@ImGui@@YAXXZ     00000001800524d8 f   imgui.obj
 0001:00051854       ?ScrollToRectEx@ImGui@@YA?AUImVec2@@PEAUImGuiWindow@@AEBUImRect@@H@Z 0000000180052854 f   imgui.obj
 0001:00051c68       ?BeginTooltipEx@ImGui@@YA_NHH@Z 0000000180052c68 f   imgui.obj
 0001:00051db0       ?SetTooltip@ImGui@@YAXPEBDZZ 0000000180052db0 f   imgui.obj
 0001:00051df8       ?IsPopupOpen@ImGui@@YA_NIH@Z 0000000180052df8 f   imgui.obj
 0001:00051e7c       ?GetTopMostPopupModal@ImGui@@YAPEAUImGuiWindow@@XZ 0000000180052e7c f   imgui.obj
 0001:00051ec4       ?OpenPopup@ImGui@@YAXPEBDH@Z 0000000180052ec4 f   imgui.obj
 0001:00051f24       ?OpenPopupEx@ImGui@@YAXIH@Z 0000000180052f24 f   imgui.obj
 0001:00052074       ?ClosePopupsOverWindow@ImGui@@YAXPEAUImGuiWindow@@_N@Z 0000000180053074 f   imgui.obj
 0001:00052150       ?ClosePopupToLevel@ImGui@@YAXH_N@Z 0000000180053150 f   imgui.obj
 0001:00052234       ?CloseCurrentPopup@ImGui@@YAXXZ 0000000180053234 f   imgui.obj
 0001:00052304       ?BeginPopupEx@ImGui@@YA_NIH@Z 0000000180053304 f   imgui.obj
 0001:00052368       ?BeginPopup@ImGui@@YA_NPEBDH@Z 0000000180053368 f   imgui.obj
 0001:000523ac       ?EndPopup@ImGui@@YAXXZ     00000001800533ac f   imgui.obj
 0001:00052404       ?OpenPopupOnItemClick@ImGui@@YAXPEBDH@Z 0000000180053404 f   imgui.obj
 0001:00052450       ?FindBestWindowPosForPopupEx@ImGui@@YA?AUImVec2@@AEBU2@0PEAHAEBUImRect@@2W4ImGuiPopupPositionPolicy@@@Z 0000000180053450 f   imgui.obj
 0001:00052630       ?FindBestWindowPosForPopup@ImGui@@YA?AUImVec2@@PEAUImGuiWindow@@@Z 0000000180053630 f   imgui.obj
 0001:00052904       ?SetNavWindow@ImGui@@YAXPEAUImGuiWindow@@@Z 0000000180053904 f   imgui.obj
 0001:00052998       ?SetFocusID@ImGui@@YAXIPEAUImGuiWindow@@@Z 0000000180053998 f   imgui.obj
 0001:00053380       ?NavMoveRequestSubmit@ImGui@@YAXHHHH@Z 0000000180054380 f   imgui.obj
 0001:000534ac       ?NavMoveRequestResolveWithLastItem@ImGui@@YAXPEAUImGuiNavItemData@@@Z 00000001800544ac f   imgui.obj
 0001:000535ac       ?NavInitWindow@ImGui@@YAXPEAUImGuiWindow@@_N@Z 00000001800545ac f   imgui.obj
 0001:000538c8       ?GetNavTweakPressedAmount@ImGui@@YAMW4ImGuiAxis@@@Z 00000001800548c8 f   imgui.obj
 0001:000548c8       ?NavMoveRequestApplyResult@ImGui@@YAXXZ 00000001800558c8 f   imgui.obj
 0001:00055598       ?ClearDragDrop@ImGui@@YAXXZ 0000000180056598 f   imgui.obj
 0001:00055648       ?BeginDragDropTarget@ImGui@@YA_NXZ 0000000180056648 f   imgui.obj
 0001:00055718       ?AcceptDragDropPayload@ImGui@@YAPEBUImGuiPayload@@PEBDH@Z 0000000180056718 f   imgui.obj
 0001:00055988       ?LogText@ImGui@@YAXPEBDZZ  0000000180056988 f   imgui.obj
 0001:000559c4       ?LogRenderedText@ImGui@@YAXPEBUImVec2@@PEBD1@Z 00000001800569c4 f   imgui.obj
 0001:00055b84       ?LogFinish@ImGui@@YAXXZ    0000000180056b84 f   imgui.obj
 0001:00055c58       ?AddSettingsHandler@ImGui@@YAXPEBUImGuiSettingsHandler@@@Z 0000000180056c58 f   imgui.obj
 0001:00055d7c       ?FindSettingsHandler@ImGui@@YAPEAUImGuiSettingsHandler@@PEBD@Z 0000000180056d7c f   imgui.obj
 0001:00055dd8       ?LoadIniSettingsFromMemory@ImGui@@YAXPEBD_K@Z 0000000180056dd8 f   imgui.obj
 0001:00056020       ?SaveIniSettingsToDisk@ImGui@@YAXPEBD@Z 0000000180057020 f   imgui.obj
 0001:00056094       ?SaveIniSettingsToMemory@ImGui@@YAPEBDPEA_K@Z 0000000180057094 f   imgui.obj
 0001:00056180       ?CreateNewWindowSettings@ImGui@@YAPEAUImGuiWindowSettings@@PEBD@Z 0000000180057180 f   imgui.obj
 0001:0005626c       ?FindWindowSettingsByID@ImGui@@YAPEAUImGuiWindowSettings@@I@Z 000000018005726c f   imgui.obj
 0001:000569c4       ?DebugLog@ImGui@@YAXPEBDZZ 00000001800579c4 f   imgui.obj
 0001:00056b00       ?DebugLocateItemResolveWithLastItem@ImGui@@YAXXZ 0000000180057b00 f   imgui.obj
 0001:00056c24       ?DebugHookIdInfo@ImGui@@YAXIHPEBX0@Z 0000000180057c24 f   imgui.obj
 0001:00056e40       ?push_back@?$ImVector@UImGuiPopupData@@@@QEAAXAEBUImGuiPopupData@@@Z 0000000180057e40 f i imgui.obj
 0001:00056f30       ?resize@?$ImVector@UImGuiPopupData@@@@QEAAXH@Z 0000000180057f30 f i imgui.obj
 0001:00056fec       ?resize@?$ImVector@UImGuiGroupData@@@@QEAAXH@Z 0000000180057fec f i imgui.obj
 0001:000570b0       ?push_back@?$ImVector@UImGuiStyleMod@@@@QEAAXAEBUImGuiStyleMod@@@Z 00000001800580b0 f i imgui.obj
 0001:00057194       ?push_back@?$ImVector@UImGuiColorMod@@@@QEAAXAEBUImGuiColorMod@@@Z 0000000180058194 f i imgui.obj
 0001:00057278       ?reserve@?$ImVector@PEAUImGuiWindow@@@@QEAAXH@Z 0000000180058278 f i imgui.obj
 0001:00057278       ?reserve@?$ImVector@UImVec2@@@@QEAAXH@Z 0000000180058278 f i imgui_draw.obj
 0001:00057304       ?push_back@?$ImVector@UImGuiKeyRoutingData@@@@QEAAXAEBUImGuiKeyRoutingData@@@Z 0000000180058304 f i imgui.obj
 0001:000573d8       ?resize@?$ImVector@PEAUImDrawList@@@@QEAAXH@Z 00000001800583d8 f i imgui.obj
 0001:00057494       ?push_back@?$ImVector@H@@QEAAXAEBH@Z 0000000180058494 f i imgui.obj
 0001:00057494       ?push_back@?$ImVector@I@@QEAAXAEBI@Z 0000000180058494 f i imgui.obj
 0001:00057564       ?push_back@?$ImVector@PEAE@@QEAAXAEBQEAE@Z 0000000180058564 f i imgui_freetype.obj
 0001:00057564       ?push_back@?$ImVector@PEAUImFont@@@@QEAAXAEBQEAUImFont@@@Z 0000000180058564 f i imgui.obj
 0001:00057634       ?resize@?$ImVector@I@@QEAAXH@Z 0000000180058634 f i imgui.obj
 0001:000576f0       ?reserve@?$ImVector@UImDrawVert@@@@QEAAXH@Z 00000001800586f0 f i imgui.obj
 0001:00057784       ?insert@?$ImVector@UImGuiStoragePair@ImGuiStorage@@@@QEAAPEAUImGuiStoragePair@ImGuiStorage@@PEBU23@AEBU23@@Z 0000000180058784 f i imgui.obj
 0001:000578a4       ?reserve@?$ImVector@D@@QEAAXH@Z 00000001800588a4 f i imgui.obj
 0001:00057928       ?reserve@?$ImVector@G@@QEAAXH@Z 0000000180058928 f i imgui.obj
 0001:000579b4       ?reserve@?$ImVector@UImGuiInputEvent@@@@QEAAXH@Z 00000001800589b4 f i imgui.obj
 0001:00057a48       ?reserve@?$ImVector@UImGuiStackLevelInfo@@@@QEAAXH@Z 0000000180058a48 f i imgui.obj
 0001:00057adc       ?reserve@?$ImVector@M@@QEAAXH@Z 0000000180058adc f i imgui.obj
 0001:00057b68       ?insert@?$ImVector@UImDrawCmd@@@@QEAAPEAUImDrawCmd@@PEBU2@AEBU2@@Z 0000000180058b68 f i imgui.obj
 0001:00057c5c       ?push_back@?$ImVector@UImDrawCmd@@@@QEAAXAEBUImDrawCmd@@@Z 0000000180058c5c f i imgui.obj
 0001:00057cdc       ?reserve@?$ImVector@UImDrawCmd@@@@QEAAXH@Z 0000000180058cdc f i imgui.obj
 0001:00057d68       ??$insert@$0A@$0A@@?$_Tree@V?$_Tmap_traits@IMU?$less@I@std@@V?$allocator@U?$pair@$$CBIM@std@@@2@$0A@@std@@@std@@QEAA?AU?$pair@V?$_Tree_iterator@V?$_Tree_val@U?$_Tree_simple_types@U?$pair@$$CBIM@std@@@std@@@std@@@std@@_N@1@$$QEAU?$pair@$$CBIM@1@@Z 0000000180058d68 f i imgui.obj
 0001:00057e58       ??$_Erase_tree@V?$allocator@U?$_Tree_node@U?$pair@$$CBIM@std@@PEAX@std@@@std@@@?$_Tree_val@U?$_Tree_simple_types@U?$pair@$$CBIM@std@@@std@@@std@@QEAAXAEAV?$allocator@U?$_Tree_node@U?$pair@$$CBIM@std@@PEAX@std@@@1@PEAU?$_Tree_node@U?$pair@$$CBIM@std@@PEAX@1@@Z 0000000180058e58 f i imgui.obj
 0001:000583b8       ?StyleColorsDark@ImGui@@YAXPEAUImGuiStyle@@@Z 00000001800593b8 f   imgui_draw.obj
 0001:000587c8       ?_ResetForNewFrame@ImDrawList@@QEAAXXZ 00000001800597c8 f   imgui_draw.obj
 0001:00058a00       ?_ClearFreeMemory@ImDrawList@@QEAAXXZ 0000000180059a00 f   imgui_draw.obj
 0001:00058b2c       ?Addd1awCmd@ImDrawList@@QEAAXXZ 0000000180059b2c f   imgui_draw.obj
 0001:00058b80       ?_OnChangedClipRect@ImDrawList@@QEAAXXZ 0000000180059b80 f   imgui_draw.obj
 0001:00058c34       ?_OnChangedTextureID@ImDrawList@@QEAAXXZ 0000000180059c34 f   imgui_draw.obj
 0001:00058cd8       ?_CalcCircleAutoSegmentCount@ImDrawList@@QEBAHM@Z 0000000180059cd8 f   imgui_draw.obj
 0001:00058d84       ?PushClipRect@ImDrawList@@QEAAXAEBUImVec2@@0_N@Z 0000000180059d84 f   imgui_draw.obj
 0001:00058ecc       ?PopClipRect@ImDrawList@@QEAAXXZ 0000000180059ecc f   imgui_draw.obj
 0001:00058f00       ?PushTextureID@ImDrawList@@QEAAXPEAX@Z 0000000180059f00 f   imgui_draw.obj
 0001:00058fdc       ?PopTextureID@ImDrawList@@QEAAXXZ 0000000180059fdc f   imgui_draw.obj
 0001:00059008       ?PrimReserve@ImDrawList@@QEAAXHH@Z 000000018005a008 f   imgui_draw.obj
 0001:0005911c       ?PrimRect@ImDrawList@@QEAAXAEBUImVec2@@0I@Z 000000018005a11c f   imgui_draw.obj
 0001:00059234       ?PrimRectUV@ImDrawList@@QEAAXAEBUImVec2@@000I@Z 000000018005a234 f   imgui_draw.obj
 0001:00059384       ?AddPolyline@ImDrawList@@QEAAXPEBUImVec2@@HIHM@Z 000000018005a384 f   imgui_draw.obj
 0001:0005a15c       ?AddConvexPolyFilled@ImDrawList@@QEAAXPEBUImVec2@@HI@Z 000000018005b15c f   imgui_draw.obj
 0001:0005a530       ?_PathArcToFastEx@ImDrawList@@QEAAXAEBUImVec2@@MHHH@Z 000000018005b530 f   imgui_draw.obj
 0001:0005a7f4       ?_PathArcToN@ImDrawList@@QEAAXAEBUImVec2@@MMMH@Z 000000018005b7f4 f   imgui_draw.obj
 0001:0005a984       ?PathArcToFast@ImDrawList@@QEAAXAEBUImVec2@@MHH@Z 000000018005b984 f   imgui_draw.obj
 0001:0005aa04       ?PathArcTo@ImDrawList@@QEAAXAEBUImVec2@@MMMH@Z 000000018005ba04 f   imgui_draw.obj
 0001:0005ae30       ?PathRect@ImDrawList@@QEAAXAEBUImVec2@@0MH@Z 000000018005be30 f   imgui_draw.obj
 0001:0005b1c4       ?AddLine@ImDrawList@@QEAAXAEBUImVec2@@0IM@Z 000000018005c1c4 f   imgui_draw.obj
 0001:0005b310       ?AddRect@ImDrawList@@QEAAXAEBUImVec2@@0IMHM@Z 000000018005c310 f   imgui_draw.obj
 0001:0005b410       ?AddRectFilled@ImDrawList@@QEAAXAEBUImVec2@@0IMH@Z 000000018005c410 f   imgui_draw.obj
 0001:0005b4c0       ?AddRectFilledMultiColor@ImDrawList@@QEAAXAEBUImVec2@@0IIII@Z 000000018005c4c0 f   imgui_draw.obj
 0001:0005b698       ?AddRectFilledMultiColorRounded@ImDrawList@@QEAAXAEBUImVec2@@0IIIIIMH@Z 000000018005c698 f   imgui_draw.obj
 0001:0005c630       ?AddTriangleFilled@ImDrawList@@QEAAXAEBUImVec2@@00I@Z 000000018005d630 f   imgui_draw.obj
 0001:0005c760       ?AddCircle@ImDrawList@@QEAAXAEBUImVec2@@MIHM@Z 000000018005d760 f   imgui_draw.obj
 0001:0005c83c       ?AddCircleFilled@ImDrawList@@QEAAXAEBUImVec2@@MIH@Z 000000018005d83c f   imgui_draw.obj
 0001:0005c8fc       ?AddText@ImDrawList@@QEAAXPEBUImFont@@MAEBUImVec2@@IPEBD2MPEBUImVec4@@@Z 000000018005d8fc f   imgui_draw.obj
 0001:0005ca00       ?AddImage@ImDrawList@@QEAAXPEAXAEBUImVec2@@111I@Z 000000018005da00 f   imgui_draw.obj
 0001:0005ca9c       ?ClearFreeMemory@ImDrawListSplitter@@QEAAXXZ 000000018005da9c f   imgui_draw.obj
 0001:0005cba0       ?Merge@ImDrawListSplitter@@QEAAXPEAUImDrawList@@@Z 000000018005dba0 f   imgui_draw.obj
 0001:0005cee4       ?SetCurrentChannel@ImDrawListSplitter@@QEAAXPEAUImDrawList@@H@Z 000000018005dee4 f   imgui_draw.obj
 0001:0005cfb8       ?ClearTexData@ImFontAtlas@@QEAAXXZ 000000018005dfb8 f   imgui_draw.obj
 0001:0005d018       ?AddFont@ImFontAtlas@@QEAAPEAUImFont@@PEBUImFontConfig@@@Z 000000018005e018 f   imgui_draw.obj
 0001:0005d280       ?AddFontDefault@ImFontAtlas@@QEAAPEAUImFont@@PEBUImFontConfig@@@Z 000000018005e280 f   imgui_draw.obj
 0001:0005d4e8       ?AddFontFromMemoryTTF@ImFontAtlas@@QEAAPEAUImFont@@PEAXHMPEBUImFontConfig@@PEBG@Z 000000018005e4e8 f   imgui_draw.obj
 0001:0005d6c0       ?AddFontFromMemoryCompressedTTF@ImFontAtlas@@QEAAPEAUImFont@@PEBXHMPEBUImFontConfig@@PEBG@Z 000000018005e6c0 f   imgui_draw.obj
 0001:0005d918       ?AddCustomRectRegular@ImFontAtlas@@QEAAHHH@Z 000000018005e918 f   imgui_draw.obj
 0001:0005d95c       ?ImFontAtlasBuildRender8bppRectFromString@@YAXPEAUImFontAtlas@@HHHHPEBDDE@Z 000000018005e95c f   imgui_draw.obj
 0001:0005d9cc       ?ImFontAtlasBuildRender32bppRectFromString@@YAXPEAUImFontAtlas@@HHHHPEBDDI@Z 000000018005e9cc f   imgui_draw.obj
 0001:0005dbe8       ?ImFontAtlasBuildFinish@@YAXPEAUImFontAtlas@@@Z 000000018005ebe8 f   imgui_draw.obj
 0001:0005de64       ?ClearOutputData@ImFont@@QEAAXXZ 000000018005ee64 f   imgui_draw.obj
 0001:0005df50       ?BuildLookupTable@ImFont@@QEAAXXZ 000000018005ef50 f   imgui_draw.obj
 0001:0005e2cc       ?GrowIndex@ImFont@@QEAAXH@Z 000000018005f2cc f   imgui_draw.obj
 0001:0005e39c       ?AddGlyph@ImFont@@QEAAXPEBUImFontConfig@@GMMMMMMMMM@Z 000000018005f39c f   imgui_draw.obj
 0001:0005e5a4       ?FindGlyph@ImFont@@QEBAPEBUImFontGlyph@@G@Z 000000018005f5a4 f   imgui_draw.obj
 0001:0005e5d8       ?FindGlyphNoFallback@ImFont@@QEBAPEBUImFontGlyph@@G@Z 000000018005f5d8 f   imgui_draw.obj
 0001:0005e60c       ?CalcWordWrapPositionA@ImFont@@QEBAPEBDMPEBD0M@Z 000000018005f60c f   imgui_draw.obj
 0001:0005e790       ?CalcTextSizeA@ImFont@@QEBA?AUImVec2@@MMMPEBD0PEAPEBD@Z 000000018005f790 f   imgui_draw.obj
 0001:0005e974       ?RenderText@ImFont@@QEBAXPEAUImDrawList@@MAEBUImVec2@@IAEBUImVec4@@PEBD3M_N@Z 000000018005f974 f   imgui_draw.obj
 0001:0005ef8c       ?RenderArrow@ImGui@@YAXPEAUImDrawList@@UImVec2@@IHM@Z 000000018005ff8c f   imgui_draw.obj
 0001:0005f130       ?RenderBullet@ImGui@@YAXPEAUImDrawList@@UImVec2@@I@Z 0000000180060130 f   imgui_draw.obj
 0001:0005f164       ?RenderColorRectWithAlphaCheckerboard@ImGui@@YAXPEAUImDrawList@@UImVec2@@1IM1MH@Z 0000000180060164 f   imgui_draw.obj
 0001:0005f648       ?resize@?$ImVector@UImFontGlyph@@@@QEAAXH@Z 0000000180060648 f i imgui_draw.obj
 0001:0005f70c       ?push_back@?$ImVector@UImFontAtlasCustomRect@@@@QEAAXAEBUImFontAtlasCustomRect@@@Z 000000018006070c f i imgui_draw.obj
 0001:0005f9ac       ?ImGui_ImplDX11_RenderDrawData@@YAXPEAUImDrawData@@@Z 00000001800609ac f   imgui_impl_dx11.obj
 0001:00060538       ?ImGui_ImplDX11_CreateDeviceObjects@@YA_NXZ 0000000180061538 f   imgui_impl_dx11.obj
 0001:000608b0       ?ImGui_ImplDX11_InvalidateDeviceObjects@@YAXXZ 00000001800618b0 f   imgui_impl_dx11.obj
 0001:000609c8       ?ImGui_ImplDX11_Init@@YA_NPEAUID3D11Device@@PEAUID3D11DeviceContext@@@Z 00000001800619c8 f   imgui_impl_dx11.obj
 0001:00060afc       ?ImGui_ImplWin32_Init@@YA_NPEAX@Z 0000000180061afc f   imgui_impl_win32.obj
 0001:00061200       ?ImGui_ImplWin32_NewFrame@@YAXXZ 0000000180062200 f   imgui_impl_win32.obj
 0001:00061a18       ?ImGui_ImplWin32_WndProcHandler@@YA_JPEAUHWND__@@I_K_J@Z 0000000180062a18 f   imgui_impl_win32.obj
 0001:000621b0       ?TextEx@ImGui@@YAXPEBD0H@Z 00000001800631b0 f   imgui_widgets.obj
 0001:00062594       ?Text@ImGui@@YAXPEBDZZ     0000000180063594 f   imgui_widgets.obj
 0001:000625bc       ?TextV@ImGui@@YAXPEBDPEAD@Z 00000001800635bc f   imgui_widgets.obj
 0001:00062610       ?TextColored@ImGui@@YAXAEBUImVec4@@PEBDZZ 0000000180063610 f   imgui_widgets.obj
 0001:00062654       ?GlowText@ImGui@@YAXPEAUImFont@@MPEBDUImVec2@@I@Z 0000000180063654 f   imgui_widgets.obj
 0001:00062764       ?ButtonBehavior@ImGui@@YA_NAEBUImRect@@IPEA_N1H@Z 0000000180063764 f   imgui_widgets.obj
 0001:00062dc8       ?Tabs@ImGui@@YA_N_NPEAXPEBDAEBUImVec2@@H@Z 0000000180063dc8 f   imgui_widgets.obj
 0001:00063478       ?SubTab@ImGui@@YA_N_NPEBDAEBUImVec2@@@Z 0000000180064478 f   imgui_widgets.obj
 0001:000639c4       ?invisible_shadow@@YAXMUImVec2@@0IM@Z 00000001800649c4 f   imgui_widgets.obj
 0001:00063a08       ?ButtonEx@ImGui@@YA_NPEBDAEBUImVec2@@H@Z 0000000180064a08 f   imgui_widgets.obj
 0001:00064134       ?InvisibleButton@ImGui@@YA_NPEBDAEBUImVec2@@H@Z 0000000180065134 f   imgui_widgets.obj
 0001:00064218       ?CollapseButton@ImGui@@YA_NIAEBUImVec2@@@Z 0000000180065218 f   imgui_widgets.obj
 0001:00064448       ?Scrollbar@ImGui@@YAXW4ImGuiAxis@@@Z 0000000180065448 f   imgui_widgets.obj
 0001:000645d4       ?ScrollbarEx@ImGui@@YA_NAEBUImRect@@IW4ImGuiAxis@@PEA_J_J3H@Z 00000001800655d4 f   imgui_widgets.obj
 0001:00064b88       ?Checkbox@ImGui@@YA_NPEBDPEA_N@Z 0000000180065b88 f   imgui_widgets.obj
 0001:00065140       ?Pickerbox@ImGui@@YAXPEBDPEA_NQEAMH@Z 0000000180066140 f   imgui_widgets.obj
 0001:000653e8       ?Keybind@ImGui@@YAXPEBDPEAH1_N@Z 00000001800663e8 f   imgui_widgets.obj
 0001:00066018       ?Keybindbox@ImGui@@YAXPEBDPEA_NPEAH2@Z 0000000180067018 f   imgui_widgets.obj
 0001:000662c0       ?CheckboxFlags@ImGui@@YA_NPEBDPEAHH@Z 00000001800672c0 f   imgui_widgets.obj
 0001:00066308       ?RadioButton@ImGui@@YA_NPEBD_N@Z 0000000180067308 f   imgui_widgets.obj
 0001:00066778       ?Dummy@ImGui@@YAXAEBUImVec2@@@Z 0000000180067778 f   imgui_widgets.obj
 0001:000667fc       ?SeparatorEx@ImGui@@YAXH@Z 00000001800677fc f   imgui_widgets.obj
 0001:00066aa8       ?Separator@ImGui@@YAXXZ    0000000180067aa8 f   imgui_widgets.obj
 0001:00066adc       ?BeginCombo@ImGui@@YA_NPEBD0M_NH@Z 0000000180067adc f   imgui_widgets.obj
 0001:00067480       ?Combo@ImGui@@YA_NPEBDPEAHP6A_NPEAXHPEAPEBD@Z2HH@Z 0000000180068480 f   imgui_widgets.obj
 0001:00067654       ?DataTypeFormatString@ImGui@@YAHPEADHHPEBXPEBD@Z 0000000180068654 f   imgui_widgets.obj
 0001:000676e8       ?DataTypeApplyFromText@ImGui@@YA_NPEBDHPEAX0@Z 00000001800686e8 f   imgui_widgets.obj
 0001:000678e8       ?DataTypeCompare@ImGui@@YAHHPEBX0@Z 00000001800688e8 f   imgui_widgets.obj
 0001:000679b0       ?DataTypeClamp@ImGui@@YA_NHPEAXPEBX1@Z 00000001800689b0 f   imgui_widgets.obj
 0001:00067bb0       ?DragBehavior@ImGui@@YA_NIHPEAXMPEBX1PEBDH@Z 0000000180068bb0 f   imgui_widgets.obj
 0001:00067fc8       ?DragScalar@ImGui@@YA_NPEBDHPEAXMPEBX20H@Z 0000000180068fc8 f   imgui_widgets.obj
 0001:000684a4       ?SliderScalar@ImGui@@YA_NPEBDHPEAXPEBX20H@Z 00000001800694a4 f   imgui_widgets.obj
 0001:00068ea8       ?SliderFloat@ImGui@@YA_NPEBDPEAMMM0H@Z 0000000180069ea8 f   imgui_widgets.obj
 0001:00068ee8       ?ImParseFormatFindEnd@@YAPEBDPEBD@Z 0000000180069ee8 f   imgui_widgets.obj
 0001:00068f48       ?ImParseFormatSanitizeForPrinting@@YAXPEBDPEAD_K@Z 0000000180069f48 f   imgui_widgets.obj
 0001:00068f94       ?ImParseFormatPrecision@@YAHPEBDH@Z 0000000180069f94 f   imgui_widgets.obj
 0001:00069070       ?TempInputScalar@ImGui@@YA_NAEBUImRect@@IPEBDHPEAX1PEBX3@Z 000000018006a070 f   imgui_widgets.obj
 0001:0006930c       ?InputText@ImGui@@YA_NPEBDPEAD_KHP6AHPEAUImGuiInputTextCallbackData@@@ZPEAX@Z 000000018006a30c f   imgui_widgets.obj
 0001:0006affc       ?OnKeyPressed@ImGuiInputTextState@@QEAAXH@Z 000000018006bffc f   imgui_widgets.obj
 0001:0006b3a0       ?InputTextDeactivateHook@ImGui@@YAXI@Z 000000018006c3a0 f   imgui_widgets.obj
 0001:0006b44c       ?InputTextEx@ImGui@@YA_NPEBD0PEADHAEBUImVec2@@HP6AHPEAUImGuiInputTextCallbackData@@@ZPEAX@Z 000000018006c44c f   imgui_widgets.obj
 0001:0006e694       ?ColorEdit4@ImGui@@YA_NPEBDQEAMH@Z 000000018006f694 f   imgui_widgets.obj
 0001:0006f534       ?ColorPicker4@ImGui@@YA_NPEBDQEAMHPEBM@Z 0000000180070534 f   imgui_widgets.obj
 0001:00070724       ?ColorButton@ImGui@@YA_NPEBDAEBUImVec4@@HAEBUImVec2@@@Z 0000000180071724 f   imgui_widgets.obj
 0001:0007095c       ?ColorEditOptionsPopup@ImGui@@YAXPEBMH@Z 000000018007195c f   imgui_widgets.obj
 0001:00070cf0       ?ColorPickerOptionsPopup@ImGui@@YAXPEBMH@Z 0000000180071cf0 f   imgui_widgets.obj
 0001:00070f34       ?Selectable@ImGui@@YA_NPEBD_NHAEBUImVec2@@@Z 0000000180071f34 f   imgui_widgets.obj
 0001:00071458       ?BeginListBox@ImGui@@YA_NPEBDAEBUImVec2@@@Z 0000000180072458 f   imgui_widgets.obj
 0001:00071758       ?CalcNextTotalWidth@ImGuiMenuColumns@@QEAAX_N@Z 0000000180072758 f   imgui_widgets.obj
 0001:000717d4       ??$insert@$0A@$0A@@?$_Tree@V?$_Tmap_traits@IUtab_state@@U?$less@I@std@@V?$allocator@U?$pair@$$CBIUtab_state@@@std@@@3@$0A@@std@@@std@@QEAA?AU?$pair@V?$_Tree_iterator@V?$_Tree_val@U?$_Tree_simple_types@U?$pair@$$CBIUtab_state@@@std@@@std@@@std@@@std@@_N@1@$$QEAU?$pair@$$CBIUtab_state@@@1@@Z 00000001800727d4 f i imgui_widgets.obj
 0001:000718d0       ??$insert@$0A@$0A@@?$_Tree@V?$_Tmap_traits@IUsubtab_state@@U?$less@I@std@@V?$allocator@U?$pair@$$CBIUsubtab_state@@@std@@@3@$0A@@std@@@std@@QEAA?AU?$pair@V?$_Tree_iterator@V?$_Tree_val@U?$_Tree_simple_types@U?$pair@$$CBIUsubtab_state@@@std@@@std@@@std@@@std@@_N@1@$$QEAU?$pair@$$CBIUsubtab_state@@@1@@Z 00000001800728d0 f i imgui_widgets.obj
 0001:000719e0       ??$insert@$0A@$0A@@?$_Tree@V?$_Tmap_traits@IUbutton_state@@U?$less@I@std@@V?$allocator@U?$pair@$$CBIUbutton_state@@@std@@@3@$0A@@std@@@std@@QEAA?AU?$pair@V?$_Tree_iterator@V?$_Tree_val@U?$_Tree_simple_types@U?$pair@$$CBIUbutton_state@@@std@@@std@@@std@@@std@@_N@1@$$QEAU?$pair@$$CBIUbutton_state@@@1@@Z 00000001800729e0 f i imgui_widgets.obj
 0001:00071af0       ??$insert@$0A@$0A@@?$_Tree@V?$_Tmap_traits@IUcheckbox_state@@U?$less@I@std@@V?$allocator@U?$pair@$$CBIUcheckbox_state@@@std@@@3@$0A@@std@@@std@@QEAA?AU?$pair@V?$_Tree_iterator@V?$_Tree_val@U?$_Tree_simple_types@U?$pair@$$CBIUcheckbox_state@@@std@@@std@@@std@@@std@@_N@1@$$QEAU?$pair@$$CBIUcheckbox_state@@@1@@Z 0000000180072af0 f i imgui_widgets.obj
 0001:00071bf4       ??$insert@$0A@$0A@@?$_Tree@V?$_Tmap_traits@IUkey_state@@U?$less@I@std@@V?$allocator@U?$pair@$$CBIUkey_state@@@std@@@3@$0A@@std@@@std@@QEAA?AU?$pair@V?$_Tree_iterator@V?$_Tree_val@U?$_Tree_simple_types@U?$pair@$$CBIUkey_state@@@std@@@std@@@std@@@std@@_N@1@$$QEAU?$pair@$$CBIUkey_state@@@1@@Z 0000000180072bf4 f i imgui_widgets.obj
 0001:00071cf8       ??$insert@$0A@$0A@@?$_Tree@V?$_Tmap_traits@IUcombo_state@@U?$less@I@std@@V?$allocator@U?$pair@$$CBIUcombo_state@@@std@@@3@$0A@@std@@@std@@QEAA?AU?$pair@V?$_Tree_iterator@V?$_Tree_val@U?$_Tree_simple_types@U?$pair@$$CBIUcombo_state@@@std@@@std@@@std@@@std@@_N@1@$$QEAU?$pair@$$CBIUcombo_state@@@1@@Z 0000000180072cf8 f i imgui_widgets.obj
 0001:00071e14       ??$DragBehaviorT@HHM@ImGui@@YA_NHPEAHMHHPEBDH@Z 0000000180072e14 f i imgui_widgets.obj
 0001:000720dc       ??$DragBehaviorT@IHM@ImGui@@YA_NHPEAIMIIPEBDH@Z 00000001800730dc f i imgui_widgets.obj
 0001:000723a4       ??$DragBehaviorT@_J_JN@ImGui@@YA_NHPEA_JM_J1PEBDH@Z 00000001800733a4 f i imgui_widgets.obj
 0001:0007267c       ??$DragBehaviorT@_K_JN@ImGui@@YA_NHPEA_KM_K1PEBDH@Z 000000018007367c f i imgui_widgets.obj
 0001:0007296c       ??$DragBehaviorT@MMM@ImGui@@YA_NHPEAMMMMPEBDH@Z 000000018007396c f i imgui_widgets.obj
 0001:00072c58       ??$DragBehaviorT@NNN@ImGui@@YA_NHPEANMNNPEBDH@Z 0000000180073c58 f i imgui_widgets.obj
 0001:00072f68       ??$SliderBehaviorT@MMM@ImGui@@YA_NAEBUImRect@@IHPEAMMMPEBDHPEAU1@@Z 0000000180073f68 f i imgui_widgets.obj
 0001:00073560       ??$insert@$0A@$0A@@?$_Tree@V?$_Tmap_traits@IUslider_state@@U?$less@I@std@@V?$allocator@U?$pair@$$CBIUslider_state@@@std@@@3@$0A@@std@@@std@@QEAA?AU?$pair@V?$_Tree_iterator@V?$_Tree_val@U?$_Tree_simple_types@U?$pair@$$CBIUslider_state@@@std@@@std@@@std@@@std@@_N@1@$$QEAU?$pair@$$CBIUslider_state@@@1@@Z 0000000180074560 f i imgui_widgets.obj
 0001:00073664       ??$insert@$0A@$0A@@?$_Tree@V?$_Tmap_traits@IUinput_state@@U?$less@I@std@@V?$allocator@U?$pair@$$CBIUinput_state@@@std@@@3@$0A@@std@@@std@@QEAA?AU?$pair@V?$_Tree_iterator@V?$_Tree_val@U?$_Tree_simple_types@U?$pair@$$CBIUinput_state@@@std@@@std@@@std@@@std@@_N@1@$$QEAU?$pair@$$CBIUinput_state@@@1@@Z 0000000180074664 f i imgui_widgets.obj
 0001:00073774       ??$insert@$0A@$0A@@?$_Tree@V?$_Tmap_traits@IUpicker_state@@U?$less@I@std@@V?$allocator@U?$pair@$$CBIUpicker_state@@@std@@@3@$0A@@std@@@std@@QEAA?AU?$pair@V?$_Tree_iterator@V?$_Tree_val@U?$_Tree_simple_types@U?$pair@$$CBIUpicker_state@@@std@@@std@@@std@@@std@@_N@1@$$QEAU?$pair@$$CBIUpicker_state@@@1@@Z 0000000180074774 f i imgui_widgets.obj
 0001:00073868       ??$insert@$0A@$0A@@?$_Tree@V?$_Tmap_traits@IUselectable_state@@U?$less@I@std@@V?$allocator@U?$pair@$$CBIUselectable_state@@@std@@@3@$0A@@std@@@std@@QEAA?AU?$pair@V?$_Tree_iterator@V?$_Tree_val@U?$_Tree_simple_types@U?$pair@$$CBIUselectable_state@@@std@@@std@@@std@@@std@@_N@1@$$QEAU?$pair@$$CBIUselectable_state@@@1@@Z 0000000180074868 f i imgui_widgets.obj
 0001:0007395c       ??$RoundScalarWithFormatT@H@ImGui@@YAHPEBDHH@Z 000000018007495c f i imgui_widgets.obj
 0001:000739d8       ??$RoundScalarWithFormatT@I@ImGui@@YAIPEBDHI@Z 00000001800749d8 f i imgui_widgets.obj
 0001:00073a54       ??$RoundScalarWithFormatT@_J@ImGui@@YA_JPEBDH_J@Z 0000000180074a54 f i imgui_widgets.obj
 0001:00073ad0       ??$RoundScalarWithFormatT@_K@ImGui@@YA_KPEBDH_K@Z 0000000180074ad0 f i imgui_widgets.obj
 0001:00073b78       ??$ScaleValueFromRatioT@MMM@ImGui@@YAMHMMM_NMM@Z 0000000180074b78 f i imgui_widgets.obj
 0001:00073bd8       ??$RoundScalarWithFormatT@M@ImGui@@YAMPEBDHM@Z 0000000180074bd8 f i imgui_widgets.obj
 0001:00073c58       ??$RoundScalarWithFormatT@N@ImGui@@YANPEBDHN@Z 0000000180074c58 f i imgui_widgets.obj
 0001:00073cd0       ??$_Erase_tree@V?$allocator@U?$_Tree_node@U?$pair@$$CBIUpicker_state@@@std@@PEAX@std@@@std@@@?$_Tree_val@U?$_Tree_simple_types@U?$pair@$$CBIUpicker_state@@@std@@@std@@@std@@QEAAXAEAV?$allocator@U?$_Tree_node@U?$pair@$$CBIUpicker_state@@@std@@PEAX@std@@@1@PEAU?$_Tree_node@U?$pair@$$CBIUpicker_state@@@std@@PEAX@1@@Z 0000000180074cd0 f i imgui_widgets.obj
 0001:00073d24       ??$_Erase_tree@V?$allocator@U?$_Tree_node@U?$pair@$$CBIUbutton_state@@@std@@PEAX@std@@@std@@@?$_Tree_val@U?$_Tree_simple_types@U?$pair@$$CBIUbutton_state@@@std@@@std@@@std@@QEAAXAEAV?$allocator@U?$_Tree_node@U?$pair@$$CBIUbutton_state@@@std@@PEAX@std@@@1@PEAU?$_Tree_node@U?$pair@$$CBIUbutton_state@@@std@@PEAX@1@@Z 0000000180074d24 f i imgui_widgets.obj
 0001:00073d24       ??$_Erase_tree@V?$allocator@U?$_Tree_node@U?$pair@$$CBIUcheckbox_state@@@std@@PEAX@std@@@std@@@?$_Tree_val@U?$_Tree_simple_types@U?$pair@$$CBIUcheckbox_state@@@std@@@std@@@std@@QEAAXAEAV?$allocator@U?$_Tree_node@U?$pair@$$CBIUcheckbox_state@@@std@@PEAX@std@@@1@PEAU?$_Tree_node@U?$pair@$$CBIUcheckbox_state@@@std@@PEAX@1@@Z 0000000180074d24 f i imgui_widgets.obj
 0001:00073d24       ??$_Erase_tree@V?$allocator@U?$_Tree_node@U?$pair@$$CBIUinput_state@@@std@@PEAX@std@@@std@@@?$_Tree_val@U?$_Tree_simple_types@U?$pair@$$CBIUinput_state@@@std@@@std@@@std@@QEAAXAEAV?$allocator@U?$_Tree_node@U?$pair@$$CBIUinput_state@@@std@@PEAX@std@@@1@PEAU?$_Tree_node@U?$pair@$$CBIUinput_state@@@std@@PEAX@1@@Z 0000000180074d24 f i imgui_widgets.obj
 0001:00073d24       ??$_Erase_tree@V?$allocator@U?$_Tree_node@U?$pair@$$CBIUkey_state@@@std@@PEAX@std@@@std@@@?$_Tree_val@U?$_Tree_simple_types@U?$pair@$$CBIUkey_state@@@std@@@std@@@std@@QEAAXAEAV?$allocator@U?$_Tree_node@U?$pair@$$CBIUkey_state@@@std@@PEAX@std@@@1@PEAU?$_Tree_node@U?$pair@$$CBIUkey_state@@@std@@PEAX@1@@Z 0000000180074d24 f i imgui_widgets.obj
 0001:00073d24       ??$_Erase_tree@V?$allocator@U?$_Tree_node@U?$pair@$$CBIUsubtab_state@@@std@@PEAX@std@@@std@@@?$_Tree_val@U?$_Tree_simple_types@U?$pair@$$CBIUsubtab_state@@@std@@@std@@@std@@QEAAXAEAV?$allocator@U?$_Tree_node@U?$pair@$$CBIUsubtab_state@@@std@@PEAX@std@@@1@PEAU?$_Tree_node@U?$pair@$$CBIUsubtab_state@@@std@@PEAX@1@@Z 0000000180074d24 f i imgui_widgets.obj
 0001:00073d78       ??$_Erase_tree@V?$allocator@U?$_Tree_node@U?$pair@$$CBIUslider_state@@@std@@PEAX@std@@@std@@@?$_Tree_val@U?$_Tree_simple_types@U?$pair@$$CBIUslider_state@@@std@@@std@@@std@@QEAAXAEAV?$allocator@U?$_Tree_node@U?$pair@$$CBIUslider_state@@@std@@PEAX@std@@@1@PEAU?$_Tree_node@U?$pair@$$CBIUslider_state@@@std@@PEAX@1@@Z 0000000180074d78 f i imgui_widgets.obj
 0001:00073dcc       ??$_Erase_tree@V?$allocator@U?$_Tree_node@U?$pair@$$CBIUcombo_state@@@std@@PEAX@std@@@std@@@?$_Tree_val@U?$_Tree_simple_types@U?$pair@$$CBIUcombo_state@@@std@@@std@@@std@@QEAAXAEAV?$allocator@U?$_Tree_node@U?$pair@$$CBIUcombo_state@@@std@@PEAX@std@@@1@PEAU?$_Tree_node@U?$pair@$$CBIUcombo_state@@@std@@PEAX@1@@Z 0000000180074dcc f i imgui_widgets.obj
 0001:00073e20       ??$_Erase_tree@V?$allocator@U?$_Tree_node@U?$pair@$$CBIUtab_state@@@std@@PEAX@std@@@std@@@?$_Tree_val@U?$_Tree_simple_types@U?$pair@$$CBIUtab_state@@@std@@@std@@@std@@QEAAXAEAV?$allocator@U?$_Tree_node@U?$pair@$$CBIUtab_state@@@std@@PEAX@std@@@1@PEAU?$_Tree_node@U?$pair@$$CBIUtab_state@@@std@@PEAX@1@@Z 0000000180074e20 f i imgui_widgets.obj
 0001:00074080       ?FreeBuffer@@YAXPEAX@Z     0000000180075080 f   buffer.obj
 0001:000740e8       ?IsExecutableAddress@@YAHPEAX@Z 00000001800750e8 f   buffer.obj
 0001:0007411c       hde64_disasm               000000018007511c f   hde64.obj
 0001:00074da0       MH_Initialize              0000000180075da0 f   hook.obj
 0001:00074de8       MH_CreateHook              0000000180075de8 f   hook.obj
 0001:000750b8       ?CreateTrampolineFunction@@YAHPEAU_TRAMPOLINE@@@Z 00000001800760b8 f   trampoline.obj
 0001:00075a48       ?ImFontAtlasBuildWithFreeTypeEx@@YA_NPEAUFT_LibraryRec_@@PEAUImFontAtlas@@I@Z 0000000180076a48 f   imgui_freetype.obj
 0001:00076d84       ?reserve@?$ImVector@UImFontBuildSrcGlyphFT@@@@QEAAXH@Z 0000000180077d84 f i imgui_freetype.obj
 0001:00076e18       ??1ImFontBuildSrcDataFT@@QEAA@XZ 0000000180077e18 f i imgui_freetype.obj
 0001:00076ef0       ?TableSettingsCreate@ImGui@@YAPEAUImGuiTableSettings@@IH@Z 0000000180077ef0 f   imgui_tables.obj
 0001:00076f9c       ?TableSettingsFindByID@ImGui@@YAPEAUImGuiTableSettings@@I@Z 0000000180077f9c f   imgui_tables.obj
 0001:00077624       ?TableGcCompactSettings@ImGui@@YAXXZ 0000000180078624 f   imgui_tables.obj
 0001:00077830       ?SetWindowClipRectBeforeSetChannel@ImGui@@YAXPEAUImGuiWindow@@AEBUImRect@@@Z 0000000180078830 f   imgui_tables.obj
 0001:000778b4       ?GetColumnOffset@ImGui@@YAMH@Z 00000001800788b4 f   imgui_tables.obj
 0001:00077900       ?SetColumnOffset@ImGui@@YAXHM@Z 0000000180078900 f   imgui_tables.obj
 0001:00077a04       ?PushColumnsBackground@ImGui@@YAXXZ 0000000180078a04 f   imgui_tables.obj
 0001:00077a58       ?PopColumnsBackground@ImGui@@YAXXZ 0000000180078a58 f   imgui_tables.obj
 0001:00077aa0       ?EndColumns@ImGui@@YAXXZ   0000000180078aa0 f   imgui_tables.obj
 0001:00077e48       _Cnd_timedwait_for         0000000180078e48 f   msvcprt:sharedmutex.obj
 0001:00077ed0       __std_system_error_allocate_message 0000000180078ed0 f   msvcprt:syserror_import_lib.obj
 0001:00077f68       __std_system_error_deallocate_message 0000000180078f68 f   msvcprt:syserror_import_lib.obj
 0001:00077f70       __std_fs_code_page         0000000180078f70 f   msvcprt:filesystem.obj
 0001:00077f98       __std_fs_convert_narrow_to_wide 0000000180078f98 f   msvcprt:filesystem.obj
 0001:00077fe0       __std_fs_convert_wide_to_narrow 0000000180078fe0 f   msvcprt:filesystem.obj
 0001:00078104       __std_fs_convert_wide_to_narrow_replace_chars 0000000180079104 f   msvcprt:filesystem.obj
 0001:000781d0       __std_fs_create_directory  00000001800791d0 f   msvcprt:filesystem.obj
 0001:00078248       __std_fs_directory_iterator_advance 0000000180079248 f   msvcprt:filesystem.obj
 0001:00078268       __std_fs_directory_iterator_close 0000000180079268 f   msvcprt:filesystem.obj
 0001:00078288       __std_fs_directory_iterator_open 0000000180079288 f   msvcprt:filesystem.obj
 0001:000782fc       __std_fs_get_stats         00000001800792fc f   msvcprt:filesystem.obj
 0001:00078624       __std_fs_open_handle       0000000180079624 f   msvcprt:filesystem.obj
 0001:00078790       __std_find_trivial_2       0000000180079790 f   msvcprt:vector_algorithms.obj
 0001:00078798       ??2@YAPEAX_K@Z             0000000180079798 f   MSVCRT:new_scalar.obj
 0001:000787d4       ??3@YAXPEAX_K@Z            00000001800797d4 f   MSVCRT:delete_scalar_size.obj
 0001:000787d4       ??_V@YAXPEAX@Z             00000001800797d4 f   MSVCRT:delete_array.obj
 0001:000787dc       ??_U@YAPEAX_K@Z            00000001800797dc f   MSVCRT:new_array.obj
 0001:000787e4       ??_Etype_info@@UEAAPEAXI@Z 00000001800797e4 f i MSVCRT:std_type_info_static.obj
 0001:000787e4       ??_Gtype_info@@UEAAPEAXI@Z 00000001800797e4 f i MSVCRT:std_type_info_static.obj
 0001:00078810       _Init_thread_footer        0000000180079810 f   MSVCRT:thread_safe_statics.obj
 0001:0007887c       _Init_thread_header        000000018007987c f   MSVCRT:thread_safe_statics.obj
 0001:000788f4       __scrt_acquire_startup_lock 00000001800798f4 f   MSVCRT:utility.obj
 0001:00078930       __scrt_dllmain_after_initialize_c 0000000180079930 f   MSVCRT:utility.obj
 0001:00078964       __scrt_dllmain_before_initialize_c 0000000180079964 f   MSVCRT:utility.obj
 0001:0007897c       __scrt_dllmain_crt_thread_attach 000000018007997c f   MSVCRT:utility.obj
 0001:000789a4       __scrt_dllmain_crt_thread_detach 00000001800799a4 f   MSVCRT:utility.obj
 0001:000789bc       __scrt_dllmain_exception_filter 00000001800799bc f   MSVCRT:utility.obj
 0001:00078a1c       __scrt_dllmain_uninitialize_c 0000000180079a1c f   MSVCRT:utility.obj
 0001:00078a4c       __scrt_dllmain_uninitialize_critical 0000000180079a4c f   MSVCRT:utility.obj
 0001:00078a60       __scrt_initialize_crt      0000000180079a60 f   MSVCRT:utility.obj
 0001:00078a9c       __scrt_initialize_onexit_tables 0000000180079a9c f   MSVCRT:utility.obj
 0001:00078b28       __scrt_is_nonwritable_in_current_image 0000000180079b28 f   MSVCRT:utility.obj
 0001:00078bc0       __scrt_release_startup_lock 0000000180079bc0 f   MSVCRT:utility.obj
 0001:00078be4       __scrt_uninitialize_crt    0000000180079be4 f   MSVCRT:utility.obj
 0001:00078c10       _onexit                    0000000180079c10 f   MSVCRT:utility.obj
 0001:00078c4c       atexit                     0000000180079c4c f   MSVCRT:utility.obj
 0001:00078c64       ??2@YAPEAX_KAEBUnothrow_t@std@@@Z 0000000180079c64 f   MSVCRT:new_scalar_nothrow.obj
 0001:00078c78       ??3@YAXPEAX@Z              0000000180079c78 f   MSVCRT:delete_scalar.obj
 0001:00078f90       _DllMainCRTStartup         0000000180079f90 f   MSVCRT:dll_dllmain.obj
 0001:00078fd0       __GSHandlerCheck           0000000180079fd0 f   MSVCRT:gshandler.obj
 0001:00078ff0       __GSHandlerCheckCommon     0000000180079ff0 f   MSVCRT:gshandler.obj
 0001:00079060       __security_check_cookie    000000018007a060 f   MSVCRT:amdsecgs.obj
 0001:00079080       __isa_available_init       000000018007a080 f   MSVCRT:cpu_disp.obj
 0001:0007934c       ??0bad_alloc@std@@QEAA@XZ  000000018007a34c f i MSVCRT:throw_bad_alloc.obj
 0001:0007936c       ?__scrt_throw_std_bad_alloc@@YAXXZ 000000018007a36c f   MSVCRT:throw_bad_alloc.obj
 0001:00079390       _get_startup_argv_mode     000000018007a390 f   MSVCRT:argv_mode.obj
 0001:00079398       __scrt_is_ucrt_dll_in_use  000000018007a398 f   MSVCRT:ucrt_detection.obj
 0001:000793a4       __crt_debugger_hook        000000018007a3a4 f   MSVCRT:utility_desktop.obj
 0001:000793ac       __scrt_fastfail            000000018007a3ac f   MSVCRT:utility_desktop.obj
 0001:000794f4       __security_init_cookie     000000018007a4f4 f   MSVCRT:gs_support.obj
 0001:000795a0       ?__scrt_initialize_type_info@@YAXXZ 000000018007a5a0 f   MSVCRT:tncleanup.obj
 0001:000795b0       ?__scrt_uninitialize_type_info@@YAXXZ 000000018007a5b0 f   MSVCRT:tncleanup.obj
 0001:000795bc       __scrt_initialize_default_local_stdio_options 000000018007a5bc f   MSVCRT:default_local_stdio_options.obj
 0001:000795d8       __scrt_get_dyn_tls_init_callback 000000018007a5d8 f   MSVCRT:dyn_tls_init.obj
 0001:000795e0       _RTC_Initialize            000000018007a5e0 f   MSVCRT:initsect.obj
 0001:0007961c       _RTC_Terminate             000000018007a61c f   MSVCRT:initsect.obj
 0001:00079660       __raise_securityfailure    000000018007a660 f   MSVCRT:gs_report.obj
 0001:00079694       __report_gsfailure         000000018007a694 f   MSVCRT:gs_report.obj
 0001:00079768       __report_rangecheckfailure 000000018007a768 f   MSVCRT:gs_report.obj
 0001:0007977c       __report_securityfailure   000000018007a77c f   MSVCRT:gs_report.obj
 0001:00079900       ??0CAtlBaseModule@ATL@@QEAA@XZ 000000018007a900 f   atls:atlbase.obj
 0001:000799a8       ??1CAtlBaseModule@ATL@@QEAA@XZ 000000018007a9a8 f   atls:atlbase.obj
 0001:000799dc       ?GetHInstanceAt@CAtlBaseModule@ATL@@QEAAPEAUHINSTANCE__@@H@Z 000000018007a9dc f   atls:atlbase.obj
 0001:00079a50       FT_Add_Default_Modules     000000018007aa50 f   freetype:ftinit.obj
 0001:0007a000       FT_Activate_Size           000000018007b000 f   freetype:ftbase.obj
 0001:0007a030       FT_Add_Module              000000018007b030 f   freetype:ftbase.obj
 0001:0007a380       FT_CMap_New                000000018007b380 f   freetype:ftbase.obj
 0001:0007a520       FT_DivFix                  000000018007b520 f   freetype:ftbase.obj
 0001:0007a590       FT_Done_Face               000000018007b590 f   freetype:ftbase.obj
 0001:0007a670       FT_Done_GlyphSlot          000000018007b670 f   freetype:ftbase.obj
 0001:0007a700       FT_Done_Library            000000018007b700 f   freetype:ftbase.obj
 0001:0007a8a0       FT_Done_Size               000000018007b8a0 f   freetype:ftbase.obj
 0001:0007a9c0       FT_Get_Advance             000000018007b9c0 f   freetype:ftbase.obj
 0001:0007ab90       FT_Get_Char_Index          000000018007bb90 f   freetype:ftbase.obj
 0001:0007abe0       FT_Get_Glyph_Name          000000018007bbe0 f   freetype:ftbase.obj
 0001:0007acc0       FT_Get_Module              000000018007bcc0 f   freetype:ftbase.obj
 0001:0007ad50       FT_Get_Module_Interface    000000018007bd50 f   freetype:ftbase.obj
 0001:0007ade0       FT_Get_Next_Char           000000018007bde0 f   freetype:ftbase.obj
 0001:0007ae60       FT_GlyphLoader_Add         000000018007be60 f   freetype:ftbase.obj
 0001:0007b050       FT_GlyphLoader_CheckPoints 000000018007c050 f   freetype:ftbase.obj
 0001:0007b530       FT_GlyphLoader_CheckSubGlyphs 000000018007c530 f   freetype:ftbase.obj
 0001:0007b6c0       FT_GlyphLoader_CreateExtra 000000018007c6c0 f   freetype:ftbase.obj
 0001:0007b7b0       FT_GlyphLoader_Done        000000018007c7b0 f   freetype:ftbase.obj
 0001:0007b7e0       FT_GlyphLoader_Prepare     000000018007c7e0 f   freetype:ftbase.obj
 0001:0007b830       FT_GlyphLoader_Reset       000000018007c830 f   freetype:ftbase.obj
 0001:0007b910       FT_GlyphLoader_Rewind      000000018007c910 f   freetype:ftbase.obj
 0001:0007b950       FT_Hypot                   000000018007c950 f   freetype:ftbase.obj
 0001:0007ba40       FT_List_Add                000000018007ca40 f   freetype:ftbase.obj
 0001:0007ba70       FT_List_Finalize           000000018007ca70 f   freetype:ftbase.obj
 0001:0007baf0       FT_List_Find               000000018007caf0 f   freetype:ftbase.obj
 0001:0007bb20       FT_List_Iterate            000000018007cb20 f   freetype:ftbase.obj
 0001:0007bb90       FT_Load_Glyph              000000018007cb90 f   freetype:ftbase.obj
 0001:0007c390       FT_Match_Size              000000018007d390 f   freetype:ftbase.obj
 0001:0007c4e0       FT_Matrix_Check            000000018007d4e0 f   freetype:ftbase.obj
 0001:0007c680       FT_Matrix_Invert           000000018007d680 f   freetype:ftbase.obj
 0001:0007c740       FT_Matrix_Multiply         000000018007d740 f   freetype:ftbase.obj
 0001:0007c8a0       FT_Matrix_Multiply_Scaled  000000018007d8a0 f   freetype:ftbase.obj
 0001:0007c9d0       FT_MulDiv                  000000018007d9d0 f   freetype:ftbase.obj
 0001:0007ca70       FT_MulDiv_No_Round         000000018007da70 f   freetype:ftbase.obj
 0001:0007cb00       FT_MulFix                  000000018007db00 f   freetype:ftbase.obj
 0001:0007cb20       FT_New_GlyphSlot           000000018007db20 f   freetype:ftbase.obj
 0001:0007cd30       FT_New_Library             000000018007dd30 f   freetype:ftbase.obj
 0001:0007cdd0       FT_New_Memory_Face         000000018007ddd0 f   freetype:ftbase.obj
 0001:0007ce20       FT_New_Size                000000018007de20 f   freetype:ftbase.obj
 0001:0007cff0       FT_Open_Face               000000018007dff0 f   freetype:ftbase.obj
 0001:0007d010       FT_Outline_Decompose       000000018007e010 f   freetype:ftbase.obj
 0001:0007d3b0       FT_Outline_EmboldenXY      000000018007e3b0 f   freetype:ftbase.obj
 0001:0007d8b0       FT_Outline_Get_CBox        000000018007e8b0 f   freetype:ftbase.obj
 0001:0007d960       FT_Outline_Get_Orientation 000000018007e960 f   freetype:ftbase.obj
 0001:0007db20       FT_Outline_Transform       000000018007eb20 f   freetype:ftbase.obj
 0001:0007dc10       FT_Outline_Translate       000000018007ec10 f   freetype:ftbase.obj
 0001:0007dc50       FT_Raccess_Get_DataOffsets 000000018007ec50 f   freetype:ftbase.obj
 0001:0007e180       FT_Raccess_Get_HeaderInfo  000000018007f180 f   freetype:ftbase.obj
 0001:0007e5d0       FT_Render_Glyph            000000018007f5d0 f   freetype:ftbase.obj
 0001:0007e600       FT_Render_Glyph_Internal   000000018007f600 f   freetype:ftbase.obj
 0001:0007e860       FT_Request_Metrics         000000018007f860 f   freetype:ftbase.obj
 0001:0007eb90       FT_Request_Size            000000018007fb90 f   freetype:ftbase.obj
 0001:0007ee50       FT_RoundFix                000000018007fe50 f   freetype:ftbase.obj
 0001:0007ee70       FT_Select_Charmap          000000018007fe70 f   freetype:ftbase.obj
 0001:0007eee0       FT_Select_Metrics          000000018007fee0 f   freetype:ftbase.obj
 0001:0007efa0       FT_Select_Size             000000018007ffa0 f   freetype:ftbase.obj
 0001:0007f0e0       FT_Set_Charmap             00000001800800e0 f   freetype:ftbase.obj
 0001:0007f1c0       FT_Stream_Close            00000001800801c0 f   freetype:ftbase.obj
 0001:0007f1e0       FT_Stream_EnterFrame       00000001800801e0 f   freetype:ftbase.obj
 0001:0007f300       FT_Stream_ExitFrame        0000000180080300 f   freetype:ftbase.obj
 0001:0007f350       FT_Stream_ExtractFrame     0000000180080350 f   freetype:ftbase.obj
 0001:0007f390       FT_Stream_Free             0000000180080390 f   freetype:ftbase.obj
 0001:0007f3e0       FT_Stream_GetByte          00000001800803e0 f   freetype:ftbase.obj
 0001:0007f400       FT_Stream_GetULong         0000000180080400 f   freetype:ftbase.obj
 0001:0007f450       FT_Stream_GetULongLE       0000000180080450 f   freetype:ftbase.obj
 0001:0007f4a0       FT_Stream_GetUShort        00000001800804a0 f   freetype:ftbase.obj
 0001:0007f4e0       FT_Stream_GetUShortLE      00000001800804e0 f   freetype:ftbase.obj
 0001:0007f520       FT_Stream_New              0000000180080520 f   freetype:ftbase.obj
 0001:0007f690       FT_Stream_OpenMemory       0000000180080690 f   freetype:ftbase.obj
 0001:0007f6b0       FT_Stream_Pos              00000001800806b0 f   freetype:ftbase.obj
 0001:0007f6c0       FT_Stream_Read             00000001800806c0 f   freetype:ftbase.obj
 0001:0007f740       FT_Stream_ReadAt           0000000180080740 f   freetype:ftbase.obj
 0001:0007f7c0       FT_Stream_ReadByte         00000001800807c0 f   freetype:ftbase.obj
 0001:0007f830       FT_Stream_ReadFields       0000000180080830 f   freetype:ftbase.obj
 0001:0007fae0       FT_Stream_ReadULong        0000000180080ae0 f   freetype:ftbase.obj
 0001:0007fb90       FT_Stream_ReadULongLE      0000000180080b90 f   freetype:ftbase.obj
 0001:0007fc40       FT_Stream_ReadUOffset      0000000180080c40 f   freetype:ftbase.obj
 0001:0007fcd0       FT_Stream_ReadUShort       0000000180080cd0 f   freetype:ftbase.obj
 0001:0007fd70       FT_Stream_ReadUShortLE     0000000180080d70 f   freetype:ftbase.obj
 0001:0007fe10       FT_Stream_ReleaseFrame     0000000180080e10 f   freetype:ftbase.obj
 0001:0007fe60       FT_Stream_Seek             0000000180080e60 f   freetype:ftbase.obj
 0001:0007fed0       FT_Stream_Skip             0000000180080ed0 f   freetype:ftbase.obj
 0001:0007fef0       FT_Stream_TryRead          0000000180080ef0 f   freetype:ftbase.obj
 0001:0007ff70       FT_Vector_Length           0000000180080f70 f   freetype:ftbase.obj
 0001:00080070       FT_Vector_NormLen          0000000180081070 f   freetype:ftbase.obj
 0001:00080240       FT_Vector_Transform        0000000180081240 f   freetype:ftbase.obj
 0001:000802f0       FT_Vector_Transform_Scaled 00000001800812f0 f   freetype:ftbase.obj
 0001:000810b0       ft_corner_is_flat          00000001800820b0 f   freetype:ftbase.obj
 0001:00081170       ft_corner_orientation      0000000180082170 f   freetype:ftbase.obj
 0001:000811a0       ft_glyphslot_alloc_bitmap  00000001800821a0 f   freetype:ftbase.obj
 0001:00081380       ft_glyphslot_free_bitmap   0000000180082380 f   freetype:ftbase.obj
 0001:000813e0       ft_glyphslot_preset_bitmap 00000001800823e0 f   freetype:ftbase.obj
 0001:00081790       ft_glyphslot_set_bitmap    0000000180082790 f   freetype:ftbase.obj
 0001:00081810       ft_hash_num_init           0000000180082810 f   freetype:ftbase.obj
 0001:00081890       ft_hash_num_insert         0000000180082890 f   freetype:ftbase.obj
 0001:000818b0       ft_hash_num_lookup         00000001800828b0 f   freetype:ftbase.obj
 0001:000818e0       ft_hash_str_free           00000001800828e0 f   freetype:ftbase.obj
 0001:00081960       ft_hash_str_init           0000000180082960 f   freetype:ftbase.obj
 0001:000819e0       ft_hash_str_insert         00000001800829e0 f   freetype:ftbase.obj
 0001:000819f0       ft_hash_str_lookup         00000001800829f0 f   freetype:ftbase.obj
 0001:00081a10       ft_lcd_padding             0000000180082a10 f   freetype:ftbase.obj
 0001:00081e40       ft_mem_alloc               0000000180082e40 f   freetype:ftbase.obj
 0001:00081ec0       ft_mem_free                0000000180082ec0 f   freetype:ftbase.obj
 0001:00081ed0       ft_mem_qalloc              0000000180082ed0 f   freetype:ftbase.obj
 0001:00081f20       ft_mem_qrealloc            0000000180082f20 f   freetype:ftbase.obj
 0001:00081fd0       ft_mem_realloc             0000000180082fd0 f   freetype:ftbase.obj
 0001:000820c0       ft_mem_strcpyn             00000001800830c0 f   freetype:ftbase.obj
 0001:000820f0       ft_mem_strdup              00000001800830f0 f   freetype:ftbase.obj
 0001:000821a0       ft_module_get_service      00000001800831a0 f   freetype:ftbase.obj
 0001:00082d90       ft_service_list_lookup     0000000180083d90 f   freetype:ftbase.obj
 0001:00082df0       ft_synthesize_vertical_metrics 0000000180083df0 f   freetype:ftbase.obj
 0001:00082f60       ft_validator_error         0000000180083f60 f   freetype:ftbase.obj
 0001:00082f80       ft_validator_init          0000000180083f80 f   freetype:ftbase.obj
 0001:00083ac0       ps_property_get            0000000180084ac0 f   freetype:ftbase.obj
 0001:00083ba0       ps_property_set            0000000180084ba0 f   freetype:ftbase.obj
 0001:000842d0       FT_GlyphSlot_Embolden      00000001800852d0 f   freetype:ftsynth.obj
 0001:000843d0       FT_GlyphSlot_Oblique       00000001800853d0 f   freetype:ftsynth.obj
 0001:0008c2e0       af_shaper_get_cluster      000000018008d2e0 f   freetype:autofit.obj
 0001:00092c60       TT_RunIns                  0000000180093c60 f   freetype:truetype.obj
 0001:000b7240       sprintf                    00000001800b8240 f i freetype:bdf.obj
 0001:000c55e0       ps_hints_apply             00000001800c65e0 f   freetype:pshinter.obj
 0001:000de060       FT_Stream_Open             00000001800df060 f   freetype:ftsystem.obj
 0001:000de280       FT_Bitmap_Convert          00000001800df280 f   freetype:ftbitmap.obj
 0001:000de740       FT_Bitmap_Copy             00000001800df740 f   freetype:ftbitmap.obj
 0001:000de910       FT_Bitmap_Done             00000001800df910 f   freetype:ftbitmap.obj
 0001:000de970       FT_Bitmap_Embolden         00000001800df970 f   freetype:ftbitmap.obj
 0001:000decc0       FT_Bitmap_Init             00000001800dfcc0 f   freetype:ftbitmap.obj
 0001:000decc0       FT_Bitmap_New              00000001800dfcc0 f   freetype:ftbitmap.obj
 0001:000decf0       FT_GlyphSlot_Own_Bitmap    00000001800dfcf0 f   freetype:ftbitmap.obj
 0001:000df060       FT_Gzip_Uncompress         00000001800e0060 f   freetype:ftgzip.obj
 0001:000df2f0       FT_Stream_OpenGzip         00000001800e02f0 f   freetype:ftgzip.obj
 0001:000df500       adler32_z                  00000001800e0500 f   freetype:ftgzip.obj
 0001:000df7e0       crc32_z                    00000001800e07e0 f   freetype:ftgzip.obj
 0001:000e00f0       inflate                    00000001800e10f0 f   freetype:ftgzip.obj
 0001:000e19d0       inflateReset               00000001800e29d0 f   freetype:ftgzip.obj
 0001:000e1ae0       inflate_fast               00000001800e2ae0 f   freetype:ftgzip.obj
 0001:000e1fe0       inflate_table              00000001800e2fe0 f   freetype:ftgzip.obj
 0001:000e26c0       FT_Stream_OpenLZW          00000001800e36c0 f   freetype:ftlzw.obj
 0001:000e3080       ft_lzwstate_io             00000001800e4080 f   freetype:ftlzw.obj
 0001:000e34d0       __chkstk                   00000001800e44d0 f   libcmt:chkstk.obj
 0001:000e34d0       _alloca_probe              00000001800e44d0 f   libcmt:chkstk.obj
 0001:000e351e       strstr                     00000001800e451e f   vcruntime:VCRUNTIME140.dll
 0001:000e3524       __CxxFrameHandler4         00000001800e4524 f   vcruntime:VCRUNTIME140_1.dll
 0001:000e352a       memchr                     00000001800e452a f   vcruntime:VCRUNTIME140.dll
 0001:000e3530       memcpy                     00000001800e4530 f   vcruntime:VCRUNTIME140.dll
 0001:000e3536       __C_specific_handler       00000001800e4536 f   vcruntime:VCRUNTIME140.dll
 0001:000e353c       _CxxThrowException         00000001800e453c f   vcruntime:VCRUNTIME140.dll
 0001:000e3542       memset                     00000001800e4542 f   vcruntime:VCRUNTIME140.dll
 0001:000e3548       __std_type_info_destroy_list 00000001800e4548 f   vcruntime:VCRUNTIME140.dll
 0001:000e354e       memmove                    00000001800e454e f   vcruntime:VCRUNTIME140.dll
 0001:000e3554       strrchr                    00000001800e4554 f   vcruntime:VCRUNTIME140.dll
 0001:000e355a       longjmp                    00000001800e455a f   vcruntime:VCRUNTIME140.dll
 0001:000e3560       memcmp                     00000001800e4560 f   vcruntime:VCRUNTIME140.dll
 0001:000e3566       __intrinsic_setjmp         00000001800e4566 f   vcruntime:VCRUNTIME140.dll
 0001:000e3566       _setjmp                    00000001800e4566 f   vcruntime:VCRUNTIME140.dll
 0001:000e356c       free                       00000001800e456c f   ucrt:api-ms-win-crt-heap-l1-1-0.dll
 0001:000e3572       malloc                     00000001800e4572 f   ucrt:api-ms-win-crt-heap-l1-1-0.dll
 0001:000e3578       __stdio_common_vsprintf    00000001800e4578 f   ucrt:api-ms-win-crt-stdio-l1-1-0.dll
 0001:000e357e       qsort                      00000001800e457e f   ucrt:api-ms-win-crt-utility-l1-1-0.dll
 0001:000e3584       strncpy                    00000001800e4584 f   ucrt:api-ms-win-crt-string-l1-1-0.dll
 0001:000e358a       strncmp                    00000001800e458a f   ucrt:api-ms-win-crt-string-l1-1-0.dll
 0001:000e3590       _callnewh                  00000001800e4590 f   ucrt:api-ms-win-crt-heap-l1-1-0.dll
 0001:000e3596       _seh_filter_dll            00000001800e4596 f   ucrt:api-ms-win-crt-runtime-l1-1-0.dll
 0001:000e359c       _configure_narrow_argv     00000001800e459c f   ucrt:api-ms-win-crt-runtime-l1-1-0.dll
 0001:000e35a2       _initialize_narrow_environment 00000001800e45a2 f   ucrt:api-ms-win-crt-runtime-l1-1-0.dll
 0001:000e35a8       _initialize_onexit_table   00000001800e45a8 f   ucrt:api-ms-win-crt-runtime-l1-1-0.dll
 0001:000e35ae       _register_onexit_function  00000001800e45ae f   ucrt:api-ms-win-crt-runtime-l1-1-0.dll
 0001:000e35b4       _execute_onexit_table      00000001800e45b4 f   ucrt:api-ms-win-crt-runtime-l1-1-0.dll
 0001:000e35ba       _crt_atexit                00000001800e45ba f   ucrt:api-ms-win-crt-runtime-l1-1-0.dll
 0001:000e35c0       _cexit                     00000001800e45c0 f   ucrt:api-ms-win-crt-runtime-l1-1-0.dll
 0001:000e35c6       _initterm                  00000001800e45c6 f   ucrt:api-ms-win-crt-runtime-l1-1-0.dll
 0001:000e35cc       _initterm_e                00000001800e45cc f   ucrt:api-ms-win-crt-runtime-l1-1-0.dll
 0001:000e35d2       strtol                     00000001800e45d2 f   ucrt:api-ms-win-crt-convert-l1-1-0.dll
 0001:000e35d8       strcmp                     00000001800e45d8 f   ucrt:api-ms-win-crt-string-l1-1-0.dll
 0001:000e35e0       __acrt_initialize          00000001800e45e0 f   MSVCRT:ucrt_stubs.obj
 0001:000e35e0       __acrt_thread_attach       00000001800e45e0 f   MSVCRT:ucrt_stubs.obj
 0001:000e35e0       __acrt_thread_detach       00000001800e45e0 f   MSVCRT:ucrt_stubs.obj
 0001:000e35e0       __acrt_uninitialize        00000001800e45e0 f   MSVCRT:ucrt_stubs.obj
 0001:000e35e0       __acrt_uninitialize_critical 00000001800e45e0 f   MSVCRT:ucrt_stubs.obj
 0001:000e35e0       __scrt_stub_for_acrt_initialize 00000001800e45e0 f   MSVCRT:ucrt_stubs.obj
 0001:000e35e0       __scrt_stub_for_acrt_thread_attach 00000001800e45e0 f   MSVCRT:ucrt_stubs.obj
 0001:000e35e0       __scrt_stub_for_acrt_thread_detach 00000001800e45e0 f   MSVCRT:ucrt_stubs.obj
 0001:000e35e0       __scrt_stub_for_acrt_uninitialize 00000001800e45e0 f   MSVCRT:ucrt_stubs.obj
 0001:000e35e0       __scrt_stub_for_acrt_uninitialize_critical 00000001800e45e0 f   MSVCRT:ucrt_stubs.obj
 0001:000e35e0       __vcrt_initialize          00000001800e45e0 f   MSVCRT:ucrt_stubs.obj
 0001:000e35e0       __vcrt_thread_attach       00000001800e45e0 f   MSVCRT:ucrt_stubs.obj
 0001:000e35e0       __vcrt_thread_detach       00000001800e45e0 f   MSVCRT:ucrt_stubs.obj
 0001:000e35e0       __vcrt_uninitialize        00000001800e45e0 f   MSVCRT:ucrt_stubs.obj
 0001:000e35e0       __vcrt_uninitialize_critical 00000001800e45e0 f   MSVCRT:ucrt_stubs.obj
 0001:000e35f0       __vdecl_sinf4              00000001800e45f0 f   MSVCRT:svml_ssinf4_dispatch.obj
 0001:000e3610       __libm_sse2_sincosf_       00000001800e4610 f   MSVCRT:svml_ssinf4_dispatch.obj
 0001:000e3653       __libm_sse2_sincosf4_      00000001800e4653 f   MSVCRT:svml_ssinf4_dispatch.obj
 0001:000e3660       __sse2_sinf4@@16           00000001800e4660 f   MSVCRT:svml_ssinf4_sse2.obj
 0001:000e3fa0       __sse4_sinf4@@16           00000001800e4fa0 f   MSVCRT:svml_ssinf4_sse4.obj
 0001:000e4720       __common_ssin_cout_rare    00000001800e5720 f   MSVCRT:svml_s_sin_cout.obj
 0001:000e4790       acosf                      00000001800e5790 f   ucrt:api-ms-win-crt-math-l1-1-0.dll
 0001:000e4796       asinf                      00000001800e5796 f   ucrt:api-ms-win-crt-math-l1-1-0.dll
 0001:000e479c       atan2f                     00000001800e579c f   ucrt:api-ms-win-crt-math-l1-1-0.dll
 0001:000e47a2       fmodf                      00000001800e57a2 f   ucrt:api-ms-win-crt-math-l1-1-0.dll
 0001:000e47a8       powf                       00000001800e57a8 f   ucrt:api-ms-win-crt-math-l1-1-0.dll
 0001:000e47c0       _guard_dispatch_icall_nop  00000001800e57c0 f   MSVCRT:guard_dispatch.obj
 0001:000e47e0       _guard_xfg_dispatch_icall_nop 00000001800e57e0 f   MSVCRT:guard_xfg_dispatch.obj
 0001:000e4b48       ??__FstrMgr@?1??GetInstance@CAtlStringMgr@ATL@@SAPEAUIAtlStringMgr@2@XZ@YAXXZ 00000001800e5b48 f i main.obj
 0001:000e4b58       ??__FstrHeap@?1??GetInstance@CAtlStringMgr@ATL@@SAPEAUIAtlStringMgr@2@XZ@YAXXZ 00000001800e5b58 f i main.obj
 0001:000e4cec       ??__Finst@?1??get@?$singleton@Vhitmarker@@@@SAAEAVhitmarker@@XZ@YAXXZ 00000001800e5cec f i main.obj
 0002:00000000       __imp_GetUserNameA         00000001800e7000     advapi32:ADVAPI32.dll
 0002:00000008       __imp_RegSetValueExW       00000001800e7008     advapi32:ADVAPI32.dll
 0002:00000010       __imp_RegCreateKeyExW      00000001800e7010     advapi32:ADVAPI32.dll
 0002:00000018       __imp_RegCloseKey          00000001800e7018     advapi32:ADVAPI32.dll
 0002:00000020       \177ADVAPI32_NULL_THUNK_DATA 00000001800e7020     advapi32:ADVAPI32.dll
 0002:00000028       __imp_D3DCompile           00000001800e7028     d3dcompiler:D3DCOMPILER_43.dll
 0002:00000030       \177D3DCOMPILER_43_NULL_THUNK_DATA 00000001800e7030     d3dcompiler:D3DCOMPILER_43.dll
 0002:00000038       __imp_ImmGetContext        00000001800e7038     imm32:IMM32.dll
 0002:00000040       __imp_ImmSetCompositionWindow 00000001800e7040     imm32:IMM32.dll
 0002:00000048       __imp_ImmReleaseContext    00000001800e7048     imm32:IMM32.dll
 0002:00000050       __imp_ImmSetCandidateWindow 00000001800e7050     imm32:IMM32.dll
 0002:00000058       \177IMM32_NULL_THUNK_DATA  00000001800e7058     imm32:IMM32.dll
 0002:00000060       __imp_HeapReAlloc          00000001800e7060     kernel32:KERNEL32.dll
 0002:00000068       __imp_RaiseException       00000001800e7068     kernel32:KERNEL32.dll
 0002:00000070       __imp_WritePrivateProfileStringA 00000001800e7070     kernel32:KERNEL32.dll
 0002:00000078       __imp_CreateThread         00000001800e7078     kernel32:KERNEL32.dll
 0002:00000080       __imp_FindResourceExW      00000001800e7080     kernel32:KERNEL32.dll
 0002:00000088       __imp_LoadResource         00000001800e7088     kernel32:KERNEL32.dll
 0002:00000090       __imp_FindResourceW        00000001800e7090     kernel32:KERNEL32.dll
 0002:00000098       __imp_HeapAlloc            00000001800e7098     kernel32:KERNEL32.dll
 0002:000000a0       __imp_HeapDestroy          00000001800e70a0     kernel32:KERNEL32.dll
 0002:000000a8       __imp_Beep                 00000001800e70a8     kernel32:KERNEL32.dll
 0002:000000b0       __imp_GetProcAddress       00000001800e70b0     kernel32:KERNEL32.dll
 0002:000000b8       __imp_DeleteCriticalSection 00000001800e70b8     kernel32:KERNEL32.dll
 0002:000000c0       __imp_GetProcessHeap       00000001800e70c0     kernel32:KERNEL32.dll
 0002:000000c8       __imp_WideCharToMultiByte  00000001800e70c8     kernel32:KERNEL32.dll
 0002:000000d0       __imp_CreateDirectoryA     00000001800e70d0     kernel32:KERNEL32.dll
 0002:000000d8       __imp_GetPrivateProfileStringA 00000001800e70d8     kernel32:KERNEL32.dll
 0002:000000e0       __imp_GlobalAlloc          00000001800e70e0     kernel32:KERNEL32.dll
 0002:000000e8       __imp_GlobalFree           00000001800e70e8     kernel32:KERNEL32.dll
 0002:000000f0       __imp_GlobalLock           00000001800e70f0     kernel32:KERNEL32.dll
 0002:000000f8       __imp_GlobalUnlock         00000001800e70f8     kernel32:KERNEL32.dll
 0002:00000100       __imp_LoadLibraryA         00000001800e7100     kernel32:KERNEL32.dll
 0002:00000108       __imp_QueryPerformanceFrequency 00000001800e7108     kernel32:KERNEL32.dll
 0002:00000110       __imp_QueryPerformanceCounter 00000001800e7110     kernel32:KERNEL32.dll
 0002:00000118       __imp_VirtualFree          00000001800e7118     kernel32:KERNEL32.dll
 0002:00000120       __imp_VirtualAlloc         00000001800e7120     kernel32:KERNEL32.dll
 0002:00000128       __imp_GetSystemInfo        00000001800e7128     kernel32:KERNEL32.dll
 0002:00000130       __imp_VirtualQuery         00000001800e7130     kernel32:KERNEL32.dll
 0002:00000138       __imp_HeapCreate           00000001800e7138     kernel32:KERNEL32.dll
 0002:00000140       __imp_VirtualProtect       00000001800e7140     kernel32:KERNEL32.dll
 0002:00000148       __imp_GetCurrentProcess    00000001800e7148     kernel32:KERNEL32.dll
 0002:00000150       __imp_Thread32Next         00000001800e7150     kernel32:KERNEL32.dll
 0002:00000158       __imp_Thread32First        00000001800e7158     kernel32:KERNEL32.dll
 0002:00000160       __imp_GetCurrentThreadId   00000001800e7160     kernel32:KERNEL32.dll
 0002:00000168       __imp_SuspendThread        00000001800e7168     kernel32:KERNEL32.dll
 0002:00000170       __imp_ResumeThread         00000001800e7170     kernel32:KERNEL32.dll
 0002:00000178       __imp_CreateToolhelp32Snapshot 00000001800e7178     kernel32:KERNEL32.dll
 0002:00000180       __imp_Sleep                00000001800e7180     kernel32:KERNEL32.dll
 0002:00000188       __imp_GetThreadContext     00000001800e7188     kernel32:KERNEL32.dll
 0002:00000190       __imp_HeapSize             00000001800e7190     kernel32:KERNEL32.dll
 0002:00000198       __imp_FlushInstructionCache 00000001800e7198     kernel32:KERNEL32.dll
 0002:000001a0       __imp_SetThreadContext     00000001800e71a0     kernel32:KERNEL32.dll
 0002:000001a8       __imp_OpenThread           00000001800e71a8     kernel32:KERNEL32.dll
 0002:000001b0       __imp_CreateFileMappingA   00000001800e71b0     kernel32:KERNEL32.dll
 0002:000001b8       __imp_UnmapViewOfFile      00000001800e71b8     kernel32:KERNEL32.dll
 0002:000001c0       __imp_MapViewOfFile        00000001800e71c0     kernel32:KERNEL32.dll
 0002:000001c8       __imp_GetFileSizeEx        00000001800e71c8     kernel32:KERNEL32.dll
 0002:000001d0       __imp_CreateFileA          00000001800e71d0     kernel32:KERNEL32.dll
 0002:000001d8       __imp_LeaveCriticalSection 00000001800e71d8     kernel32:KERNEL32.dll
 0002:000001e0       __imp_EnterCriticalSection 00000001800e71e0     kernel32:KERNEL32.dll
 0002:000001e8       __imp_OutputDebugStringW   00000001800e71e8     kernel32:KERNEL32.dll
 0002:000001f0       __imp_TerminateProcess     00000001800e71f0     kernel32:KERNEL32.dll
 0002:000001f8       __imp_InitializeSListHead  00000001800e71f8     kernel32:KERNEL32.dll
 0002:00000200       __imp_GetSystemTimeAsFileTime 00000001800e7200     kernel32:KERNEL32.dll
 0002:00000208       __imp_IsProcessorFeaturePresent 00000001800e7208     kernel32:KERNEL32.dll
 0002:00000210       __imp_SetUnhandledExceptionFilter 00000001800e7210     kernel32:KERNEL32.dll
 0002:00000218       __imp_UnhandledExceptionFilter 00000001800e7218     kernel32:KERNEL32.dll
 0002:00000220       __imp_IsDebuggerPresent    00000001800e7220     kernel32:KERNEL32.dll
 0002:00000228       __imp_WakeAllConditionVariable 00000001800e7228     kernel32:KERNEL32.dll
 0002:00000230       __imp_GetFileInformationByHandleEx 00000001800e7230     kernel32:KERNEL32.dll
 0002:00000238       __imp_AreFileApisANSI      00000001800e7238     kernel32:KERNEL32.dll
 0002:00000240       __imp_GetFileAttributesExW 00000001800e7240     kernel32:KERNEL32.dll
 0002:00000248       __imp_GetModuleHandleA     00000001800e7248     kernel32:KERNEL32.dll
 0002:00000250       __imp_InitializeCriticalSectionEx 00000001800e7250     kernel32:KERNEL32.dll
 0002:00000258       __imp_HeapFree             00000001800e7258     kernel32:KERNEL32.dll
 0002:00000260       __imp_SizeofResource       00000001800e7260     kernel32:KERNEL32.dll
 0002:00000268       __imp_MultiByteToWideChar  00000001800e7268     kernel32:KERNEL32.dll
 0002:00000270       __imp_GetTickCount64       00000001800e7270     kernel32:KERNEL32.dll
 0002:00000278       __imp_GetModuleFileNameW   00000001800e7278     kernel32:KERNEL32.dll
 0002:00000280       __imp_lstrlenW             00000001800e7280     kernel32:KERNEL32.dll
 0002:00000288       __imp_WaitNamedPipeW       00000001800e7288     kernel32:KERNEL32.dll
 0002:00000290       __imp_GetCurrentProcessId  00000001800e7290     kernel32:KERNEL32.dll
 0002:00000298       __imp_CloseHandle          00000001800e7298     kernel32:KERNEL32.dll
 0002:000002a0       __imp_AcquireSRWLockExclusive 00000001800e72a0     kernel32:KERNEL32.dll
 0002:000002a8       __imp_GetLastError         00000001800e72a8     kernel32:KERNEL32.dll
 0002:000002b0       __imp_CreateFileW          00000001800e72b0     kernel32:KERNEL32.dll
 0002:000002b8       __imp_LockResource         00000001800e72b8     kernel32:KERNEL32.dll
 0002:000002c0       __imp_PeekNamedPipe        00000001800e72c0     kernel32:KERNEL32.dll
 0002:000002c8       __imp_WriteFile            00000001800e72c8     kernel32:KERNEL32.dll
 0002:000002d0       __imp_ReadFile             00000001800e72d0     kernel32:KERNEL32.dll
 0002:000002d8       __imp_SleepConditionVariableSRW 00000001800e72d8     kernel32:KERNEL32.dll
 0002:000002e0       __imp_LocalFree            00000001800e72e0     kernel32:KERNEL32.dll
 0002:000002e8       __imp_FormatMessageA       00000001800e72e8     kernel32:KERNEL32.dll
 0002:000002f0       __imp_GetLocaleInfoEx      00000001800e72f0     kernel32:KERNEL32.dll
 0002:000002f8       __imp_CreateDirectoryW     00000001800e72f8     kernel32:KERNEL32.dll
 0002:00000300       __imp_FindClose            00000001800e7300     kernel32:KERNEL32.dll
 0002:00000308       __imp_FindFirstFileW       00000001800e7308     kernel32:KERNEL32.dll
 0002:00000310       __imp_FindFirstFileExW     00000001800e7310     kernel32:KERNEL32.dll
 0002:00000318       __imp_FindNextFileW        00000001800e7318     kernel32:KERNEL32.dll
 0002:00000320       __imp_ReleaseSRWLockExclusive 00000001800e7320     kernel32:KERNEL32.dll
 0002:00000328       \177KERNEL32_NULL_THUNK_DATA 00000001800e7328     kernel32:KERNEL32.dll
 0002:00000330       __imp_?_Random_device@std@@YAIXZ 00000001800e7330     msvcprt:MSVCP140.dll
 0002:00000338       __imp__Cnd_init_in_situ    00000001800e7338     msvcprt:MSVCP140.dll
 0002:00000340       __imp__Query_perf_frequency 00000001800e7340     msvcprt:MSVCP140.dll
 0002:00000348       __imp_?_Throw_Cpp_error@std@@YAXH@Z 00000001800e7348     msvcprt:MSVCP140.dll
 0002:00000350       __imp__Mtx_lock            00000001800e7350     msvcprt:MSVCP140.dll
 0002:00000358       __imp__Cnd_do_broadcast_at_thread_exit 00000001800e7358     msvcprt:MSVCP140.dll
 0002:00000360       __imp__Thrd_id             00000001800e7360     msvcprt:MSVCP140.dll
 0002:00000368       __imp__Query_perf_counter  00000001800e7368     msvcprt:MSVCP140.dll
 0002:00000370       __imp__Xtime_get_ticks     00000001800e7370     msvcprt:MSVCP140.dll
 0002:00000378       __imp__Thrd_join           00000001800e7378     msvcprt:MSVCP140.dll
 0002:00000380       __imp__Mtx_unlock          00000001800e7380     msvcprt:MSVCP140.dll
 0002:00000388       __imp__Cnd_destroy_in_situ 00000001800e7388     msvcprt:MSVCP140.dll
 0002:00000390       __imp_?_Winerror_map@std@@YAHH@Z 00000001800e7390     msvcprt:MSVCP140.dll
 0002:00000398       __imp_?_Syserror_map@std@@YAPEBDH@Z 00000001800e7398     msvcprt:MSVCP140.dll
 0002:000003a0       __imp_?_Xlength_error@std@@YAXPEBD@Z 00000001800e73a0     msvcprt:MSVCP140.dll
 0002:000003a8       __imp_?_Xout_of_range@std@@YAXPEBD@Z 00000001800e73a8     msvcprt:MSVCP140.dll
 0002:000003b0       __imp__Cnd_broadcast       00000001800e73b0     msvcprt:MSVCP140.dll
 0002:000003b8       \177MSVCP140_NULL_THUNK_DATA 00000001800e73b8     msvcprt:MSVCP140.dll
 0002:000003c0       __imp_SetCursorPos         00000001800e73c0     user32:USER32.dll
 0002:000003c8       __imp_OpenClipboard        00000001800e73c8     user32:USER32.dll
 0002:000003d0       __imp_CloseClipboard       00000001800e73d0     user32:USER32.dll
 0002:000003d8       __imp_EmptyClipboard       00000001800e73d8     user32:USER32.dll
 0002:000003e0       __imp_GetClipboardData     00000001800e73e0     user32:USER32.dll
 0002:000003e8       __imp_SetClipboardData     00000001800e73e8     user32:USER32.dll
 0002:000003f0       __imp_ReleaseCapture       00000001800e73f0     user32:USER32.dll
 0002:000003f8       __imp_IsWindowUnicode      00000001800e73f8     user32:USER32.dll
 0002:00000400       __imp_GetClientRect        00000001800e7400     user32:USER32.dll
 0002:00000408       __imp_CallWindowProcW      00000001800e7408     user32:USER32.dll
 0002:00000410       __imp_MessageBoxW          00000001800e7410     user32:USER32.dll
 0002:00000418       __imp_SetWindowLongPtrW    00000001800e7418     user32:USER32.dll
 0002:00000420       __imp_GetSystemMetrics     00000001800e7420     user32:USER32.dll
 0002:00000428       __imp_GetWindowThreadProcessId 00000001800e7428     user32:USER32.dll
 0002:00000430       __imp_GetAsyncKeyState     00000001800e7430     user32:USER32.dll
 0002:00000438       __imp_GetKeyState          00000001800e7438     user32:USER32.dll
 0002:00000440       __imp_GetMessageExtraInfo  00000001800e7440     user32:USER32.dll
 0002:00000448       __imp_ScreenToClient       00000001800e7448     user32:USER32.dll
 0002:00000450       __imp_GetCapture           00000001800e7450     user32:USER32.dll
 0002:00000458       __imp_ClientToScreen       00000001800e7458     user32:USER32.dll
 0002:00000460       __imp_TrackMouseEvent      00000001800e7460     user32:USER32.dll
 0002:00000468       __imp_GetForegroundWindow  00000001800e7468     user32:USER32.dll
 0002:00000470       __imp_LoadCursorW          00000001800e7470     user32:USER32.dll
 0002:00000478       __imp_SetCapture           00000001800e7478     user32:USER32.dll
 0002:00000480       __imp_SetCursor            00000001800e7480     user32:USER32.dll
 0002:00000488       __imp_GetCursorPos         00000001800e7488     user32:USER32.dll
 0002:00000490       __imp_EnumWindows          00000001800e7490     user32:USER32.dll
 0002:00000498       \177USER32_NULL_THUNK_DATA 00000001800e7498     user32:USER32.dll
 0002:000004a0       __imp___intrinsic_setjmp   00000001800e74a0     vcruntime:VCRUNTIME140.dll
 0002:000004a8       __imp_memcmp               00000001800e74a8     vcruntime:VCRUNTIME140.dll
 0002:000004b0       __imp_longjmp              00000001800e74b0     vcruntime:VCRUNTIME140.dll
 0002:000004b8       __imp_strrchr              00000001800e74b8     vcruntime:VCRUNTIME140.dll
 0002:000004c0       __imp_memmove              00000001800e74c0     vcruntime:VCRUNTIME140.dll
 0002:000004c8       __imp___std_type_info_destroy_list 00000001800e74c8     vcruntime:VCRUNTIME140.dll
 0002:000004d0       __imp_memset               00000001800e74d0     vcruntime:VCRUNTIME140.dll
 0002:000004d8       __imp___std_exception_destroy 00000001800e74d8     vcruntime:VCRUNTIME140.dll
 0002:000004e0       __imp_strstr               00000001800e74e0     vcruntime:VCRUNTIME140.dll
 0002:000004e8       __imp__CxxThrowException   00000001800e74e8     vcruntime:VCRUNTIME140.dll
 0002:000004f0       __imp___C_specific_handler 00000001800e74f0     vcruntime:VCRUNTIME140.dll
 0002:000004f8       __imp_memcpy               00000001800e74f8     vcruntime:VCRUNTIME140.dll
 0002:00000500       __imp_memchr               00000001800e7500     vcruntime:VCRUNTIME140.dll
 0002:00000508       __imp___std_exception_copy 00000001800e7508     vcruntime:VCRUNTIME140.dll
 0002:00000510       \177VCRUNTIME140_NULL_THUNK_DATA 00000001800e7510     vcruntime:VCRUNTIME140.dll
 0002:00000518       __imp___CxxFrameHandler4   00000001800e7518     vcruntime:VCRUNTIME140_1.dll
 0002:00000520       \177VCRUNTIME140_1_NULL_THUNK_DATA 00000001800e7520     vcruntime:VCRUNTIME140_1.dll
 0002:00000528       __imp_PlaySoundA           00000001800e7528     winmm:WINMM.dll
 0002:00000530       \177WINMM_NULL_THUNK_DATA  00000001800e7530     winmm:WINMM.dll
 0002:00000538       __imp_strtol               00000001800e7538     ucrt:api-ms-win-crt-convert-l1-1-0.dll
 0002:00000540       __imp_atoi                 00000001800e7540     ucrt:api-ms-win-crt-convert-l1-1-0.dll
 0002:00000548       __imp_atof                 00000001800e7548     ucrt:api-ms-win-crt-convert-l1-1-0.dll
 0002:00000550       \177api-ms-win-crt-convert-l1-1-0_NULL_THUNK_DATA 00000001800e7550     ucrt:api-ms-win-crt-convert-l1-1-0.dll
 0002:00000558       __imp_remove               00000001800e7558     ucrt:api-ms-win-crt-filesystem-l1-1-0.dll
 0002:00000560       \177api-ms-win-crt-filesystem-l1-1-0_NULL_THUNK_DATA 00000001800e7560     ucrt:api-ms-win-crt-filesystem-l1-1-0.dll
 0002:00000568       __imp_malloc               00000001800e7568     ucrt:api-ms-win-crt-heap-l1-1-0.dll
 0002:00000570       __imp_free                 00000001800e7570     ucrt:api-ms-win-crt-heap-l1-1-0.dll
 0002:00000578       __imp__callnewh            00000001800e7578     ucrt:api-ms-win-crt-heap-l1-1-0.dll
 0002:00000580       \177api-ms-win-crt-heap-l1-1-0_NULL_THUNK_DATA 00000001800e7580     ucrt:api-ms-win-crt-heap-l1-1-0.dll
 0002:00000588       __imp____lc_codepage_func  00000001800e7588     ucrt:api-ms-win-crt-locale-l1-1-0.dll
 0002:00000590       \177api-ms-win-crt-locale-l1-1-0_NULL_THUNK_DATA 00000001800e7590     ucrt:api-ms-win-crt-locale-l1-1-0.dll
 0002:00000598       __imp_powf                 00000001800e7598     ucrt:api-ms-win-crt-math-l1-1-0.dll
 0002:000005a0       __imp_acosf                00000001800e75a0     ucrt:api-ms-win-crt-math-l1-1-0.dll
 0002:000005a8       __imp_fmodf                00000001800e75a8     ucrt:api-ms-win-crt-math-l1-1-0.dll
 0002:000005b0       __imp_atan2f               00000001800e75b0     ucrt:api-ms-win-crt-math-l1-1-0.dll
 0002:000005b8       __imp_asinf                00000001800e75b8     ucrt:api-ms-win-crt-math-l1-1-0.dll
 0002:000005c0       \177api-ms-win-crt-math-l1-1-0_NULL_THUNK_DATA 00000001800e75c0     ucrt:api-ms-win-crt-math-l1-1-0.dll
 0002:000005c8       __imp__invalid_parameter_noinfo 00000001800e75c8     ucrt:api-ms-win-crt-runtime-l1-1-0.dll
 0002:000005d0       __imp_system               00000001800e75d0     ucrt:api-ms-win-crt-runtime-l1-1-0.dll
 0002:000005d8       __imp__errno               00000001800e75d8     ucrt:api-ms-win-crt-runtime-l1-1-0.dll
 0002:000005e0       __imp__beginthreadex       00000001800e75e0     ucrt:api-ms-win-crt-runtime-l1-1-0.dll
 0002:000005e8       __imp_abort                00000001800e75e8     ucrt:api-ms-win-crt-runtime-l1-1-0.dll
 0002:000005f0       __imp__seh_filter_dll      00000001800e75f0     ucrt:api-ms-win-crt-runtime-l1-1-0.dll
 0002:000005f8       __imp__configure_narrow_argv 00000001800e75f8     ucrt:api-ms-win-crt-runtime-l1-1-0.dll
 0002:00000600       __imp__initialize_narrow_environment 00000001800e7600     ucrt:api-ms-win-crt-runtime-l1-1-0.dll
 0002:00000608       __imp__initialize_onexit_table 00000001800e7608     ucrt:api-ms-win-crt-runtime-l1-1-0.dll
 0002:00000610       __imp__register_onexit_function 00000001800e7610     ucrt:api-ms-win-crt-runtime-l1-1-0.dll
 0002:00000618       __imp__execute_onexit_table 00000001800e7618     ucrt:api-ms-win-crt-runtime-l1-1-0.dll
 0002:00000620       __imp__crt_atexit          00000001800e7620     ucrt:api-ms-win-crt-runtime-l1-1-0.dll
 0002:00000628       __imp_terminate            00000001800e7628     ucrt:api-ms-win-crt-runtime-l1-1-0.dll
 0002:00000630       __imp__invalid_parameter_noinfo_noreturn 00000001800e7630     ucrt:api-ms-win-crt-runtime-l1-1-0.dll
 0002:00000638       __imp__cexit               00000001800e7638     ucrt:api-ms-win-crt-runtime-l1-1-0.dll
 0002:00000640       __imp__initterm            00000001800e7640     ucrt:api-ms-win-crt-runtime-l1-1-0.dll
 0002:00000648       __imp__initterm_e          00000001800e7648     ucrt:api-ms-win-crt-runtime-l1-1-0.dll
 0002:00000650       \177api-ms-win-crt-runtime-l1-1-0_NULL_THUNK_DATA 00000001800e7650     ucrt:api-ms-win-crt-runtime-l1-1-0.dll
 0002:00000658       __imp___acrt_iob_func      00000001800e7658     ucrt:api-ms-win-crt-stdio-l1-1-0.dll
 0002:00000660       __imp___stdio_common_vfprintf 00000001800e7660     ucrt:api-ms-win-crt-stdio-l1-1-0.dll
 0002:00000668       __imp___stdio_common_vswprintf 00000001800e7668     ucrt:api-ms-win-crt-stdio-l1-1-0.dll
 0002:00000670       __imp_fread                00000001800e7670     ucrt:api-ms-win-crt-stdio-l1-1-0.dll
 0002:00000678       __imp_fwrite               00000001800e7678     ucrt:api-ms-win-crt-stdio-l1-1-0.dll
 0002:00000680       __imp___stdio_common_vsprintf_s 00000001800e7680     ucrt:api-ms-win-crt-stdio-l1-1-0.dll
 0002:00000688       __imp_fflush               00000001800e7688     ucrt:api-ms-win-crt-stdio-l1-1-0.dll
 0002:00000690       __imp___stdio_common_vsscanf 00000001800e7690     ucrt:api-ms-win-crt-stdio-l1-1-0.dll
 0002:00000698       __imp__wfopen              00000001800e7698     ucrt:api-ms-win-crt-stdio-l1-1-0.dll
 0002:000006a0       __imp_fclose               00000001800e76a0     ucrt:api-ms-win-crt-stdio-l1-1-0.dll
 0002:000006a8       __imp_fseek                00000001800e76a8     ucrt:api-ms-win-crt-stdio-l1-1-0.dll
 0002:000006b0       __imp_ftell                00000001800e76b0     ucrt:api-ms-win-crt-stdio-l1-1-0.dll
 0002:000006b8       __imp___stdio_common_vsprintf 00000001800e76b8     ucrt:api-ms-win-crt-stdio-l1-1-0.dll
 0002:000006c0       \177api-ms-win-crt-stdio-l1-1-0_NULL_THUNK_DATA 00000001800e76c0     ucrt:api-ms-win-crt-stdio-l1-1-0.dll
 0002:000006c8       __imp_strcmp               00000001800e76c8     ucrt:api-ms-win-crt-string-l1-1-0.dll
 0002:000006d0       __imp_strncmp              00000001800e76d0     ucrt:api-ms-win-crt-string-l1-1-0.dll
 0002:000006d8       __imp_strncpy              00000001800e76d8     ucrt:api-ms-win-crt-string-l1-1-0.dll
 0002:000006e0       __imp_strcpy_s             00000001800e76e0     ucrt:api-ms-win-crt-string-l1-1-0.dll
 0002:000006e8       \177api-ms-win-crt-string-l1-1-0_NULL_THUNK_DATA 00000001800e76e8     ucrt:api-ms-win-crt-string-l1-1-0.dll
 0002:000006f0       __imp__time64              00000001800e76f0     ucrt:api-ms-win-crt-time-l1-1-0.dll
 0002:000006f8       \177api-ms-win-crt-time-l1-1-0_NULL_THUNK_DATA 00000001800e76f8     ucrt:api-ms-win-crt-time-l1-1-0.dll
 0002:00000700       __imp_rand                 00000001800e7700     ucrt:api-ms-win-crt-utility-l1-1-0.dll
 0002:00000708       __imp_qsort                00000001800e7708     ucrt:api-ms-win-crt-utility-l1-1-0.dll
 0002:00000710       \177api-ms-win-crt-utility-l1-1-0_NULL_THUNK_DATA 00000001800e7710     ucrt:api-ms-win-crt-utility-l1-1-0.dll
 0002:00000718       __imp_D3D11CreateDeviceAndSwapChain 00000001800e7718     d3d11:d3d11.dll
 0002:00000720       \177d3d11_NULL_THUNK_DATA  00000001800e7720     d3d11:d3d11.dll
 0002:00000728       __imp_D3DX11CreateShaderResourceViewFromMemory 00000001800e7728     d3dx11:d3dx11_43.dll
 0002:00000730       \177d3dx11_43_NULL_THUNK_DATA 00000001800e7730     d3dx11:d3dx11_43.dll
 0002:00000738       __imp_RtlCaptureContext    00000001800e7738     ntdll:ntdll.dll
 0002:00000740       __imp_RtlVirtualUnwind     00000001800e7740     ntdll:ntdll.dll
 0002:00000748       __imp_RtlLookupFunctionEntry 00000001800e7748     ntdll:ntdll.dll
 0002:00000750       \177ntdll_NULL_THUNK_DATA  00000001800e7750     ntdll:ntdll.dll
 0002:00000758       __imp_URLDownloadToFileA   00000001800e7758     Urlmon:urlmon.dll
 0002:00000760       \177urlmon_NULL_THUNK_DATA 00000001800e7760     Urlmon:urlmon.dll
 0002:00000768       __guard_check_icall_fptr   00000001800e7768     MSVCRT:guard_support.obj
 0002:00000770       __guard_xfg_check_icall_fptr 00000001800e7770     MSVCRT:guard_support.obj
 0002:00000778       __guard_dispatch_icall_fptr 00000001800e7778     MSVCRT:guard_support.obj
 0002:00000780       __guard_xfg_dispatch_icall_fptr 00000001800e7780     MSVCRT:guard_support.obj
 0002:00000788       __guard_xfg_table_dispatch_icall_fptr 00000001800e7788     MSVCRT:guard_support.obj
 0002:00000790       __castguard_check_failure_os_handled_fptr 00000001800e7790     MSVCRT:guard_support.obj
 0002:00000798       __guard_memcpy_fptr        00000001800e7798     vcruntime:softmemtag.obj
 0002:000007a0       __xc_a                     00000001800e77a0     MSVCRT:initializers.obj
 0002:00000af0       __xc_z                     00000001800e7af0     MSVCRT:initializers.obj
 0002:00000af8       __xi_a                     00000001800e7af8     MSVCRT:initializers.obj
 0002:00000b00       __xi_z                     00000001800e7b00     MSVCRT:initializers.obj
 0002:00000b08       __xl_a                     00000001800e7b08     MSVCRT:tlssup.obj
 0002:00000b10       __xl_z                     00000001800e7b10     MSVCRT:tlssup.obj
 0002:00000b18       __xp_a                     00000001800e7b18     MSVCRT:initializers.obj
 0002:00000b20       __xp_z                     00000001800e7b20     MSVCRT:initializers.obj
 0002:00000b28       __xt_a                     00000001800e7b28     MSVCRT:initializers.obj
 0002:00000b30       __xt_z                     00000001800e7b30     MSVCRT:initializers.obj
 0002:00000b40       ?nothrow@std@@3Unothrow_t@1@B 00000001800e7b40     msvcprt:nothrow.obj
 0002:00000c50       ??_C@_1CM@BFAMBNFD@?$AA?$CB?$AAx?$AA?9?$AAs?$AAy?$AAs?$AA?9?$AAd?$AAe?$AAf?$AAa?$AAu?$AAl?$AAt?$AA?9@ 00000001800e7c50     msvcprt:syserror_import_lib.obj
 0002:00000cc0       __xmm@ffffffffffffffffffffffffffffffff 00000001800e7cc0     msvcprt:vector_algorithms.obj
 0002:00000cd8       ??_7type_info@@6B@         00000001800e7cd8     MSVCRT:std_type_info_static.obj
 0002:00000ce0       _pDefaultRawDllMain        00000001800e7ce0     MSVCRT:dll_dllmain.obj
 0002:00000ce0       _pRawDllMain               00000001800e7ce0     MSVCRT:dll_dllmain.obj
 0002:00000cf0       ??_7exception@std@@6B@     00000001800e7cf0     MSVCRT:throw_bad_alloc.obj
 0002:00000d08       ??_7bad_alloc@std@@6B@     00000001800e7d08     MSVCRT:throw_bad_alloc.obj
 0002:00000d18       ??_C@_0P@GHFPNOJB@bad?5allocation@ 00000001800e7d18     MSVCRT:throw_bad_alloc.obj
 0002:00000d30       ??_7bad_array_new_length@std@@6B@ 00000001800e7d30     MSVCRT:throw_bad_alloc.obj
 0002:00000d50       GUID_ATLVer110             00000001800e7d50     atls:atlbase.obj
 0002:00000d60       ??_C@_1IC@ONKHOIDK@?$AAE?$AAR?$AAR?$AAO?$AAR?$AA?5?$AA?3?$AA?5?$AAU?$AAn?$AAa?$AAb?$AAl?$AAe?$AA?5@ 00000001800e7d60     atls:atlbase.obj
 0002:00000fc8       ??_C@_02PEOAMJM@?4_@       00000001800e7fc8     freetype:ftbase.obj
 0002:00000fcc       ??_C@_05FLPKNBDI@?1rsrc@   00000001800e7fcc     freetype:ftbase.obj
 0002:00000fd8       ??_C@_0BC@OBHLCHMP@?1?4?4namedfork?1rsrc@ 00000001800e7fd8     freetype:ftbase.obj
 0002:00000ff0       ??_C@_0O@FDMCFKOC@resource?4frk?1@ 00000001800e7ff0     freetype:ftbase.obj
 0002:00001000       ??_C@_0L@FGJFJHGF@?4resource?1@ 00000001800e8000     freetype:ftbase.obj
 0002:0000100c       ??_C@_01FGNFDNOH@?$CF@     00000001800e800c     freetype:ftbase.obj
 0002:00001010       ??_C@_0O@KCDCBAF@?4AppleDouble?1@ 00000001800e8010     freetype:ftbase.obj
 0002:00001020       ??_C@_0M@NJKHAGNP@font?9format@ 00000001800e8020     freetype:ftbase.obj
 0002:0000102c       ??_C@_06LFMFFOBP@ot?9svg@  00000001800e802c     freetype:ftbase.obj
 0002:00001034       ??_C@_06JCBOBHIA@Type?51@  00000001800e8034     freetype:ftbase.obj
 0002:0000103c       ??_C@_03LBLPCGAC@cid@      00000001800e803c     freetype:ftbase.obj
 0002:00001040       ??_C@_05MJDCDNNA@type1@    00000001800e8040     freetype:ftbase.obj
 0002:00001048       ??_C@_03IINFADLN@cff@      00000001800e8048     freetype:ftbase.obj
 0002:00001050       ??_C@_08OKLLNAKL@truetype@ 00000001800e8050     freetype:ftbase.obj
 0002:00001060       ??_C@_07IAOBDJBM@kerning@  00000001800e8060     freetype:ftbase.obj
 0002:00001068       ??_C@_0L@POCJHJKN@glyph?9dict@ 00000001800e8068     freetype:ftbase.obj
 0002:00001078       ??_C@_0BF@GDPJODJF@postscript?9font?9name@ 00000001800e8078     freetype:ftbase.obj
 0002:00001090       ??_C@_0L@MBBJBANC@sfnt?9table@ 00000001800e8090     freetype:ftbase.obj
 0002:000010a0       ??_C@_08OHCKCLF@tt?9cmaps@ 00000001800e80a0     freetype:ftbase.obj
 0002:000010b0       ??_C@_0L@CIHKIEFA@properties@ 00000001800e80b0     freetype:ftbase.obj
 0002:000010bc       ??_C@_06GNKBHGHD@type42@   00000001800e80bc     freetype:ftbase.obj
 0002:000010c8       ??_C@_0BA@DHLLBDBB@truetype?9engine@ 00000001800e80c8     freetype:ftbase.obj
 0002:000010d8       ??_C@_0BF@GIDENNON@darkening?9parameters@ 00000001800e80d8     freetype:ftbase.obj
 0002:000010f0       ??_C@_0P@DGAAAJJA@hinting?9engine@ 00000001800e80f0     freetype:ftbase.obj
 0002:00001100       ??_C@_05NBLLDENH@adobe@    00000001800e8100     freetype:ftbase.obj
 0002:00001108       ??_C@_0BC@GFOLLGHN@no?9stem?9darkening@ 00000001800e8108     freetype:ftbase.obj
 0002:00001120       ??_C@_0M@LGDPDIPE@random?9seed@ 00000001800e8120     freetype:ftbase.obj
 0002:00001130       af_blue_strings            00000001800e8130     freetype:autofit.obj
 0002:000026d0       af_blue_stringsets         00000001800e96d0     freetype:autofit.obj
 0002:00002f18       af_autofitter_interface    00000001800e9f18     freetype:autofit.obj
 0002:00002f38       autofit_module_class       00000001800e9f38     freetype:autofit.obj
 0002:00002f70       af_writing_system_classes  00000001800e9f70     freetype:autofit.obj
 0002:00002f98       af_adlm_script_class       00000001800e9f98     freetype:autofit.obj
 0002:00002fc0       af_arab_script_class       00000001800e9fc0     freetype:autofit.obj
 0002:00002fe8       af_armn_script_class       00000001800e9fe8     freetype:autofit.obj
 0002:00003010       af_avst_script_class       00000001800ea010     freetype:autofit.obj
 0002:00003038       af_bamu_script_class       00000001800ea038     freetype:autofit.obj
 0002:00003060       af_beng_script_class       00000001800ea060     freetype:autofit.obj
 0002:00003088       af_buhd_script_class       00000001800ea088     freetype:autofit.obj
 0002:000030b0       af_cakm_script_class       00000001800ea0b0     freetype:autofit.obj
 0002:000030d8       af_cans_script_class       00000001800ea0d8     freetype:autofit.obj
 0002:00003100       af_cari_script_class       00000001800ea100     freetype:autofit.obj
 0002:00003128       af_cher_script_class       00000001800ea128     freetype:autofit.obj
 0002:00003150       af_copt_script_class       00000001800ea150     freetype:autofit.obj
 0002:00003178       af_cprt_script_class       00000001800ea178     freetype:autofit.obj
 0002:000031a0       af_cyrl_script_class       00000001800ea1a0     freetype:autofit.obj
 0002:000031c8       af_deva_script_class       00000001800ea1c8     freetype:autofit.obj
 0002:000031f0       af_dsrt_script_class       00000001800ea1f0     freetype:autofit.obj
 0002:00003218       af_ethi_script_class       00000001800ea218     freetype:autofit.obj
 0002:00003240       af_geor_script_class       00000001800ea240     freetype:autofit.obj
 0002:00003268       af_geok_script_class       00000001800ea268     freetype:autofit.obj
 0002:00003290       af_glag_script_class       00000001800ea290     freetype:autofit.obj
 0002:000032b8       af_goth_script_class       00000001800ea2b8     freetype:autofit.obj
 0002:000032e0       af_grek_script_class       00000001800ea2e0     freetype:autofit.obj
 0002:00003308       af_gujr_script_class       00000001800ea308     freetype:autofit.obj
 0002:00003330       af_guru_script_class       00000001800ea330     freetype:autofit.obj
 0002:00003358       af_hebr_script_class       00000001800ea358     freetype:autofit.obj
 0002:00003380       af_kali_script_class       00000001800ea380     freetype:autofit.obj
 0002:000033a8       af_khmr_script_class       00000001800ea3a8     freetype:autofit.obj
 0002:000033d0       af_khms_script_class       00000001800ea3d0     freetype:autofit.obj
 0002:000033f8       af_knda_script_class       00000001800ea3f8     freetype:autofit.obj
 0002:00003420       af_lao_script_class        00000001800ea420     freetype:autofit.obj
 0002:00003448       af_latn_script_class       00000001800ea448     freetype:autofit.obj
 0002:00003470       af_latb_script_class       00000001800ea470     freetype:autofit.obj
 0002:00003498       af_latp_script_class       00000001800ea498     freetype:autofit.obj
 0002:000034c0       af_lisu_script_class       00000001800ea4c0     freetype:autofit.obj
 0002:000034e8       af_mlym_script_class       00000001800ea4e8     freetype:autofit.obj
 0002:00003510       af_medf_script_class       00000001800ea510     freetype:autofit.obj
 0002:00003538       af_mong_script_class       00000001800ea538     freetype:autofit.obj
 0002:00003560       af_mymr_script_class       00000001800ea560     freetype:autofit.obj
 0002:00003588       af_nkoo_script_class       00000001800ea588     freetype:autofit.obj
 0002:000035b0       af_none_script_class       00000001800ea5b0     freetype:autofit.obj
 0002:000035d8       af_olck_script_class       00000001800ea5d8     freetype:autofit.obj
 0002:00003600       af_orkh_script_class       00000001800ea600     freetype:autofit.obj
 0002:00003628       af_osge_script_class       00000001800ea628     freetype:autofit.obj
 0002:00003650       af_osma_script_class       00000001800ea650     freetype:autofit.obj
 0002:00003678       af_rohg_script_class       00000001800ea678     freetype:autofit.obj
 0002:000036a0       af_saur_script_class       00000001800ea6a0     freetype:autofit.obj
 0002:000036c8       af_shaw_script_class       00000001800ea6c8     freetype:autofit.obj
 0002:000036f0       af_sinh_script_class       00000001800ea6f0     freetype:autofit.obj
 0002:00003718       af_sund_script_class       00000001800ea718     freetype:autofit.obj
 0002:00003740       af_taml_script_class       00000001800ea740     freetype:autofit.obj
 0002:00003768       af_tavt_script_class       00000001800ea768     freetype:autofit.obj
 0002:00003790       af_telu_script_class       00000001800ea790     freetype:autofit.obj
 0002:000037b8       af_tfng_script_class       00000001800ea7b8     freetype:autofit.obj
 0002:000037e0       af_thai_script_class       00000001800ea7e0     freetype:autofit.obj
 0002:00003808       af_vaii_script_class       00000001800ea808     freetype:autofit.obj
 0002:00003830       af_limb_script_class       00000001800ea830     freetype:autofit.obj
 0002:00003858       af_orya_script_class       00000001800ea858     freetype:autofit.obj
 0002:00003880       af_sylo_script_class       00000001800ea880     freetype:autofit.obj
 0002:000038a8       af_tibt_script_class       00000001800ea8a8     freetype:autofit.obj
 0002:000038d0       af_hani_script_class       00000001800ea8d0     freetype:autofit.obj
 0002:000038f8       af_adlm_dflt_style_class   00000001800ea8f8     freetype:autofit.obj
 0002:00003910       af_script_classes          00000001800ea910     freetype:autofit.obj
 0002:00003af8       af_arab_dflt_style_class   00000001800eaaf8     freetype:autofit.obj
 0002:00003b10       af_armn_dflt_style_class   00000001800eab10     freetype:autofit.obj
 0002:00003b28       af_avst_dflt_style_class   00000001800eab28     freetype:autofit.obj
 0002:00003b40       af_bamu_dflt_style_class   00000001800eab40     freetype:autofit.obj
 0002:00003b58       af_beng_dflt_style_class   00000001800eab58     freetype:autofit.obj
 0002:00003b70       af_buhd_dflt_style_class   00000001800eab70     freetype:autofit.obj
 0002:00003b88       af_cakm_dflt_style_class   00000001800eab88     freetype:autofit.obj
 0002:00003ba0       af_cans_dflt_style_class   00000001800eaba0     freetype:autofit.obj
 0002:00003bb8       af_cari_dflt_style_class   00000001800eabb8     freetype:autofit.obj
 0002:00003bd0       af_cher_dflt_style_class   00000001800eabd0     freetype:autofit.obj
 0002:00003be8       af_copt_dflt_style_class   00000001800eabe8     freetype:autofit.obj
 0002:00003c00       af_cprt_dflt_style_class   00000001800eac00     freetype:autofit.obj
 0002:00003c18       af_cyrl_c2cp_style_class   00000001800eac18     freetype:autofit.obj
 0002:00003c30       af_cyrl_c2sc_style_class   00000001800eac30     freetype:autofit.obj
 0002:00003c48       af_cyrl_ordn_style_class   00000001800eac48     freetype:autofit.obj
 0002:00003c60       af_cyrl_pcap_style_class   00000001800eac60     freetype:autofit.obj
 0002:00003c78       af_cyrl_sinf_style_class   00000001800eac78     freetype:autofit.obj
 0002:00003c90       af_cyrl_smcp_style_class   00000001800eac90     freetype:autofit.obj
 0002:00003ca8       af_cyrl_subs_style_class   00000001800eaca8     freetype:autofit.obj
 0002:00003cc0       af_cyrl_sups_style_class   00000001800eacc0     freetype:autofit.obj
 0002:00003cd8       af_cyrl_titl_style_class   00000001800eacd8     freetype:autofit.obj
 0002:00003cf0       af_cyrl_dflt_style_class   00000001800eacf0     freetype:autofit.obj
 0002:00003d08       af_deva_dflt_style_class   00000001800ead08     freetype:autofit.obj
 0002:00003d20       af_dsrt_dflt_style_class   00000001800ead20     freetype:autofit.obj
 0002:00003d38       af_ethi_dflt_style_class   00000001800ead38     freetype:autofit.obj
 0002:00003d50       af_geor_dflt_style_class   00000001800ead50     freetype:autofit.obj
 0002:00003d68       af_geok_dflt_style_class   00000001800ead68     freetype:autofit.obj
 0002:00003d80       af_glag_dflt_style_class   00000001800ead80     freetype:autofit.obj
 0002:00003d98       af_goth_dflt_style_class   00000001800ead98     freetype:autofit.obj
 0002:00003db0       af_grek_c2cp_style_class   00000001800eadb0     freetype:autofit.obj
 0002:00003dc8       af_grek_c2sc_style_class   00000001800eadc8     freetype:autofit.obj
 0002:00003de0       af_grek_ordn_style_class   00000001800eade0     freetype:autofit.obj
 0002:00003df8       af_grek_pcap_style_class   00000001800eadf8     freetype:autofit.obj
 0002:00003e10       af_grek_sinf_style_class   00000001800eae10     freetype:autofit.obj
 0002:00003e28       af_grek_smcp_style_class   00000001800eae28     freetype:autofit.obj
 0002:00003e40       af_grek_subs_style_class   00000001800eae40     freetype:autofit.obj
 0002:00003e58       af_grek_sups_style_class   00000001800eae58     freetype:autofit.obj
 0002:00003e70       af_grek_titl_style_class   00000001800eae70     freetype:autofit.obj
 0002:00003e88       af_grek_dflt_style_class   00000001800eae88     freetype:autofit.obj
 0002:00003ea0       af_gujr_dflt_style_class   00000001800eaea0     freetype:autofit.obj
 0002:00003eb8       af_guru_dflt_style_class   00000001800eaeb8     freetype:autofit.obj
 0002:00003ed0       af_hebr_dflt_style_class   00000001800eaed0     freetype:autofit.obj
 0002:00003ee8       af_kali_dflt_style_class   00000001800eaee8     freetype:autofit.obj
 0002:00003f00       af_khmr_dflt_style_class   00000001800eaf00     freetype:autofit.obj
 0002:00003f18       af_khms_dflt_style_class   00000001800eaf18     freetype:autofit.obj
 0002:00003f30       af_knda_dflt_style_class   00000001800eaf30     freetype:autofit.obj
 0002:00003f48       af_lao_dflt_style_class    00000001800eaf48     freetype:autofit.obj
 0002:00003f60       af_latn_c2cp_style_class   00000001800eaf60     freetype:autofit.obj
 0002:00003f78       af_latn_c2sc_style_class   00000001800eaf78     freetype:autofit.obj
 0002:00003f90       af_latn_ordn_style_class   00000001800eaf90     freetype:autofit.obj
 0002:00003fa8       af_latn_pcap_style_class   00000001800eafa8     freetype:autofit.obj
 0002:00003fc0       af_latn_sinf_style_class   00000001800eafc0     freetype:autofit.obj
 0002:00003fd8       af_latn_smcp_style_class   00000001800eafd8     freetype:autofit.obj
 0002:00003ff0       af_latn_subs_style_class   00000001800eaff0     freetype:autofit.obj
 0002:00004008       af_latn_sups_style_class   00000001800eb008     freetype:autofit.obj
 0002:00004020       af_latn_titl_style_class   00000001800eb020     freetype:autofit.obj
 0002:00004038       af_latn_dflt_style_class   00000001800eb038     freetype:autofit.obj
 0002:00004050       af_latb_dflt_style_class   00000001800eb050     freetype:autofit.obj
 0002:00004068       af_latp_dflt_style_class   00000001800eb068     freetype:autofit.obj
 0002:00004080       af_lisu_dflt_style_class   00000001800eb080     freetype:autofit.obj
 0002:00004098       af_mlym_dflt_style_class   00000001800eb098     freetype:autofit.obj
 0002:000040b0       af_medf_dflt_style_class   00000001800eb0b0     freetype:autofit.obj
 0002:000040c8       af_mong_dflt_style_class   00000001800eb0c8     freetype:autofit.obj
 0002:000040e0       af_mymr_dflt_style_class   00000001800eb0e0     freetype:autofit.obj
 0002:000040f8       af_nkoo_dflt_style_class   00000001800eb0f8     freetype:autofit.obj
 0002:00004110       af_none_dflt_style_class   00000001800eb110     freetype:autofit.obj
 0002:00004128       af_olck_dflt_style_class   00000001800eb128     freetype:autofit.obj
 0002:00004140       af_orkh_dflt_style_class   00000001800eb140     freetype:autofit.obj
 0002:00004158       af_osge_dflt_style_class   00000001800eb158     freetype:autofit.obj
 0002:00004170       af_osma_dflt_style_class   00000001800eb170     freetype:autofit.obj
 0002:00004188       af_rohg_dflt_style_class   00000001800eb188     freetype:autofit.obj
 0002:000041a0       af_saur_dflt_style_class   00000001800eb1a0     freetype:autofit.obj
 0002:000041b8       af_shaw_dflt_style_class   00000001800eb1b8     freetype:autofit.obj
 0002:000041d0       af_sinh_dflt_style_class   00000001800eb1d0     freetype:autofit.obj
 0002:000041e8       af_sund_dflt_style_class   00000001800eb1e8     freetype:autofit.obj
 0002:00004200       af_taml_dflt_style_class   00000001800eb200     freetype:autofit.obj
 0002:00004218       af_tavt_dflt_style_class   00000001800eb218     freetype:autofit.obj
 0002:00004230       af_telu_dflt_style_class   00000001800eb230     freetype:autofit.obj
 0002:00004248       af_tfng_dflt_style_class   00000001800eb248     freetype:autofit.obj
 0002:00004260       af_thai_dflt_style_class   00000001800eb260     freetype:autofit.obj
 0002:00004278       af_vaii_dflt_style_class   00000001800eb278     freetype:autofit.obj
 0002:00004290       af_limb_dflt_style_class   00000001800eb290     freetype:autofit.obj
 0002:000042a8       af_orya_dflt_style_class   00000001800eb2a8     freetype:autofit.obj
 0002:000042c0       af_sylo_dflt_style_class   00000001800eb2c0     freetype:autofit.obj
 0002:000042d8       af_tibt_dflt_style_class   00000001800eb2d8     freetype:autofit.obj
 0002:000042f0       af_hani_dflt_style_class   00000001800eb2f0     freetype:autofit.obj
 0002:00004308       af_adlm_uniranges          00000001800eb308     freetype:autofit.obj
 0002:00004318       af_arab_uniranges          00000001800eb318     freetype:autofit.obj
 0002:00004350       af_style_classes           00000001800eb350     freetype:autofit.obj
 0002:00004610       af_latin_writing_system_class 00000001800eb610     freetype:autofit.obj
 0002:00004650       af_cjk_writing_system_class 00000001800eb650     freetype:autofit.obj
 0002:00004690       af_dummy_writing_system_class 00000001800eb690     freetype:autofit.obj
 0002:000046d0       af_armn_uniranges          00000001800eb6d0     freetype:autofit.obj
 0002:000046e8       af_avst_uniranges          00000001800eb6e8     freetype:autofit.obj
 0002:000046f8       af_bamu_uniranges          00000001800eb6f8     freetype:autofit.obj
 0002:00004708       af_beng_uniranges          00000001800eb708     freetype:autofit.obj
 0002:00004718       af_buhd_uniranges          00000001800eb718     freetype:autofit.obj
 0002:00004728       af_cakm_uniranges          00000001800eb728     freetype:autofit.obj
 0002:00004738       af_cans_uniranges          00000001800eb738     freetype:autofit.obj
 0002:00004750       af_cari_uniranges          00000001800eb750     freetype:autofit.obj
 0002:00004760       af_cher_uniranges          00000001800eb760     freetype:autofit.obj
 0002:00004778       af_copt_uniranges          00000001800eb778     freetype:autofit.obj
 0002:00004788       af_cprt_uniranges          00000001800eb788     freetype:autofit.obj
 0002:00004798       af_cyrl_uniranges          00000001800eb798     freetype:autofit.obj
 0002:000047c8       af_deva_uniranges          00000001800eb7c8     freetype:autofit.obj
 0002:00004800       af_dsrt_uniranges          00000001800eb800     freetype:autofit.obj
 0002:00004810       af_ethi_uniranges          00000001800eb810     freetype:autofit.obj
 0002:00004838       af_geor_uniranges          00000001800eb838     freetype:autofit.obj
 0002:00004850       af_geok_uniranges          00000001800eb850     freetype:autofit.obj
 0002:00004868       af_glag_uniranges          00000001800eb868     freetype:autofit.obj
 0002:00004880       af_goth_uniranges          00000001800eb880     freetype:autofit.obj
 0002:00004890       af_grek_uniranges          00000001800eb890     freetype:autofit.obj
 0002:000048a8       af_gujr_uniranges          00000001800eb8a8     freetype:autofit.obj
 0002:000048b8       af_guru_uniranges          00000001800eb8b8     freetype:autofit.obj
 0002:000048c8       af_hebr_uniranges          00000001800eb8c8     freetype:autofit.obj
 0002:000048e0       af_kali_uniranges          00000001800eb8e0     freetype:autofit.obj
 0002:000048f0       af_khmr_uniranges          00000001800eb8f0     freetype:autofit.obj
 0002:00004900       af_khms_uniranges          00000001800eb900     freetype:autofit.obj
 0002:00004910       af_knda_uniranges          00000001800eb910     freetype:autofit.obj
 0002:00004920       af_lao_uniranges           00000001800eb920     freetype:autofit.obj
 0002:00004930       af_latn_uniranges          00000001800eb930     freetype:autofit.obj
 0002:00004a38       af_latb_uniranges          00000001800eba38     freetype:autofit.obj
 0002:00004a58       af_mong_uniranges          00000001800eba58     freetype:autofit.obj
 0002:00004a70       af_latp_uniranges          00000001800eba70     freetype:autofit.obj
 0002:00004ae0       af_lisu_uniranges          00000001800ebae0     freetype:autofit.obj
 0002:00004af0       af_mlym_uniranges          00000001800ebaf0     freetype:autofit.obj
 0002:00004b00       af_medf_uniranges          00000001800ebb00     freetype:autofit.obj
 0002:00004b10       af_mymr_uniranges          00000001800ebb10     freetype:autofit.obj
 0002:00004b30       af_nkoo_uniranges          00000001800ebb30     freetype:autofit.obj
 0002:00004b40       af_none_uniranges          00000001800ebb40     freetype:autofit.obj
 0002:00004b48       af_olck_uniranges          00000001800ebb48     freetype:autofit.obj
 0002:00004b58       af_orkh_uniranges          00000001800ebb58     freetype:autofit.obj
 0002:00004b68       af_osge_uniranges          00000001800ebb68     freetype:autofit.obj
 0002:00004b78       af_osma_uniranges          00000001800ebb78     freetype:autofit.obj
 0002:00004b88       af_rohg_uniranges          00000001800ebb88     freetype:autofit.obj
 0002:00004b98       af_saur_uniranges          00000001800ebb98     freetype:autofit.obj
 0002:00004ba8       af_shaw_uniranges          00000001800ebba8     freetype:autofit.obj
 0002:00004bb8       af_sinh_uniranges          00000001800ebbb8     freetype:autofit.obj
 0002:00004bc8       af_sund_uniranges          00000001800ebbc8     freetype:autofit.obj
 0002:00004be0       af_taml_uniranges          00000001800ebbe0     freetype:autofit.obj
 0002:00004bf0       af_tavt_uniranges          00000001800ebbf0     freetype:autofit.obj
 0002:00004c00       af_telu_uniranges          00000001800ebc00     freetype:autofit.obj
 0002:00004c10       af_tfng_uniranges          00000001800ebc10     freetype:autofit.obj
 0002:00004c20       af_thai_uniranges          00000001800ebc20     freetype:autofit.obj
 0002:00004c30       af_vaii_uniranges          00000001800ebc30     freetype:autofit.obj
 0002:00004c40       af_limb_uniranges          00000001800ebc40     freetype:autofit.obj
 0002:00004c50       af_orya_uniranges          00000001800ebc50     freetype:autofit.obj
 0002:00004c60       af_sylo_uniranges          00000001800ebc60     freetype:autofit.obj
 0002:00004c70       af_tibt_uniranges          00000001800ebc70     freetype:autofit.obj
 0002:00004c80       af_hani_uniranges          00000001800ebc80     freetype:autofit.obj
 0002:00004d90       af_adlm_nonbase_uniranges  00000001800ebd90     freetype:autofit.obj
 0002:00004da0       af_arab_nonbase_uniranges  00000001800ebda0     freetype:autofit.obj
 0002:00004e40       af_armn_nonbase_uniranges  00000001800ebe40     freetype:autofit.obj
 0002:00004e50       af_avst_nonbase_uniranges  00000001800ebe50     freetype:autofit.obj
 0002:00004e60       af_bamu_nonbase_uniranges  00000001800ebe60     freetype:autofit.obj
 0002:00004e70       af_beng_nonbase_uniranges  00000001800ebe70     freetype:autofit.obj
 0002:00004ea8       af_buhd_nonbase_uniranges  00000001800ebea8     freetype:autofit.obj
 0002:00004eb8       af_cakm_nonbase_uniranges  00000001800ebeb8     freetype:autofit.obj
 0002:00004ed8       af_cans_nonbase_uniranges  00000001800ebed8     freetype:autofit.obj
 0002:00004ee0       af_cari_nonbase_uniranges  00000001800ebee0     freetype:autofit.obj
 0002:00004ee8       af_cher_nonbase_uniranges  00000001800ebee8     freetype:autofit.obj
 0002:00004ef0       af_copt_nonbase_uniranges  00000001800ebef0     freetype:autofit.obj
 0002:00004f00       af_cprt_nonbase_uniranges  00000001800ebf00     freetype:autofit.obj
 0002:00004f08       af_cyrl_nonbase_uniranges  00000001800ebf08     freetype:autofit.obj
 0002:00004f30       af_deva_nonbase_uniranges  00000001800ebf30     freetype:autofit.obj
 0002:00004f78       af_dsrt_nonbase_uniranges  00000001800ebf78     freetype:autofit.obj
 0002:00004f80       af_ethi_nonbase_uniranges  00000001800ebf80     freetype:autofit.obj
 0002:00004f90       af_geor_nonbase_uniranges  00000001800ebf90     freetype:autofit.obj
 0002:00004f98       af_geok_nonbase_uniranges  00000001800ebf98     freetype:autofit.obj
 0002:00004fa0       af_glag_nonbase_uniranges  00000001800ebfa0     freetype:autofit.obj
 0002:00004fb0       af_goth_nonbase_uniranges  00000001800ebfb0     freetype:autofit.obj
 0002:00004fb8       af_gujr_nonbase_uniranges  00000001800ebfb8     freetype:autofit.obj
 0002:00004ff0       af_grek_nonbase_uniranges  00000001800ebff0     freetype:autofit.obj
 0002:00005030       af_guru_nonbase_uniranges  00000001800ec030     freetype:autofit.obj
 0002:00005060       af_hebr_nonbase_uniranges  00000001800ec060     freetype:autofit.obj
 0002:00005090       af_kali_nonbase_uniranges  00000001800ec090     freetype:autofit.obj
 0002:000050a0       af_khmr_nonbase_uniranges  00000001800ec0a0     freetype:autofit.obj
 0002:000050c8       af_khms_nonbase_uniranges  00000001800ec0c8     freetype:autofit.obj
 0002:000050d0       af_knda_nonbase_uniranges  00000001800ec0d0     freetype:autofit.obj
 0002:00005108       af_lao_nonbase_uniranges   00000001800ec108     freetype:autofit.obj
 0002:00005128       af_latb_nonbase_uniranges  00000001800ec128     freetype:autofit.obj
 0002:00005130       af_latn_nonbase_uniranges  00000001800ec130     freetype:autofit.obj
 0002:000051b8       af_latp_nonbase_uniranges  00000001800ec1b8     freetype:autofit.obj
 0002:000051c0       af_lisu_nonbase_uniranges  00000001800ec1c0     freetype:autofit.obj
 0002:000051c8       af_mlym_nonbase_uniranges  00000001800ec1c8     freetype:autofit.obj
 0002:000051f0       af_medf_nonbase_uniranges  00000001800ec1f0     freetype:autofit.obj
 0002:000051f8       af_mong_nonbase_uniranges  00000001800ec1f8     freetype:autofit.obj
 0002:00005210       af_mymr_nonbase_uniranges  00000001800ec210     freetype:autofit.obj
 0002:00005278       af_nkoo_nonbase_uniranges  00000001800ec278     freetype:autofit.obj
 0002:00005290       af_none_nonbase_uniranges  00000001800ec290     freetype:autofit.obj
 0002:00005298       af_olck_nonbase_uniranges  00000001800ec298     freetype:autofit.obj
 0002:000052a0       af_orkh_nonbase_uniranges  00000001800ec2a0     freetype:autofit.obj
 0002:000052a8       af_osge_nonbase_uniranges  00000001800ec2a8     freetype:autofit.obj
 0002:000052b0       af_osma_nonbase_uniranges  00000001800ec2b0     freetype:autofit.obj
 0002:000052b8       af_rohg_nonbase_uniranges  00000001800ec2b8     freetype:autofit.obj
 0002:000052c0       af_saur_nonbase_uniranges  00000001800ec2c0     freetype:autofit.obj
 0002:000052d8       af_shaw_nonbase_uniranges  00000001800ec2d8     freetype:autofit.obj
 0002:000052e0       af_sinh_nonbase_uniranges  00000001800ec2e0     freetype:autofit.obj
 0002:000052f8       af_sund_nonbase_uniranges  00000001800ec2f8     freetype:autofit.obj
 0002:00005310       af_taml_nonbase_uniranges  00000001800ec310     freetype:autofit.obj
 0002:00005330       af_tavt_nonbase_uniranges  00000001800ec330     freetype:autofit.obj
 0002:00005360       af_telu_nonbase_uniranges  00000001800ec360     freetype:autofit.obj
 0002:00005390       af_tfng_nonbase_uniranges  00000001800ec390     freetype:autofit.obj
 0002:00005398       af_thai_nonbase_uniranges  00000001800ec398     freetype:autofit.obj
 0002:000053b8       af_vaii_nonbase_uniranges  00000001800ec3b8     freetype:autofit.obj
 0002:000053c0       af_limb_nonbase_uniranges  00000001800ec3c0     freetype:autofit.obj
 0002:000053e0       af_orya_nonbase_uniranges  00000001800ec3e0     freetype:autofit.obj
 0002:00005418       af_sylo_nonbase_uniranges  00000001800ec418     freetype:autofit.obj
 0002:00005440       af_tibt_nonbase_uniranges  00000001800ec440     freetype:autofit.obj
 0002:00005490       af_hani_nonbase_uniranges  00000001800ec490     freetype:autofit.obj
 0002:000054b0       af_indic_writing_system_class 00000001800ec4b0     freetype:autofit.obj
 0002:00005520       ??_C@_0BE@MOFLNEOP@0?51?52?53?54?55?56?57?58?59@ 00000001800ec520     freetype:autofit.obj
 0002:00005538       ??_C@_09JDCNEMGL@?p?$JO?$KE?$IM?5?p?$JO?$KE?$KO@ 00000001800ec538     freetype:autofit.obj
 0002:00005548       ??_C@_08NGKNFCCA@?Y?$IE?5?X?$KN?5?Y?$IA@ 00000001800ec548     freetype:autofit.obj
 0002:00005554       ??_C@_05EBMEKBIG@?U?$LN?5?U?$IN@ 00000001800ec554     freetype:autofit.obj
 0002:0000555c       ??_C@_04JHGFHPIP@?p?$JA?$KM?$JK@ 00000001800ec55c     freetype:autofit.obj
 0002:00005568       ??_C@_07BADEIFOL@?j?$JL?$IB?5?j?$JL?$KP@ 00000001800ec568     freetype:autofit.obj
 0002:00005570       ??_C@_07MLCFGLFO@?$OA?$KH?$KG?5?$OA?$KH?$KK@ 00000001800ec570     freetype:autofit.obj
 0002:00005578       ??_C@_07MJBNFAPA@?a?$JN?$IL?5?a?$JN?$IP@ 00000001800ec578     freetype:autofit.obj
 0002:00005580       ??_C@_0P@LMDGGGAE@?p?$JB?$IE?$KE?5?p?$JB?$IE?$IJ?5?p?$JB?$IE?$JL@ 00000001800ec580     freetype:autofit.obj
 0002:00005590       ??_C@_07COJDMBCC@?a?$JB?$IM?5?a?$JD?$JK@ 00000001800ec590     freetype:autofit.obj
 0002:00005598       ??_C@_09LEACCEAE@?p?$JA?$IK?$KL?5?p?$JA?$IL?$IJ@ 00000001800ec598     freetype:autofit.obj
 0002:000055a8       ??_C@_0M@IIEFPKGE@?a?$IO?$KE?5?a?$IP?$IF?5?j?$KO?$JF@ 00000001800ec5a8     freetype:autofit.obj
 0002:000055b8       ??_C@_07EGBKDBCM@?b?$LC?$JO?5?b?$LC?$JP@ 00000001800ec5b8     freetype:autofit.obj
 0002:000055c0       ??_C@_09BIEFHNHC@?p?$JA?$KA?$IF?5?p?$JA?$KA?$KD@ 00000001800ec5c0     freetype:autofit.obj
 0002:000055cc       ??_C@_05DBINMJJM@?P?$LO?5?P?$JO@ 00000001800ec5cc     freetype:autofit.obj
 0002:000055d8       ??_C@_0M@ODJHCGEP@?$OA?$KE?$KA?5?$OA?$KE?$LF?5?$OA?$KE?$JP@ 00000001800ec5d8     freetype:autofit.obj
 0002:000055e8       ??_C@_09JIAMNMOE@?p?$JA?$JA?$IE?5?p?$JA?$JA?$KM@ 00000001800ec5e8     freetype:autofit.obj
 0002:000055f4       ??_C@_03CMFJHIMF@?a?$IL?$JA@ 00000001800ec5f4     freetype:autofit.obj
 0002:000055f8       ??_C@_0BA@HEGJLNGN@?a?$ID?$JI?5?a?$ID?$JE?5?a?$ID?$JA?5?a?$LC?$LP@ 00000001800ec5f8     freetype:autofit.obj
 0002:00005608       ??_C@_0M@CHIIFMEI@?a?$IC?$LG?5?a?$IC?$LB?5?b?$LE?$JJ@ 00000001800ec608     freetype:autofit.obj
 0002:00005618       ??_C@_07JCJJEEE@?b?$LA?$JF?5?b?$LB?$IF@ 00000001800ec618     freetype:autofit.obj
 0002:00005620       ??_C@_0P@OLAOOJHK@?p?$JA?$IM?$LE?5?p?$JA?$IM?$LO?5?p?$JA?$IN?$ID@ 00000001800ec620     freetype:autofit.obj
 0002:00005630       ??_C@_05DKJCDMPM@?N?$LP?5?N?$JP@ 00000001800ec630     freetype:autofit.obj
 0002:00005638       ??_C@_07CMCIOKJD@?$OA?$KK?$JP?5?$OA?$KL?$KG@ 00000001800ec638     freetype:autofit.obj
 0002:00005640       ??_C@_0M@HILMFBKG@?$OA?$KI?$KA?5?$OA?$KI?$LA?5?$OA?$KJ?$KG@ 00000001800ec640     freetype:autofit.obj
 0002:0000564c       ??_C@_02EMJHPBAP@?W?$JN@   00000001800ec64c     freetype:autofit.obj
 0002:00005650       ??_C@_07EPGAKOL@?j?$KE?$IN?5?j?$KE?$IA@ 00000001800ec650     freetype:autofit.obj
 0002:00005658       ??_C@_03OIDAEFJK@?a?$JP?$KA@ 00000001800ec658     freetype:autofit.obj
 0002:00005660       ??_C@_07KCDGDMBN@?a?$KH?$KB?5?a?$KH?$KK@ 00000001800ec660     freetype:autofit.obj
 0002:00005668       ??_C@_07BEADBFJO@?$OA?$LD?$KG?5?$OA?$LC?$KM@ 00000001800ec668     freetype:autofit.obj
 0002:00005670       ??_C@_03LAIOPKDA@?$OA?$LL?$JA@ 00000001800ec670     freetype:autofit.obj
 0002:00005674       ??_C@_05FCCCPEKP@o?5O?50@  00000001800ec674     freetype:autofit.obj
 0002:00005680       ??_C@_07HAIKLPAL@?b?$IC?$JC?5?b?$IC?$IA@ 00000001800ec680     freetype:autofit.obj
 0002:00005688       ??_C@_0M@HBKEJKFL@?a?$LF?$JC?5?a?$LE?$LM?5?b?$IB?$LA@ 00000001800ec688     freetype:autofit.obj
 0002:00005694       ??_C@_03FHMEHKGN@?j?$JD?$LD@ 00000001800ec694     freetype:autofit.obj
 0002:00005698       ??_C@_07PMBMNIKD@?$OA?$LE?$KA?5?$OA?$LE?$LB@ 00000001800ec698     freetype:autofit.obj
 0002:000056a0       ??_C@_0P@IBKLCNIK@?p?$JG?$LJ?$KB?5?p?$JG?$LJ?$JL?5?p?$JG?$LJ?$KP@ 00000001800ec6a0     freetype:autofit.obj
 0002:000056b0       ??_C@_07EFJBGIDK@?a?$KB?$IC?5?a?$KA?$KK@ 00000001800ec6b0     freetype:autofit.obj
 0002:000056b8       ??_C@_0M@JDJALDKB@?a?$IA?$JN?5?a?$IA?$IE?5?a?$IA?$IC@ 00000001800ec6b8     freetype:autofit.obj
 0002:000056c4       ??_C@_05HGAHDEFN@?$NP?$IL?5?$NP?$IA@ 00000001800ec6c4     freetype:autofit.obj
 0002:000056cc       ??_C@_03OGFBMBEI@?a?$LB?$JL@ 00000001800ec6cc     freetype:autofit.obj
 0002:000056d0       ??_C@_04DHPHFLNG@?p?$JA?$LA?$JH@ 00000001800ec6d0     freetype:autofit.obj
 0002:000056d8       ??_C@_09CBEPPHOC@?p?$JA?$JD?$IC?5?p?$JA?$JD?$KK@ 00000001800ec6d8     freetype:autofit.obj
 0002:000056e8       ??_C@_09OCIHFBNC@?p?$JA?$JC?$IG?5?p?$JA?$JC?$KA@ 00000001800ec6e8     freetype:autofit.obj
 0002:000056f4       ??_C@_04OKDLEBGP@?p?$JA?$LE?$LA@ 00000001800ec6f4     freetype:autofit.obj
 0002:00005700       ??_C@_07CLHNDJJO@?j?$KC?$JN?5?j?$KD?$JA@ 00000001800ec700     freetype:autofit.obj
 0002:00005708       ??_C@_04LANBAAGA@?p?$JA?$JB?$LE@ 00000001800ec708     freetype:autofit.obj
 0002:00005710       ??_C@_03CIFBMJFH@?$OA?$LG?$KH@ 00000001800ec710     freetype:autofit.obj
 0002:00005714       ??_C@_03IHFLNIGM@?a?$KO?$LA@ 00000001800ec714     freetype:autofit.obj
 0002:00005718       ??_C@_03CCLNGAOJ@?$OA?$KP?$KG@ 00000001800ec718     freetype:autofit.obj
 0002:00005720       ??_C@_07NKKHBBJL@?j?$KK?$JC?5?j?$KK?$KL@ 00000001800ec720     freetype:autofit.obj
 0002:00005728       ??_C@_07GCCOGDCF@?$OA?$LB?$KG?5?$OA?$LB?$KH@ 00000001800ec728     freetype:autofit.obj
 0002:00005730       ??_C@_03HEHFNKLF@?b?$LF?$JE@ 00000001800ec730     freetype:autofit.obj
 0002:00005738       ??_C@_0M@PFDFPHNJ@?$OA?$LI?$LC?5?$OA?$LJ?$IF?5?$OA?$LJ?$JA@ 00000001800ec738     freetype:autofit.obj
 0002:00005748       ??_C@_0M@BIKJPOHA@?j?$JI?$JD?5?j?$JG?$JM?5?j?$JG?$LE@ 00000001800ec748     freetype:autofit.obj
 0002:00005754       ??_C@_01FMEDJKGI@o@        00000001800ec754     freetype:autofit.obj
 0002:00005758       ??_C@_07PNKDJIHG@?g?$JE?$LA?5?e?$JL?$JH@ 00000001800ec758     freetype:autofit.obj
 0002:00005760       ??_C@_0BA@OKOILHEH@fallback?9script@ 00000001800ec760     freetype:autofit.obj
 0002:00005770       ??_C@_0P@PHBNIPOP@default?9script@ 00000001800ec770     freetype:autofit.obj
 0002:00005780       ??_C@_0BC@OOHNGIJD@increase?9x?9height@ 00000001800ec780     freetype:autofit.obj
 0002:00005798       ??_C@_0BE@CELKBFDM@glyph?9to?9script?9map@ 00000001800ec798     freetype:autofit.obj
 0002:000057b0       ??_C@_0L@MNEBCNMP@autofitter@ 00000001800ec7b0     freetype:autofit.obj
 0002:000057c0       __xmm@00000000000000000001000000010000 00000001800ec7c0     freetype:autofit.obj
 0002:000057d0       ??_C@_05IBAMDCFI@Width@    00000001800ec7d0     freetype:truetype.obj
 0002:000057d8       ??_C@_0M@EDHPABCB@OpticalSize@ 00000001800ec7d8     freetype:truetype.obj
 0002:000057e4       ??_C@_05BCGFHEPH@Slant@    00000001800ec7e4     freetype:truetype.obj
 0002:000057f0       tt_driver_class            00000001800ec7f0     freetype:truetype.obj
 0002:00005d20       tt_default_graphics_state  00000001800ecd20     freetype:truetype.obj
 0002:00006100       ??_C@_07JBKHDJHE@?4notdef@ 00000001800ed100     freetype:truetype.obj
 0002:00006108       ??_C@_0BE@OJJAFABD@interpreter?9version@ 00000001800ed108     freetype:truetype.obj
 0002:00006120       ??_C@_08KJILHNAM@TrueType@ 00000001800ed120     freetype:truetype.obj
 0002:00006130       ??_C@_0O@DHADKGAK@multi?9masters@ 00000001800ed130     freetype:truetype.obj
 0002:00006140       ??_C@_0BD@EFEGEJAN@metrics?9variations@ 00000001800ed140     freetype:truetype.obj
 0002:00006158       ??_C@_07CDLHCBDE@tt?9glyf@ 00000001800ed158     freetype:truetype.obj
 0002:00006160       ??_C@_04JAPIGAPK@sfnt@     00000001800ed160     freetype:truetype.obj
 0002:00006168       ??_C@_0P@EMKCEFJO@?$CF?$CBPS?9AdobeFont@ 00000001800ed168     freetype:type1.obj
 0002:00006178       ??_C@_0L@LLIKMEDC@?$CF?$CBFontType@ 00000001800ed178     freetype:type1.obj
 0002:00006190       t1_driver_class            00000001800ed190     freetype:type1.obj
 0002:00006c40       ??_C@_0BA@EAOIOGJA@postscript?9info@ 00000001800edc40     freetype:type1.obj
 0002:00006c50       ??_C@_0BB@MLEHKAJM@StandardEncoding@ 00000001800edc50     freetype:type1.obj
 0002:00006c68       ??_C@_0P@LHOFAKJ@ExpertEncoding@ 00000001800edc68     freetype:type1.obj
 0002:00006c78       ??_C@_0BC@OHHLKLPP@ISOLatin1Encoding@ 00000001800edc78     freetype:type1.obj
 0002:00006c8c       ??_C@_03BHPKJDPK@dup@      00000001800edc8c     freetype:type1.obj
 0002:00006c90       ??_C@_03KMONJGDG@put@      00000001800edc90     freetype:type1.obj
 0002:00006c98       ??_C@_07CPCPJPKL@version@  00000001800edc98     freetype:type1.obj
 0002:00006ca0       ??_C@_06JHGCIHDH@Notice@   00000001800edca0     freetype:type1.obj
 0002:00006ca8       ??_C@_08FPDCFGEH@FullName@ 00000001800edca8     freetype:type1.obj
 0002:00006cb8       ??_C@_0L@KKMPOENF@FamilyName@ 00000001800edcb8     freetype:type1.obj
 0002:00006cc8       ??_C@_0M@ILCDBHGP@ItalicAngle@ 00000001800edcc8     freetype:type1.obj
 0002:00006cd8       ??_C@_0N@OPLNPOL@isFixedPitch@ 00000001800edcd8     freetype:type1.obj
 0002:00006ce8       ??_C@_0BC@CCIMILPE@UnderlinePosition@ 00000001800edce8     freetype:type1.obj
 0002:00006d00       ??_C@_0BD@KBICJDLM@UnderlineThickness@ 00000001800edd00     freetype:type1.obj
 0002:00006d14       ??_C@_06FIINGLDE@FSType@   00000001800edd14     freetype:type1.obj
 0002:00006d20       ??_C@_08OMJGNOHD@UniqueID@ 00000001800edd20     freetype:type1.obj
 0002:00006d2c       ??_C@_05CIIKKFON@lenIV@    00000001800edd2c     freetype:type1.obj
 0002:00006d38       ??_C@_0O@PJDGHDCK@LanguageGroup@ 00000001800edd38     freetype:type1.obj
 0002:00006d48       ??_C@_08NLHBPEGP@password@ 00000001800edd48     freetype:type1.obj
 0002:00006d58       ??_C@_09IPAGIEBG@BlueScale@ 00000001800edd58     freetype:type1.obj
 0002:00006d68       ??_C@_09GDCMDLCO@BlueShift@ 00000001800edd68     freetype:type1.obj
 0002:00006d78       ??_C@_08IPFLJFPM@BlueFuzz@ 00000001800edd78     freetype:type1.obj
 0002:00006d88       ??_C@_0L@DKDIMLOI@BlueValues@ 00000001800edd88     freetype:type1.obj
 0002:00006d98       ??_C@_0L@CCJAIIMC@OtherBlues@ 00000001800edd98     freetype:type1.obj
 0002:00006da8       ??_C@_0M@OIPOLIDA@FamilyBlues@ 00000001800edda8     freetype:type1.obj
 0002:00006db8       ??_C@_0BB@FMLCJJDP@FamilyOtherBlues@ 00000001800eddb8     freetype:type1.obj
 0002:00006dcc       ??_C@_05PHECBFLF@StdHW@    00000001800eddcc     freetype:type1.obj
 0002:00006dd4       ??_C@_05OBPKJLMP@StdVW@    00000001800eddd4     freetype:type1.obj
 0002:00006de0       ??_C@_0L@NKGPCONN@MinFeature@ 00000001800edde0     freetype:type1.obj
 0002:00006df0       ??_C@_09NCKADFKP@StemSnapH@ 00000001800eddf0     freetype:type1.obj
 0002:00006e00       ??_C@_09GOBAKHA@StemSnapV@ 00000001800ede00     freetype:type1.obj
 0002:00006e10       ??_C@_0BA@PKGIFANC@ExpansionFactor@ 00000001800ede10     freetype:type1.obj
 0002:00006e20       ??_C@_09BDDIAPM@ForceBold@ 00000001800ede20     freetype:type1.obj
 0002:00006e30       ??_C@_08MKFDOKHL@FontName@ 00000001800ede30     freetype:type1.obj
 0002:00006e40       ??_C@_09PNDIDGHG@PaintType@ 00000001800ede40     freetype:type1.obj
 0002:00006e50       ??_C@_08GBFACKAL@FontType@ 00000001800ede50     freetype:type1.obj
 0002:00006e60       ??_C@_0M@GLGMDIGG@StrokeWidth@ 00000001800ede60     freetype:type1.obj
 0002:00006e70       ??_C@_08EBMMLPNI@FontBBox@ 00000001800ede70     freetype:type1.obj
 0002:00006e7c       ??_C@_03DOACNACD@NDV@      00000001800ede7c     freetype:type1.obj
 0002:00006e80       ??_C@_03MMGIAIPO@CDV@      00000001800ede80     freetype:type1.obj
 0002:00006e88       ??_C@_0N@PGGOPDKP@DesignVector@ 00000001800ede88     freetype:type1.obj
 0002:00006e98       ??_C@_0L@LNCCOCBB@FontMatrix@ 00000001800ede98     freetype:type1.obj
 0002:00006ea8       ??_C@_08EJAHIGCJ@Encoding@ 00000001800edea8     freetype:type1.obj
 0002:00006eb4       ??_C@_05DHFNOCDJ@Subrs@    00000001800edeb4     freetype:type1.obj
 0002:00006ec0       ??_C@_0M@EKIFGBLL@CharStrings@ 00000001800edec0     freetype:type1.obj
 0002:00006ed0       ??_C@_07CFINJGKH@Private@  00000001800eded0     freetype:type1.obj
 0002:00006ed8       ??_C@_0BF@BEKHBPMN@BlendDesignPositions@ 00000001800eded8     freetype:type1.obj
 0002:00006ef0       ??_C@_0P@FPDIEJKK@BlendDesignMap@ 00000001800edef0     freetype:type1.obj
 0002:00006f00       ??_C@_0P@LEAACMFJ@BlendAxisTypes@ 00000001800edf00     freetype:type1.obj
 0002:00006f10       ??_C@_0N@JPPBHHHF@WeightVector@ 00000001800edf10     freetype:type1.obj
 0002:00006f20       ??_C@_0P@KEOGGALI@BuildCharArray@ 00000001800edf20     freetype:type1.obj
 0002:00006f30       ??_C@_05OJJBIBFE@eexec@    00000001800edf30     freetype:type1.obj
 0002:00006f38       ??_C@_09BJJLCLMA@closefile@ 00000001800edf38     freetype:type1.obj
 0002:00006f48       ??_C@_0O@CJLBGMNG@FontDirectory@ 00000001800edf48     freetype:type1.obj
 0002:00006f58       ??_C@_08MNGCAOLP@pshinter@ 00000001800edf58     freetype:type1.obj
 0002:00006f68       ??_C@_0BB@JIMLNENF@postscript?9cmaps@ 00000001800edf68     freetype:type1.obj
 0002:00006f7c       ??_C@_05MNCLAAKB@psaux@    00000001800edf7c     freetype:type1.obj
 0002:00006f88       ??_C@_07FFHPBFOK@Regular@  00000001800edf88     freetype:type1.obj
 0002:00006f90       ??_C@_04DIPHHIHJ@Bold@     00000001800edf90     freetype:type1.obj
 0002:00006f98       ??_C@_05BPGNDIAE@Black@    00000001800edf98     freetype:type1.obj
 0002:00006fc0       cff_cmap_encoding_class_rec 00000001800edfc0     freetype:cff.obj
 0002:00007010       cff_cmap_unicode_class_rec 00000001800ee010     freetype:cff.obj
 0002:00007060       cff_driver_class           00000001800ee060     freetype:cff.obj
 0002:000084b0       ??_C@_07IAJFBLNJ@?1FSType@ 00000001800ef4b0     freetype:cff.obj
 0002:000084b8       ??_C@_03BHEEIFFN@def@      00000001800ef4b8     freetype:cff.obj
 0002:000084bc       ??_C@_03IFCOMOMB@CFF@      00000001800ef4bc     freetype:cff.obj
 0002:000084c0       ??_C@_03LMEEOLHO@CID@      00000001800ef4c0     freetype:cff.obj
 0002:000084c8       ??_C@_08EOMLOCJG@cff?9load@ 00000001800ef4c8     freetype:cff.obj
 0002:00008ed0       t1cid_driver_class         00000001800efed0     freetype:type1cid.obj
 0002:00009030       ??_C@_0M@CKCGNNAK@CIDFontName@ 00000001800f0030     freetype:type1cid.obj
 0002:00009040       ??_C@_0P@FDOGBFAP@CIDFontVersion@ 00000001800f0040     freetype:type1cid.obj
 0002:00009050       ??_C@_0M@IBCFBNHK@CIDFontType@ 00000001800f0050     freetype:type1cid.obj
 0002:00009060       ??_C@_08EPBENDNC@Registry@ 00000001800f0060     freetype:type1cid.obj
 0002:00009070       ??_C@_08HMKBFHBJ@Ordering@ 00000001800f0070     freetype:type1cid.obj
 0002:00009080       ??_C@_0L@EJNILPMC@Supplement@ 00000001800f0080     freetype:type1cid.obj
 0002:00009090       ??_C@_07CNNFHHEA@UIDBase@  00000001800f0090     freetype:type1cid.obj
 0002:00009098       ??_C@_04CGDDEPDG@XUID@     00000001800f0098     freetype:type1cid.obj
 0002:000090a0       ??_C@_0N@LBMCPKAC@CIDMapOffset@ 00000001800f00a0     freetype:type1cid.obj
 0002:000090b0       ??_C@_07NNGKIHHK@FDBytes@  00000001800f00b0     freetype:type1cid.obj
 0002:000090b8       ??_C@_07BBMAIHOE@GDBytes@  00000001800f00b8     freetype:type1cid.obj
 0002:000090c0       ??_C@_08LPCKMOBH@CIDCount@ 00000001800f00c0     freetype:type1cid.obj
 0002:000090d0       ??_C@_0O@DKIHOHFK@SubrMapOffset@ 00000001800f00d0     freetype:type1cid.obj
 0002:000090e0       ??_C@_07OJDBLIDF@SDBytes@  00000001800f00e0     freetype:type1cid.obj
 0002:000090e8       ??_C@_09NKAONILE@SubrCount@ 00000001800f00e8     freetype:type1cid.obj
 0002:000090f8       ??_C@_0BC@HBJENNOG@lenBuildCharArray@ 00000001800f00f8     freetype:type1cid.obj
 0002:00009110       ??_C@_0BD@BGHMBBEO@ForceBoldThreshold@ 00000001800f0110     freetype:type1cid.obj
 0002:00009128       ??_C@_07PEKDNLEP@FDArray@  00000001800f0128     freetype:type1cid.obj
 0002:00009130       ??_C@_0BC@JBBEDJNJ@?$CFADOBeginFontDict@ 00000001800f0130     freetype:type1cid.obj
 0002:00009148       ??_C@_0CA@JGHPJJJF@?$CF?$CBPS?9Adobe?93?40?5Resource?9CIDFont@ 00000001800f0148     freetype:type1cid.obj
 0002:00009168       ??_C@_09BFOLOCGO@StartData@ 00000001800f0168     freetype:type1cid.obj
 0002:00009174       ??_C@_06EMLBPOPP@?1sfnts@  00000001800f0174     freetype:type1cid.obj
 0002:0000917c       ??_C@_05NPBNGLLN@?$CIHex?$CJ@ 00000001800f017c     freetype:type1cid.obj
 0002:00009188       ??_C@_0L@DDPIBKML@CID?5Type?51@ 00000001800f0188     freetype:type1cid.obj
 0002:00009194       ??_C@_05CNMLIGFM@t1cid@    00000001800f0194     freetype:type1cid.obj
 0002:000091a0       pfr_cmap_class_rec         00000001800f01a0     freetype:pfr.obj
 0002:000091f0       pfr_driver_class           00000001800f01f0     freetype:pfr.obj
 0002:000093b0       ??_C@_0M@BAGPBJNL@pfr?9metrics@ 00000001800f03b0     freetype:pfr.obj
 0002:000093bc       ??_C@_03OJCMOBOF@PFR@      00000001800f03bc     freetype:pfr.obj
 0002:000093c0       ??_C@_03OENHCMJJ@pfr@      00000001800f03c0     freetype:pfr.obj
 0002:00009460       t42_driver_class           00000001800f0460     freetype:type42.obj
 0002:000098d0       ??_C@_07GJBALKN@Type?542@  00000001800f08d0     freetype:type42.obj
 0002:000098d8       ??_C@_05FJOKMJFH@sfnts@    00000001800f08d8     freetype:type42.obj
 0002:000098e0       ??_C@_05MDIJLHEA@known@    00000001800f08e0     freetype:type42.obj
 0002:000098f0       winfnt_driver_class        00000001800f08f0     freetype:winfnt.obj
 0002:00009b90       ??_C@_0M@DFCIIFPB@Bold?5Italic@ 00000001800f0b90     freetype:winfnt.obj
 0002:00009b9c       ??_C@_06PPMHIBHB@Italic@   00000001800f0b9c     freetype:winfnt.obj
 0002:00009ba8       ??_C@_0M@FPCOPFGH@Windows?5FNT@ 00000001800f0ba8     freetype:winfnt.obj
 0002:00009bb8       ??_C@_08NAMFKPDH@winfonts@ 00000001800f0bb8     freetype:winfnt.obj
 0002:00009bd0       pcf_driver_class           00000001800f0bd0     freetype:pcf.obj
 0002:00009e8c       ??_C@_05FPAEEJJG@10646@    00000001800f0e8c     freetype:pcf.obj
 0002:00009e94       ??_C@_04LBDHIBCK@8859@     00000001800f0e94     freetype:pcf.obj
 0002:00009ea0       ??_C@_08EPMKAEBA@646?41991@ 00000001800f0ea0     freetype:pcf.obj
 0002:00009eac       ??_C@_03LLHODHFI@IRV@      00000001800f0eac     freetype:pcf.obj
 0002:00009eb0       ??_C@_03DDONLALG@bdf@      00000001800f0eb0     freetype:pcf.obj
 0002:00009eb4       ??_C@_03MBEJPEFL@PCF@      00000001800f0eb4     freetype:pcf.obj
 0002:00009eb8       ??_C@_03MMLCDJCH@pcf@      00000001800f0eb8     freetype:pcf.obj
 0002:00009ebc       ??_C@_05NOFPJGIP@SLANT@    00000001800f0ebc     freetype:pcf.obj
 0002:00009ec8       ??_C@_07EGOIFKG@Oblique@   00000001800f0ec8     freetype:pcf.obj
 0002:00009ed0       ??_C@_0M@FCJHKPGH@WEIGHT_NAME@ 00000001800f0ed0     freetype:pcf.obj
 0002:00009ee0       ??_C@_0O@DANCJNNA@SETWIDTH_NAME@ 00000001800f0ee0     freetype:pcf.obj
 0002:00009ef0       ??_C@_0P@BLEODLOA@ADD_STYLE_NAME@ 00000001800f0ef0     freetype:pcf.obj
 0002:00009f00       ??_C@_0M@FBEHGJKE@FAMILY_NAME@ 00000001800f0f00     freetype:pcf.obj
 0002:00009f10       ??_C@_0O@KPOPAFON@AVERAGE_WIDTH@ 00000001800f0f10     freetype:pcf.obj
 0002:00009f20       ??_C@_0L@JCJJGPJF@POINT_SIZE@ 00000001800f0f20     freetype:pcf.obj
 0002:00009f30       ??_C@_0L@CNGHIHBP@PIXEL_SIZE@ 00000001800f0f30     freetype:pcf.obj
 0002:00009f40       ??_C@_0N@NBDHNJFJ@RESOLUTION_X@ 00000001800f0f40     freetype:pcf.obj
 0002:00009f50       ??_C@_0N@MICMOIBI@RESOLUTION_Y@ 00000001800f0f50     freetype:pcf.obj
 0002:00009f60       ??_C@_0BB@OHIDJKBJ@CHARSET_REGISTRY@ 00000001800f0f60     freetype:pcf.obj
 0002:00009f78       ??_C@_0BB@OBJAMPOC@CHARSET_ENCODING@ 00000001800f0f78     freetype:pcf.obj
 0002:0000a840       bdf_driver_class           00000001800f1840     freetype:bdf.obj
 0002:0000a980       ??_C@_0BC@DEIBICAG@AVG_CAPITAL_WIDTH@ 00000001800f1980     freetype:bdf.obj
 0002:0000a998       ??_C@_0BE@FDPIDJIH@AVG_LOWERCASE_WIDTH@ 00000001800f1998     freetype:bdf.obj
 0002:0000a9b0       ??_C@_0L@IPPBEDCK@CAP_HEIGHT@ 00000001800f19b0     freetype:bdf.obj
 0002:0000a9c0       ??_C@_0BE@KNHMGHPI@CHARSET_COLLECTIONS@ 00000001800f19c0     freetype:bdf.obj
 0002:0000a9d8       ??_C@_07JEDAPFNH@COMMENT@  00000001800f19d8     freetype:bdf.obj
 0002:0000a9e0       ??_C@_09DJIAAPDG@COPYRIGHT@ 00000001800f19e0     freetype:bdf.obj
 0002:0000a9f0       ??_C@_0N@LOGJBDOF@DEFAULT_CHAR@ 00000001800f19f0     freetype:bdf.obj
 0002:0000aa00       ??_C@_0M@LFJMPFGC@DESTINATION@ 00000001800f1a00     freetype:bdf.obj
 0002:0000aa10       ??_C@_0BB@PJMJCLEI@DEVICE_FONT_NAME@ 00000001800f1a10     freetype:bdf.obj
 0002:0000aa28       ??_C@_09GEIPNEKC@END_SPACE@ 00000001800f1a28     freetype:bdf.obj
 0002:0000aa38       ??_C@_09DLOGKOHL@FACE_NAME@ 00000001800f1a38     freetype:bdf.obj
 0002:0000aa48       ??_C@_0N@LCIIJFB@FIGURE_WIDTH@ 00000001800f1a48     freetype:bdf.obj
 0002:0000aa58       ??_C@_04IJMKNFPK@FONT@     00000001800f1a58     freetype:bdf.obj
 0002:0000aa60       ??_C@_0BC@LNICJLFI@FONTNAME_REGISTRY@ 00000001800f1a60     freetype:bdf.obj
 0002:0000aa78       ??_C@_0M@ECCDLGDC@FONT_ASCENT@ 00000001800f1a78     freetype:bdf.obj
 0002:0000aa88       ??_C@_0N@BAIKBLGK@FONT_DESCENT@ 00000001800f1a88     freetype:bdf.obj
 0002:0000aa98       ??_C@_07GMNLECKJ@FOUNDRY@  00000001800f1a98     freetype:bdf.obj
 0002:0000aaa0       ??_C@_09IGHCOKHJ@FULL_NAME@ 00000001800f1aa0     freetype:bdf.obj
 0002:0000aab0       ??_C@_0N@LHJKBLMB@ITALIC_ANGLE@ 00000001800f1ab0     freetype:bdf.obj
 0002:0000aac0       ??_C@_09IDPFHPOD@MAX_SPACE@ 00000001800f1ac0     freetype:bdf.obj
 0002:0000aad0       ??_C@_09ICPJOFFH@MIN_SPACE@ 00000001800f1ad0     freetype:bdf.obj
 0002:0000aae0       ??_C@_0L@CKCFAFFG@NORM_SPACE@ 00000001800f1ae0     freetype:bdf.obj
 0002:0000aaec       ??_C@_06FMPEGAHJ@NOTICE@   00000001800f1aec     freetype:bdf.obj
 0002:0000aaf8       ??_C@_0L@MANNMNIK@QUAD_WIDTH@ 00000001800f1af8     freetype:bdf.obj
 0002:0000ab08       ??_C@_0L@CAMLDNCF@RAW_ASCENT@ 00000001800f1b08     freetype:bdf.obj
 0002:0000ab18       ??_C@_0BC@LNOEENJF@RAW_AVERAGE_WIDTH@ 00000001800f1b18     freetype:bdf.obj
 0002:0000ab30       ??_C@_0BG@PEMOHOIO@RAW_AVG_CAPITAL_WIDTH@ 00000001800f1b30     freetype:bdf.obj
 0002:0000ab48       ??_C@_0BI@BEKJFFLM@RAW_AVG_LOWERCASE_WIDTH@ 00000001800f1b48     freetype:bdf.obj
 0002:0000ab60       ??_C@_0P@PDBKEGFB@RAW_CAP_HEIGHT@ 00000001800f1b60     freetype:bdf.obj
 0002:0000ab70       ??_C@_0M@JDDLHGCG@RAW_DESCENT@ 00000001800f1b70     freetype:bdf.obj
 0002:0000ab80       ??_C@_0O@FDGFBIGM@RAW_END_SPACE@ 00000001800f1b80     freetype:bdf.obj
 0002:0000ab90       ??_C@_0BB@LHIJKBAI@RAW_FIGURE_WIDTH@ 00000001800f1b90     freetype:bdf.obj
 0002:0000aba8       ??_C@_0O@LEBPLDCN@RAW_MAX_SPACE@ 00000001800f1ba8     freetype:bdf.obj
 0002:0000abb8       ??_C@_0O@LFBDCJJJ@RAW_MIN_SPACE@ 00000001800f1bb8     freetype:bdf.obj
 0002:0000abc8       ??_C@_0P@FGMOAACN@RAW_NORM_SPACE@ 00000001800f1bc8     freetype:bdf.obj
 0002:0000abd8       ??_C@_0P@FBIMICGE@RAW_PIXEL_SIZE@ 00000001800f1bd8     freetype:bdf.obj
 0002:0000abe8       ??_C@_0P@OOHCGKOO@RAW_POINT_SIZE@ 00000001800f1be8     freetype:bdf.obj
 0002:0000abf8       ??_C@_0O@HNFKKCGD@RAW_PIXELSIZE@ 00000001800f1bf8     freetype:bdf.obj
 0002:0000ac08       ??_C@_0O@FDNDDOFA@RAW_POINTSIZE@ 00000001800f1c08     freetype:bdf.obj
 0002:0000ac18       ??_C@_0P@LMDGMIPB@RAW_QUAD_WIDTH@ 00000001800f1c18     freetype:bdf.obj
 0002:0000ac28       ??_C@_0BD@HHNHPPKD@RAW_SMALL_CAP_SIZE@ 00000001800f1c28     freetype:bdf.obj
 0002:0000ac40       ??_C@_0BF@DLAIFMIE@RAW_STRIKEOUT_ASCENT@ 00000001800f1c40     freetype:bdf.obj
 0002:0000ac58       ??_C@_0BG@DCPBCGDJ@RAW_STRIKEOUT_DESCENT@ 00000001800f1c58     freetype:bdf.obj
 0002:0000ac70       ??_C@_0BD@FGAMCDPE@RAW_SUBSCRIPT_SIZE@ 00000001800f1c70     freetype:bdf.obj
 0002:0000ac88       ??_C@_0BA@ICOMKGEO@RAW_SUBSCRIPT_X@ 00000001800f1c88     freetype:bdf.obj
 0002:0000ac98       ??_C@_0BA@JLPHJHAP@RAW_SUBSCRIPT_Y@ 00000001800f1c98     freetype:bdf.obj
 0002:0000aca8       ??_C@_0BF@ILCJEECH@RAW_SUPERSCRIPT_SIZE@ 00000001800f1ca8     freetype:bdf.obj
 0002:0000acc0       ??_C@_0BC@EMCLOPNI@RAW_SUPERSCRIPT_X@ 00000001800f1cc0     freetype:bdf.obj
 0002:0000acd8       ??_C@_0BC@FFDANOJJ@RAW_SUPERSCRIPT_Y@ 00000001800f1cd8     freetype:bdf.obj
 0002:0000acf0       ??_C@_0BH@LIHCGIBB@RAW_UNDERLINE_POSITION@ 00000001800f1cf0     freetype:bdf.obj
 0002:0000ad08       ??_C@_0BI@OEPMFPAK@RAW_UNDERLINE_THICKNESS@ 00000001800f1d08     freetype:bdf.obj
 0002:0000ad20       ??_C@_0N@LFICGJOL@RAW_X_HEIGHT@ 00000001800f1d20     freetype:bdf.obj
 0002:0000ad30       ??_C@_0BC@JMGAMBDF@RELATIVE_SETWIDTH@ 00000001800f1d30     freetype:bdf.obj
 0002:0000ad48       ??_C@_0BA@NKHOPHOP@RELATIVE_WEIGHT@ 00000001800f1d48     freetype:bdf.obj
 0002:0000ad58       ??_C@_0L@JGAABLGD@RESOLUTION@ 00000001800f1d58     freetype:bdf.obj
 0002:0000ad68       ??_C@_0P@CJBLANOF@SMALL_CAP_SIZE@ 00000001800f1d68     freetype:bdf.obj
 0002:0000ad78       ??_C@_07JKNGKIOL@SPACING@  00000001800f1d78     freetype:bdf.obj
 0002:0000ad80       ??_C@_0BB@MOJIHJPL@STRIKEOUT_ASCENT@ 00000001800f1d80     freetype:bdf.obj
 0002:0000ad98       ??_C@_0BC@PCLONKLB@STRIKEOUT_DESCENT@ 00000001800f1d98     freetype:bdf.obj
 0002:0000adb0       ??_C@_0P@IMANBLC@SUBSCRIPT_SIZE@ 00000001800f1db0     freetype:bdf.obj
 0002:0000adc0       ??_C@_0M@EFEHOFPP@SUBSCRIPT_X@ 00000001800f1dc0     freetype:bdf.obj
 0002:0000add0       ??_C@_0M@FMFMNELO@SUBSCRIPT_Y@ 00000001800f1dd0     freetype:bdf.obj
 0002:0000ade0       ??_C@_0BB@HOLJGBFI@SUPERSCRIPT_SIZE@ 00000001800f1de0     freetype:bdf.obj
 0002:0000adf8       ??_C@_0O@FOCAKHKA@SUPERSCRIPT_X@ 00000001800f1df8     freetype:bdf.obj
 0002:0000ae08       ??_C@_0O@EHDLJGOB@SUPERSCRIPT_Y@ 00000001800f1e08     freetype:bdf.obj
 0002:0000ae18       ??_C@_0BD@FLNBCMPP@UNDERLINE_POSITION@ 00000001800f1e18     freetype:bdf.obj
 0002:0000ae30       ??_C@_0BE@KDKNDDDB@UNDERLINE_THICKNESS@ 00000001800f1e30     freetype:bdf.obj
 0002:0000ae44       ??_C@_06CIAKHCPD@WEIGHT@   00000001800f1e44     freetype:bdf.obj
 0002:0000ae50       ??_C@_08IHHFFHAA@X_HEIGHT@ 00000001800f1e50     freetype:bdf.obj
 0002:0000ae60       ??_C@_0BG@NJJHMBCE@_MULE_BASELINE_OFFSET@ 00000001800f1e60     freetype:bdf.obj
 0002:0000ae78       ??_C@_0BH@EGBLCDE@_MULE_RELATIVE_COMPOSE@ 00000001800f1e78     freetype:bdf.obj
 0002:0000ae90       ??_C@_05HCHEPOAH@CHARS@    00000001800f1e90     freetype:bdf.obj
 0002:0000ae98       ??_C@_02EOIDJNGE@?5?$CL@   00000001800f1e98     freetype:bdf.obj
 0002:0000aea0       ??_C@_07MLEKHHFJ@ENDFONT@  00000001800f1ea0     freetype:bdf.obj
 0002:0000aea8       ??_C@_07MDHLCACL@ENDCHAR@  00000001800f1ea8     freetype:bdf.obj
 0002:0000aeb0       ??_C@_09BPKMEANO@STARTCHAR@ 00000001800f1eb0     freetype:bdf.obj
 0002:0000aec0       ??_C@_08LEFKDKKN@ENCODING@ 00000001800f1ec0     freetype:bdf.obj
 0002:0000aecc       ??_C@_06HDKFFNNH@SWIDTH@   00000001800f1ecc     freetype:bdf.obj
 0002:0000aed4       ??_C@_06NBNMPPJH@DWIDTH@   00000001800f1ed4     freetype:bdf.obj
 0002:0000aedc       ??_C@_03OONKDOKH@BBX@      00000001800f1edc     freetype:bdf.obj
 0002:0000aee0       ??_C@_06PGFOEMDN@BITMAP@   00000001800f1ee0     freetype:bdf.obj
 0002:0000aee8       ??_C@_0O@JFDPHGFD@ENDPROPERTIES@ 00000001800f1ee8     freetype:bdf.obj
 0002:0000aef8       ??_C@_03OACELNE@?$CFhd@    00000001800f1ef8     freetype:bdf.obj
 0002:0000af00       ??_C@_0BG@NDMEGDOA@_XFREE86_GLYPH_RANGES@ 00000001800f1f00     freetype:bdf.obj
 0002:0000af18       ??_C@_09BHJNBHKM@STARTFONT@ 00000001800f1f18     freetype:bdf.obj
 0002:0000af28       ??_C@_0BA@HGECMEMA@STARTPROPERTIES@ 00000001800f1f28     freetype:bdf.obj
 0002:0000af38       ??_C@_0BA@PIDAKDPC@FONTBOUNDINGBOX@ 00000001800f1f38     freetype:bdf.obj
 0002:0000af48       ??_C@_04EMFHLKGI@SIZE@     00000001800f1f48     freetype:bdf.obj
 0002:0000af50       ??_C@_03DOBGHNMK@BDF@      00000001800f1f50     freetype:bdf.obj
 0002:0000af60       __xmm@00000008000000000000000100000001 00000001800f1f60     freetype:bdf.obj
 0002:0000b200       cff_builder_funcs          00000001800f2200     freetype:psaux.obj
 0002:0000b240       ps_builder_funcs           00000001800f2240     freetype:psaux.obj
 0002:0000b250       afm_parser_funcs           00000001800f2250     freetype:psaux.obj
 0002:0000b268       t1_cmap_classes            00000001800f2268     freetype:psaux.obj
 0002:0000b288       cff_decoder_funcs          00000001800f2288     freetype:psaux.obj
 0002:0000b2a0       psaux_module_class         00000001800f22a0     freetype:psaux.obj
 0002:0000b2d8       ps_table_funcs             00000001800f22d8     freetype:psaux.obj
 0002:0000b300       ps_parser_funcs            00000001800f2300     freetype:psaux.obj
 0002:0000b370       t1_builder_funcs           00000001800f2370     freetype:psaux.obj
 0002:0000b3b0       t1_decoder_funcs           00000001800f23b0     freetype:psaux.obj
 0002:0000b3d0       t1_cmap_standard_class_rec 00000001800f23d0     freetype:psaux.obj
 0002:0000b420       t1_cmap_expert_class_rec   00000001800f2420     freetype:psaux.obj
 0002:0000b470       t1_cmap_custom_class_rec   00000001800f2470     freetype:psaux.obj
 0002:0000b4c0       t1_cmap_unicode_class_rec  00000001800f24c0     freetype:psaux.obj
 0002:0000b660       ??_C@_08NBPEBJDA@Ascender@ 00000001800f2660     freetype:psaux.obj
 0002:0000b670       ??_C@_09POOBGNPO@AxisLabel@ 00000001800f2670     freetype:psaux.obj
 0002:0000b680       ??_C@_08KLONHBMG@AxisType@ 00000001800f2680     freetype:psaux.obj
 0002:0000b68c       ??_C@_02KJDGAJLC@CC@       00000001800f268c     freetype:psaux.obj
 0002:0000b690       ??_C@_02EKMCNAHJ@CH@       00000001800f2690     freetype:psaux.obj
 0002:0000b698       ??_C@_09JOCJHGEG@CapHeight@ 00000001800f2698     freetype:psaux.obj
 0002:0000b6a8       ??_C@_09CGMEAFLF@CharWidth@ 00000001800f26a8     freetype:psaux.obj
 0002:0000b6b8       ??_C@_0N@LHPDLMAH@CharacterSet@ 00000001800f26b8     freetype:psaux.obj
 0002:0000b6c8       ??_C@_0L@EMODJLOD@Characters@ 00000001800f26c8     freetype:psaux.obj
 0002:0000b6d8       ??_C@_09JMDLBBJN@Descender@ 00000001800f26d8     freetype:psaux.obj
 0002:0000b6e8       ??_C@_0P@JNPLONMI@EncodingScheme@ 00000001800f26e8     freetype:psaux.obj
 0002:0000b6f8       ??_C@_07DLEALFPL@EndAxis@  00000001800f26f8     freetype:psaux.obj
 0002:0000b700       ??_C@_0P@GFNMGKCM@EndCharMetrics@ 00000001800f2700     freetype:psaux.obj
 0002:0000b710       ??_C@_0O@JABMALCH@EndComposites@ 00000001800f2710     freetype:psaux.obj
 0002:0000b720       ??_C@_0N@FNMEONKF@EndDirection@ 00000001800f2720     freetype:psaux.obj
 0002:0000b730       ??_C@_0P@FGFFCKLI@EndFontMetrics@ 00000001800f2730     freetype:psaux.obj
 0002:0000b740       ??_C@_0M@HKHGIIOM@EndKernData@ 00000001800f2740     freetype:psaux.obj
 0002:0000b750       ??_C@_0N@IJIACAAI@EndKernPairs@ 00000001800f2750     freetype:psaux.obj
 0002:0000b760       ??_C@_0N@FEBBJBLC@EndTrackKern@ 00000001800f2760     freetype:psaux.obj
 0002:0000b770       ??_C@_07BNJNBMEL@EscChar@  00000001800f2770     freetype:psaux.obj
 0002:0000b778       ??_C@_0L@PAHDJIHN@IsBaseFont@ 00000001800f2778     freetype:psaux.obj
 0002:0000b788       ??_C@_09OIFAOJEJ@IsCIDFont@ 00000001800f2788     freetype:psaux.obj
 0002:0000b798       ??_C@_0N@LNIFJEBO@IsFixedPitch@ 00000001800f2798     freetype:psaux.obj
 0002:0000b7a8       ??_C@_08CHFNODLO@IsFixedV@ 00000001800f27a8     freetype:psaux.obj
 0002:0000b7b4       ??_C@_02MGMKBJJI@KP@       00000001800f27b4     freetype:psaux.obj
 0002:0000b7b8       ??_C@_03MGLCBEGC@KPH@      00000001800f27b8     freetype:psaux.obj
 0002:0000b7bc       ??_C@_03IMHAAGDD@KPX@      00000001800f27bc     freetype:psaux.obj
 0002:0000b7c0       ??_C@_03JFGLDHHC@KPY@      00000001800f27c0     freetype:psaux.obj
 0002:0000b7c8       ??_C@_0O@NDBFHPJC@MappingScheme@ 00000001800f27c8     freetype:psaux.obj
 0002:0000b7d8       ??_C@_0M@PGHPLBFB@MetricsSets@ 00000001800f27d8     freetype:psaux.obj
 0002:0000b7e4       ??_C@_03LMDOAABO@PCC@      00000001800f27e4     freetype:psaux.obj
 0002:0000b7e8       ??_C@_09JMBADFPL@StartAxis@ 00000001800f27e8     freetype:psaux.obj
 0002:0000b7f8       ??_C@_0BB@JDMDJAID@StartCharMetrics@ 00000001800f27f8     freetype:psaux.obj
 0002:0000b810       ??_C@_0BA@DGMAPPPC@StartComposites@ 00000001800f2810     freetype:psaux.obj
 0002:0000b820       ??_C@_0P@DNGHFPAA@StartDirection@ 00000001800f2820     freetype:psaux.obj
 0002:0000b830       ??_C@_0BB@KAEKNABH@StartFontMetrics@ 00000001800f2830     freetype:psaux.obj
 0002:0000b848       ??_C@_0O@GJEKPIHD@StartKernData@ 00000001800f2848     freetype:psaux.obj
 0002:0000b858       ??_C@_0P@OJCDJCKN@StartKernPairs@ 00000001800f2858     freetype:psaux.obj
 0002:0000b868       ??_C@_0BA@HHMIMKDE@StartKernPairs0@ 00000001800f2868     freetype:psaux.obj
 0002:0000b878       ??_C@_0BA@GONDPLHF@StartKernPairs1@ 00000001800f2878     freetype:psaux.obj
 0002:0000b888       ??_C@_0P@DELCCDBH@StartTrackKern@ 00000001800f2888     freetype:psaux.obj
 0002:0000b898       ??_C@_09DJCDMHFC@TrackKern@ 00000001800f2898     freetype:psaux.obj
 0002:0000b8a4       ??_C@_02IEGOIODN@VV@       00000001800f28a4     freetype:psaux.obj
 0002:0000b8a8       ??_C@_07HFOFDFIM@VVector@  00000001800f28a8     freetype:psaux.obj
 0002:0000b8b0       ??_C@_07NGFJPNPN@Version@  00000001800f28b0     freetype:psaux.obj
 0002:0000b8b8       ??_C@_02LGALCICL@W0@       00000001800f28b8     freetype:psaux.obj
 0002:0000b8bc       ??_C@_03NOGICFDE@W0X@      00000001800f28bc     freetype:psaux.obj
 0002:0000b8c0       ??_C@_03MHHDBEHF@W0Y@      00000001800f28c0     freetype:psaux.obj
 0002:0000b8c4       ??_C@_02KPBABJGK@W1@       00000001800f28c4     freetype:psaux.obj
 0002:0000b8c8       ??_C@_03NPKKEPAD@W1X@      00000001800f28c8     freetype:psaux.obj
 0002:0000b8cc       ??_C@_03MGLBHOEC@W1Y@      00000001800f28cc     freetype:psaux.obj
 0002:0000b8d0       ??_C@_02BLCPMJIE@WX@       00000001800f28d0     freetype:psaux.obj
 0002:0000b8d4       ??_C@_02CDEPIMF@WY@        00000001800f28d4     freetype:psaux.obj
 0002:0000b8d8       ??_C@_07MIHJBPO@XHeight@   00000001800f28d8     freetype:psaux.obj
 0002:0000b8e0       psnames_module_class       00000001800f28e0     freetype:psmodule.obj
 0002:0000b940       ft_standard_glyph_names    00000001800f2940     freetype:psmodule.obj
 0002:0000c7b0       ft_mac_names               00000001800f37b0     freetype:psmodule.obj
 0002:0000c9c0       ft_sid_names               00000001800f39c0     freetype:psmodule.obj
 0002:0000ccd0       t1_standard_encoding       00000001800f3cd0     freetype:psmodule.obj
 0002:0000ced0       t1_expert_encoding         00000001800f3ed0     freetype:psmodule.obj
 0002:0000d0d0       ft_adobe_glyph_list        00000001800f40d0     freetype:psmodule.obj
 0002:0001ac70       ??_C@_07POODEHEH@psnames@  0000000180101c70     freetype:psmodule.obj
 0002:0001ac78       pshinter_module_class      0000000180101c78     freetype:pshinter.obj
 0002:0001ada8       sfnt_module_class          0000000180101da8     freetype:sfnt.obj
 0002:0001af50       tt_cmap0_class_rec         0000000180101f50     freetype:sfnt.obj
 0002:0001afc0       tt_cmap2_class_rec         0000000180101fc0     freetype:sfnt.obj
 0002:0001b030       tt_cmap4_class_rec         0000000180102030     freetype:sfnt.obj
 0002:0001b0a0       tt_cmap6_class_rec         00000001801020a0     freetype:sfnt.obj
 0002:0001b110       tt_cmap8_class_rec         0000000180102110     freetype:sfnt.obj
 0002:0001b180       tt_cmap10_class_rec        0000000180102180     freetype:sfnt.obj
 0002:0001b1f0       tt_cmap12_class_rec        00000001801021f0     freetype:sfnt.obj
 0002:0001b260       tt_cmap13_class_rec        0000000180102260     freetype:sfnt.obj
 0002:0001b2d0       tt_cmap14_class_rec        00000001801022d0     freetype:sfnt.obj
 0002:0001b340       tt_cmap_unicode_class_rec  0000000180102340     freetype:sfnt.obj
 0002:0001b7d0       ft_smooth_renderer_class   00000001801027d0     freetype:smooth.obj
 0002:0001b838       ft_grays_raster            0000000180102838     freetype:smooth.obj
 0002:0001b868       ??_C@_06INICNAFJ@smooth@   0000000180102868     freetype:smooth.obj
 0002:0001b870       ft_raster1_renderer_class  0000000180102870     freetype:raster.obj
 0002:0001b8d8       ft_standard_raster         00000001801028d8     freetype:raster.obj
 0002:0001b908       ??_C@_07EFFNHEPH@raster1@  0000000180102908     freetype:raster.obj
 0002:0001b910       ft_sdf_renderer_class      0000000180102910     freetype:sdf.obj
 0002:0001b980       ft_bitmap_sdf_renderer_class 0000000180102980     freetype:sdf.obj
 0002:0001b9e8       ft_sdf_raster              00000001801029e8     freetype:sdf.obj
 0002:0001ba18       ft_bitmap_sdf_raster       0000000180102a18     freetype:sdf.obj
 0002:0001bb18       ??_C@_06HDFPFMNM@spread@   0000000180102b18     freetype:sdf.obj
 0002:0001bb20       ??_C@_09OKHFPJIN@flip_sign@ 0000000180102b20     freetype:sdf.obj
 0002:0001bb2c       ??_C@_06JDMDIION@flip_y@   0000000180102b2c     freetype:sdf.obj
 0002:0001bb38       ??_C@_08OAMMLKPE@overlaps@ 0000000180102b38     freetype:sdf.obj
 0002:0001bb44       ??_C@_03NLEIIAEM@sdf@      0000000180102b44     freetype:sdf.obj
 0002:0001bb48       ??_C@_04NPNMIMGA@bsdf@     0000000180102b48     freetype:sdf.obj
 0002:0001bb50       ft_svg_renderer_class      0000000180102b50     freetype:svg.obj
 0002:0001bbf0       ??_C@_09CKOGGGLJ@svg?9hooks@ 0000000180102bf0     freetype:svg.obj
 0002:0001bc00       __xmm@00010000000000000000000000010000 0000000180102c00     freetype:svg.obj
 0002:0001bc40       z_errmsg                   0000000180102c40     freetype:ftgzip.obj
 0002:0001c510       inflate_copyright          0000000180103510     freetype:ftgzip.obj
 0002:0001caf0       ??_C@_0BA@MOKMMFOD@need?5dictionary@ 0000000180103af0     freetype:ftgzip.obj
 0002:0001cb00       ??_C@_0L@FNAOCBOG@stream?5end@ 0000000180103b00     freetype:ftgzip.obj
 0002:0001cb10       ??_C@_0L@KIJFAKBJ@file?5error@ 0000000180103b10     freetype:ftgzip.obj
 0002:0001cb20       ??_C@_0N@MKKNPMJD@stream?5error@ 0000000180103b20     freetype:ftgzip.obj
 0002:0001cb30       ??_C@_0L@HAHMBNLP@data?5error@ 0000000180103b30     freetype:ftgzip.obj
 0002:0001cb40       ??_C@_0BE@OGGJBMCE@insufficient?5memory@ 0000000180103b40     freetype:ftgzip.obj
 0002:0001cb58       ??_C@_0N@DFPGLBGC@buffer?5error@ 0000000180103b58     freetype:ftgzip.obj
 0002:0001cb68       ??_C@_0BF@CJFPCCEG@incompatible?5version@ 0000000180103b68     freetype:ftgzip.obj
 0002:0001cb80       ??_C@_0BO@ECPMAOGG@invalid?5distance?5too?5far?5back@ 0000000180103b80     freetype:ftgzip.obj
 0002:0001cba0       ??_C@_0BG@LBKINIKP@invalid?5distance?5code@ 0000000180103ba0     freetype:ftgzip.obj
 0002:0001cbb8       ??_C@_0BM@FFFLPBBC@invalid?5literal?1length?5code@ 0000000180103bb8     freetype:ftgzip.obj
 0002:0001cbd8       ??_C@_0BH@LIBMMIGA@incorrect?5header?5check@ 0000000180103bd8     freetype:ftgzip.obj
 0002:0001cbf0       ??_C@_0BL@IHKGDAEE@unknown?5compression?5method@ 0000000180103bf0     freetype:ftgzip.obj
 0002:0001cc10       ??_C@_0BE@EMOGCLGO@invalid?5window?5size@ 0000000180103c10     freetype:ftgzip.obj
 0002:0001cc28       ??_C@_0BJ@BLBBCOMO@unknown?5header?5flags?5set@ 0000000180103c28     freetype:ftgzip.obj
 0002:0001cc48       ??_C@_0BE@GONKLEPM@header?5crc?5mismatch@ 0000000180103c48     freetype:ftgzip.obj
 0002:0001cc60       ??_C@_0BD@PJCBIDD@invalid?5block?5type@ 0000000180103c60     freetype:ftgzip.obj
 0002:0001cc78       ??_C@_0BN@LGAADGOK@invalid?5stored?5block?5lengths@ 0000000180103c78     freetype:ftgzip.obj
 0002:0001cc98       ??_C@_0CE@GMIGFPBB@too?5many?5length?5or?5distance?5sym@ 0000000180103c98     freetype:ftgzip.obj
 0002:0001ccc0       ??_C@_0BJ@HDEPPGOH@invalid?5code?5lengths?5set@ 0000000180103cc0     freetype:ftgzip.obj
 0002:0001cce0       ??_C@_0BK@BMMPFBBH@invalid?5bit?5length?5repeat@ 0000000180103ce0     freetype:ftgzip.obj
 0002:0001cd00       ??_C@_0CF@DGDMADCD@invalid?5code?5?9?9?5missing?5end?9of?9@ 0000000180103d00     freetype:ftgzip.obj
 0002:0001cd28       ??_C@_0BM@IIMGAINC@invalid?5literal?1lengths?5set@ 0000000180103d28     freetype:ftgzip.obj
 0002:0001cd48       ??_C@_0BG@GMDFCBGP@invalid?5distances?5set@ 0000000180103d48     freetype:ftgzip.obj
 0002:0001cd60       ??_C@_0BF@MEIGEHBE@incorrect?5data?5check@ 0000000180103d60     freetype:ftgzip.obj
 0002:0001cd78       ??_C@_0BH@FGKKJGOC@incorrect?5length?5check@ 0000000180103d78     freetype:ftgzip.obj
 0002:0001cd90       ??_C@_0BC@EOODALEL@Unknown?5exception@ 0000000180103d90     Base64.obj
 0002:0001cda8       ??_C@_0BF@KINCDENJ@bad?5array?5new?5length@ 0000000180103da8     Base64.obj
 0002:0001cdc0       ??_C@_0BA@JFNIOLAK@string?5too?5long@ 0000000180103dc0     Base64.obj
 0002:0001cdd0       ??_C@_00CNPNBAHC@@         0000000180103dd0     Base64.obj
 0002:0001cdd8       ??_C@_0BI@CFPLBAOH@invalid?5string?5position@ 0000000180103dd8     Base64.obj
 0002:0001cdf0       ??_C@_0BL@GOIGLPKN@unordered_map?1set?5too?5long@ 0000000180103df0     imgui_tricks.obj
 0002:0001ce10       ??_C@_0BK@OGNNAFAB@invalid?5hash?5bucket?5count@ 0000000180103e10     imgui_tricks.obj
 0002:0001ce30       ??_C@_0BA@FOIKENOD@vector?5too?5long@ 0000000180103e30     imgui_tricks.obj
 0002:0001ce40       ??_C@_0BE@JCPEPLOM@1249731946724982824@ 0000000180103e40     Discord.obj
 0002:0001ce58       ??_C@_0DP@CCELEMID@0123456789abcdefghijklmnopqrstu@ 0000000180103e58     Discord.obj
 0002:0001ce98       ??_C@_0M@EPFNIPFK@UserNAME?5?3?5@ 0000000180103e98     Discord.obj
 0002:0001cea8       ??_C@_0M@ENCKEKCN@SOSAL?5DA?5?3?5@ 0000000180103ea8     Discord.obj
 0002:0001ceb8       ??_C@_08EANODIIC@image_1_@ 0000000180103eb8     Discord.obj
 0002:0001cec4       ??_C@_01FDFGLJHB@2@        0000000180103ec4     Discord.obj
 0002:0001cec8       ??_C@_1CO@BJOBIKK@?$AA?2?$AA?2?$AA?$DP?$AA?2?$AAp?$AAi?$AAp?$AAe?$AA?2?$AAd?$AAi?$AAs?$AAc?$AAo?$AAr@ 0000000180103ec8     connection_win.obj
 0002:0001cef8       ??_C@_15GANGMFKL@?$AA?$CF?$AAs@ 0000000180103ef8     discord_register_win.obj
 0002:0001cf00       ??_C@_1BG@CLNFGNGD@?$AAd?$AAi?$AAs?$AAc?$AAo?$AAr?$AAd?$AA?9?$AA?$CF?$AAs@ 0000000180103f00     discord_register_win.obj
 0002:0001cf18       ??_C@_1DC@MGEKCBOM@?$AAU?$AAR?$AAL?$AA?3?$AAR?$AAu?$AAn?$AA?5?$AAg?$AAa?$AAm?$AAe?$AA?5?$AA?$CF?$AAs@ 0000000180103f18     discord_register_win.obj
 0002:0001cf50       ??_C@_1CI@GAOAGGON@?$AAS?$AAo?$AAf?$AAt?$AAw?$AAa?$AAr?$AAe?$AA?2?$AAC?$AAl?$AAa?$AAs?$AAs?$AAe@ 0000000180103f50     discord_register_win.obj
 0002:0001cf78       ??_C@_0BE@IACOJMGE@Error?5creating?5key?6@ 0000000180103f78     discord_register_win.obj
 0002:0001cf90       ??_C@_0BL@KGHKEPJ@Error?5writing?5description?6@ 0000000180103f90     discord_register_win.obj
 0002:0001cfb0       ??_C@_1BK@IBPJPEFD@?$AAU?$AAR?$AAL?$AA?5?$AAP?$AAr?$AAo?$AAt?$AAo?$AAc?$AAo?$AAl@ 0000000180103fb0     discord_register_win.obj
 0002:0001cfd0       ??_C@_1BI@IDMJHIIF@?$AAD?$AAe?$AAf?$AAa?$AAu?$AAl?$AAt?$AAI?$AAc?$AAo?$AAn@ 0000000180103fd0     discord_register_win.obj
 0002:0001cfe8       ??_C@_0BE@GDLKHIKC@Error?5writing?5icon?6@ 0000000180103fe8     discord_register_win.obj
 0002:0001d000       ??_C@_1CG@CBEOMECC@?$AAs?$AAh?$AAe?$AAl?$AAl?$AA?2?$AAo?$AAp?$AAe?$AAn?$AA?2?$AAc?$AAo?$AAm?$AAm@ 0000000180104000     discord_register_win.obj
 0002:0001d028       ??_C@_0BH@EFAOJBEN@Error?5writing?5command?6@ 0000000180104028     discord_register_win.obj
 0002:0001d040       ??_C@_03MJGMIPMC@evt@      0000000180104040     discord_rpc.obj
 0002:0001d044       ??_C@_05OOEDLKEB@nonce@    0000000180104044     discord_rpc.obj
 0002:0001d04c       ??_C@_05MBDEGLCK@ERROR@    000000018010404c     discord_rpc.obj
 0002:0001d054       ??_C@_04PJOLNDGD@data@     0000000180104054     discord_rpc.obj
 0002:0001d05c       ??_C@_04NDFOBODE@code@     000000018010405c     discord_rpc.obj
 0002:0001d068       ??_C@_07ONPBMBOP@message@  0000000180104068     discord_rpc.obj
 0002:0001d070       ??_C@_0O@PMIKFPKN@ACTIVITY_JOIN@ 0000000180104070     discord_rpc.obj
 0002:0001d080       ??_C@_06PNMBKEGN@secret@   0000000180104080     discord_rpc.obj
 0002:0001d088       ??_C@_0BC@HLMAKDNL@ACTIVITY_SPECTATE@ 0000000180104088     discord_rpc.obj
 0002:0001d0a0       ??_C@_0BG@FBCHPKHM@ACTIVITY_JOIN_REQUEST@ 00000001801040a0     discord_rpc.obj
 0002:0001d0b8       ??_C@_04CCHAHKJA@user@     00000001801040b8     discord_rpc.obj
 0002:0001d0c0       ??_C@_02EGCJHIOB@id@       00000001801040c0     discord_rpc.obj
 0002:0001d0c8       ??_C@_08ODGEKKOL@username@ 00000001801040c8     discord_rpc.obj
 0002:0001d0d4       ??_C@_06IGDKFKFJ@avatar@   00000001801040d4     discord_rpc.obj
 0002:0001d0e0       ??_C@_0O@NDHOLLPC@discriminator@ 00000001801040e0     discord_rpc.obj
 0002:0001d0f0       ??_C@_03LGLGIONO@cmd@      00000001801040f0     rpc_connection.obj
 0002:0001d0f8       ??_C@_08NJGJIENJ@DISPATCH@ 00000001801040f8     rpc_connection.obj
 0002:0001d104       ??_C@_05KACKNMMA@READY@    0000000180104104     rpc_connection.obj
 0002:0001d110       ??_C@_0M@GCAODJNL@Pipe?5closed@ 0000000180104110     rpc_connection.obj
 0002:0001d120       ??_C@_0BG@GCPICGNA@Partial?5data?5in?5frame@ 0000000180104120     rpc_connection.obj
 0002:0001d138       ??_C@_0O@DKBGBEKL@Bad?5ipc?5frame@ 0000000180104138     rpc_connection.obj
 0002:0001d146       ?emptyString@?$GenericStringRef@D@rapidjson@@0QBDB 0000000180104146     rpc_connection.obj
 0002:0001d150       ?escape@?1???$ParseStringToStream@$00U?$UTF8@D@rapidjson@@U12@U?$GenericInsituStringStream@U?$UTF8@D@rapidjson@@@2@U32@@?$GenericReader@U?$UTF8@D@rapidjson@@U12@V?$FixedLinearAllocator@$0IAA@@@@rapidjson@@AEAAXAEAU?$GenericInsituStringStream@U?$UTF8@D@rapidjson@@@2@0@Z@4QBDB 0000000180104150     rpc_connection.obj
 0002:0001d250       ?e@?1??Pow10@internal@rapidjson@@YANH@Z@4QBNB 0000000180104250     rpc_connection.obj
 0002:0001dbf8       ??_C@_0N@KMMGFIKG@SET_ACTIVITY@ 0000000180104bf8     serialization.obj
 0002:0001dc08       ??_C@_04BFDDMJJI@args@     0000000180104c08     serialization.obj
 0002:0001dc10       ??_C@_03PDBDNOHD@pid@      0000000180104c10     serialization.obj
 0002:0001dc18       ??_C@_08KGOPNMJB@activity@ 0000000180104c18     serialization.obj
 0002:0001dc24       ??_C@_05HDBKIDE@state@     0000000180104c24     serialization.obj
 0002:0001dc30       ??_C@_07CAOCFMEH@details@  0000000180104c30     serialization.obj
 0002:0001dc38       ??_C@_0L@LCJIDOND@timestamps@ 0000000180104c38     serialization.obj
 0002:0001dc44       ??_C@_05FAGFPHJG@start@    0000000180104c44     serialization.obj
 0002:0001dc4c       ??_C@_03JBJLGPFL@end@      0000000180104c4c     serialization.obj
 0002:0001dc50       ??_C@_06CHIEGPCI@assets@   0000000180104c50     serialization.obj
 0002:0001dc58       ??_C@_0M@CHNBOAOH@large_image@ 0000000180104c58     serialization.obj
 0002:0001dc68       ??_C@_0L@MBKFHKBH@large_text@ 0000000180104c68     serialization.obj
 0002:0001dc78       ??_C@_0M@CMELPLA@small_image@ 0000000180104c78     serialization.obj
 0002:0001dc88       ??_C@_0L@LLCIINKF@small_text@ 0000000180104c88     serialization.obj
 0002:0001dc94       ??_C@_05INHOGHEE@party@    0000000180104c94     serialization.obj
 0002:0001dc9c       ??_C@_04IAGNFIBA@size@     0000000180104c9c     serialization.obj
 0002:0001dca8       ??_C@_07DHOMPGHE@secrets@  0000000180104ca8     serialization.obj
 0002:0001dcb0       ??_C@_05FNONLPDI@match@    0000000180104cb0     serialization.obj
 0002:0001dcb8       ??_C@_04DFGCDGNN@join@     0000000180104cb8     serialization.obj
 0002:0001dcc0       ??_C@_08OPNMBCGA@spectate@ 0000000180104cc0     serialization.obj
 0002:0001dcd0       ??_C@_08EMNENPBA@instance@ 0000000180104cd0     serialization.obj
 0002:0001dcdc       ??_C@_01MHEDDDHA@v@        0000000180104cdc     serialization.obj
 0002:0001dce0       ??_C@_09GBINOLEF@client_id@ 0000000180104ce0     serialization.obj
 0002:0001dcf0       ??_C@_09NMAFIJHB@SUBSCRIBE@ 0000000180104cf0     serialization.obj
 0002:0001dd00       ??_C@_0M@GELMDIJN@UNSUBSCRIBE@ 0000000180104d00     serialization.obj
 0002:0001dd10       ?escape@?1??WriteString@?$Writer@VDirectStringBuffer@@U?$UTF8@D@rapidjson@@U23@V?$FixedLinearAllocator@$0IAA@@@$0A@@rapidjson@@IEAA_NPEBDI@Z@4QBDB 0000000180104d10     serialization.obj
 0002:0001de10       ?hexDigits@?1??WriteString@?$Writer@VDirectStringBuffer@@U?$UTF8@D@rapidjson@@U23@V?$FixedLinearAllocator@$0IAA@@@$0A@@rapidjson@@IEAA_NPEBDI@Z@4QBDB 0000000180104e10     serialization.obj
 0002:0001de20       ?cDigitsLut@?1??GetDigitsLut@internal@rapidjson@@YAPEBDXZ@4QBDB 0000000180104e20     serialization.obj
 0002:0001dee8       ??_C@_02NJPGOMH@?$CFf@     0000000180104ee8     main.obj
 0002:0001deec       ??_C@_02LMMGGCAJ@?3?5@     0000000180104eec     main.obj
 0002:0001def0       ??_C@_07DCLBNMLN@generic@  0000000180104ef0     main.obj
 0002:0001def8       ??_C@_06FHFOAHML@system@   0000000180104ef8     main.obj
 0002:0001df00       ??_C@_0BB@GCADKGJO@map?1set?5too?5long@ 0000000180104f00     main.obj
 0002:0001df18       ??_C@_0BB@BEILGBNP@GameAssembly?4dll@ 0000000180104f18     main.obj
 0002:0001df30       ??_C@_0BC@FCGNONKP@il2cpp_string_new@ 0000000180104f30     main.obj
 0002:0001df48       ??_C@_0BF@INKLKPFB@il2cpp_type_get_name@ 0000000180104f48     main.obj
 0002:0001df60       ??_C@_0BO@LPEAKDPH@il2cpp_method_get_param_count@ 0000000180104f60     main.obj
 0002:0001df80       ??_C@_0BO@NPCANDCG@il2cpp_method_get_return_type@ 0000000180104f80     main.obj
 0002:0001dfa0       ??_C@_0BI@MFLKLPOB@il2cpp_method_get_param@ 0000000180104fa0     main.obj
 0002:0001dfb8       ??_C@_0BH@JPEBEKPH@il2cpp_method_get_name@ 0000000180104fb8     main.obj
 0002:0001dfd0       ??_C@_0BF@MBJDICKC@il2cpp_resolve_icall@ 0000000180104fd0     main.obj
 0002:0001dfe8       ??_C@_0BC@HIBDKONP@il2cpp_object_new@ 0000000180104fe8     main.obj
 0002:0001e000       ??_C@_0BG@JADNLPNN@il2cpp_field_get_name@ 0000000180105000     main.obj
 0002:0001e018       ??_C@_0BI@NDNHDCBF@il2cpp_field_get_offset@ 0000000180105018     main.obj
 0002:0001e030       ??_C@_0BJ@OHJEEJIJ@il2cpp_class_get_methods@ 0000000180105030     main.obj
 0002:0001e050       ??_C@_0BI@ELJJHIBL@il2cpp_class_get_fields@ 0000000180105050     main.obj
 0002:0001e068       ??_C@_0BN@KHDEILHG@il2cpp_image_get_class_count@ 0000000180105068     main.obj
 0002:0001e088       ??_C@_0BH@ILMFHAHI@il2cpp_image_get_class@ 0000000180105088     main.obj
 0002:0001e0a0       ??_C@_0BN@HBBJOFHI@il2cpp_domain_get_assemblies@ 00000001801050a0     main.obj
 0002:0001e0c0       ??_C@_0BC@BOPPKDOC@il2cpp_domain_get@ 00000001801050c0     main.obj
 0002:0001e0d4       ??_C@_04HLONOPDM@?4dll@    00000001801050d4     main.obj
 0002:0001e0dc       ??_C@_02MOLJINC@?3?3@      00000001801050dc     main.obj
 0002:0001e0e0       ??_C@_01ODHLEDKK@?$CI@     00000001801050e0     main.obj
 0002:0001e0e4       ??_C@_01LFCBOECM@?4@       00000001801050e4     main.obj
 0002:0001e0e8       ??_C@_01IHBHIGKO@?0@       00000001801050e8     main.obj
 0002:0001e0ec       ??_C@_03LPPJIELD@?$CJ?3?5@ 00000001801050ec     main.obj
 0002:0001e0f0       ??_C@_04KJCOMIHH@?$CI?$CJ?3?5@ 00000001801050f0     main.obj
 0002:0001e0f8       ??_C@_01JOAMLHOP@?9@       00000001801050f8     main.obj
 0002:0001e100       ??_C@_0BA@HJBKCPIA@UnityPlayer?4dll@ 0000000180105100     main.obj
 0002:0001e110       ??_C@_0M@DEKENNEN@playerFlags@ 0000000180105110     main.obj
 0002:0001e120       ??_C@_0L@MIMPFFHO@BasePlayer@ 0000000180105120     main.obj
 0002:0001e130       ??_C@_0O@LGKLGEDG@isLocalPlayer@ 0000000180105130     main.obj
 0002:0001e140       ??_C@_0M@PIPCKGGE@PlayerModel@ 0000000180105140     main.obj
 0002:0001e150       ??_C@_0BA@DOOLLCNO@get_ActiveModel@ 0000000180105150     main.obj
 0002:0001e160       ??_C@_0O@EBBLOKFB@BaseViewModel@ 0000000180105160     main.obj
 0002:0001e170       ??_C@_0CN@JBKELBMO@UnityEngine?4Renderer?0?5UnityEngi@ 0000000180105170     main.obj
 0002:0001e1a0       ??_C@_0CL@LOKPJMKJ@UnityEngine?4Shader?0?5UnityEngine@ 00000001801051a0     main.obj
 0002:0001e1d0       ??_C@_0CN@KMFHFIPD@UnityEngine?4Material?0?5UnityEngi@ 00000001801051d0     main.obj
 0002:0001e200       ??_C@_0BM@PICMBPCF@Projectile?0?5Assembly?9CSharp@ 0000000180105200     main.obj
 0002:0001e220       ??_C@_0CD@EMEDEHPO@ItemModProjectile?0?5Assembly?9CSh@ 0000000180105220     main.obj
 0002:0001e248       ??_C@_0O@JJEBLEGG@NPCPlayerApex@ 0000000180105248     main.obj
 0002:0001e258       ??_C@_0M@LAEFEJIG@NPCMurderer@ 0000000180105258     main.obj
 0002:0001e268       ??_C@_09PENFKBCA@NPCPlayer@ 0000000180105268     main.obj
 0002:0001e278       ??_C@_08FLOEPADE@HumanNPC@ 0000000180105278     main.obj
 0002:0001e288       ??_C@_09FIPEDFCG@Scientist@ 0000000180105288     main.obj
 0002:0001e298       ??_C@_0O@FLGGMOJG@TunnelDweller@ 0000000180105298     main.obj
 0002:0001e2a8       ??_C@_09DPCCJFLK@HTNPlayer@ 00000001801052a8     main.obj
 0002:0001e2b8       ??_C@_0M@MFBAEDDP@HumanNPCNew@ 00000001801052b8     main.obj
 0002:0001e2c8       ??_C@_0BA@IBNPMCJL@ScientistNPCNew@ 00000001801052c8     main.obj
 0002:0001e2d8       ??_C@_0M@CGBLCFFE@BanditGuard@ 00000001801052d8     main.obj
 0002:0001e2e8       ??_C@_0N@OIACNDMB@ScientistNPC@ 00000001801052e8     main.obj
 0002:0001e2f8       ??_C@_0BD@BCBANMOF@NPCMissionProvider@ 00000001801052f8     main.obj
 0002:0001e310       ??_C@_0O@FOIHJKJE@NPCShopkeeper@ 0000000180105310     main.obj
 0002:0001e320       ??_C@_0CK@CNAEJKAA@UnityEngine?4Physics?3?3IgnoreLaye@ 0000000180105320     main.obj
 0002:0001e34c       ??_C@_11LOCGONAA@@         000000018010534c     main.obj
 0002:0001e350       ??_C@_04MEMAJGDJ@name@     0000000180105350     main.obj
 0002:0001e358       ??_C@_0BP@FKPLOLLJ@UnityEngine?4Camera?3?3get_main?$CI?$CJ@ 0000000180105358     main.obj
 0002:0001e378       ??_C@_0CB@FCBGGCLO@UnityEngine?4Camera?3?3set_aspect?$CI@ 0000000180105378     main.obj
 0002:0001e3a0       ??_C@_09IHAJAJPB@Pitchfork@ 00000001801053a0     main.obj
 0002:0001e3b0       ??_C@_0N@PCJANFOD@Wooden?5Spear@ 00000001801053b0     main.obj
 0002:0001e3c0       ??_C@_0L@KIMENPMP@Bone?5Knife@ 00000001801053c0     main.obj
 0002:0001e3d0       ??_C@_08BEHMIHLK@Snowball@ 00000001801053d0     main.obj
 0002:0001e3e0       ??_C@_0BA@BHMAACHP@Candy?5Cane?5Club@ 00000001801053e0     main.obj
 0002:0001e3f0       ??_C@_07GFCMKJNM@Machete@  00000001801053f0     main.obj
 0002:0001e3f8       ??_C@_09HFPBBDCA@Bone?5Club@ 00000001801053f8     main.obj
 0002:0001e404       ??_C@_04EIDPOOOH@Mace@     0000000180105404     main.obj
 0002:0001e410       ??_C@_0O@GDFNLMCF@Butcher?5Knife@ 0000000180105410     main.obj
 0002:0001e420       ??_C@_0P@CCOEONDE@Salvaged?5Sword@ 0000000180105420     main.obj
 0002:0001e430       ??_C@_09GDLMEIEI@Longsword@ 0000000180105430     main.obj
 0002:0001e440       ??_C@_0BB@FDCNPFFG@Salvaged?5Cleaver@ 0000000180105440     main.obj
 0002:0001e458       ??_C@_0M@EJODCFFB@Stone?5Spear@ 0000000180105458     main.obj
 0002:0001e468       ??_C@_0N@BJIECIHI@Combat?5Knife@ 0000000180105468     main.obj
 0002:0001e478       ??_C@_04NENDLEAJ@Rock@     0000000180105478     main.obj
 0002:0001e480       ??_C@_01GBGANLPD@0@        0000000180105480     main.obj
 0002:0001e484       ??_C@_03MIIGHJO@?$CFls@    0000000180105484     main.obj
 0002:0001e488       ??_C@_03NGNKAJPJ@?$CFdm@   0000000180105488     main.obj
 0002:0001e48c       ??_C@_01PKGAHCOL@?$CJ@     000000018010548c     main.obj
 0002:0001e490       ??_C@_0BC@IMMNLIDL@bradleyapc?4prefab@ 0000000180105490     main.obj
 0002:0001e4a8       ??_C@_0N@GDOHGFON@Bradley?$FL?$CFdm?$FN@ 00000001801054a8     main.obj
 0002:0001e4b8       ??_C@_0BF@BBEEPHPF@player_corpse?4prefab@ 00000001801054b8     main.obj
 0002:0001e4d0       ??_C@_0M@KLGGNNMM@Corpse?$CI?$CFdm?$CJ@ 00000001801054d0     main.obj
 0002:0001e4dc       ??_C@_06EIMCKIDC@Corpse@   00000001801054dc     main.obj
 0002:0001e4e8       ??_C@_0BO@EICGLOBA@cupboard?4tool?4deployed?4prefab@ 00000001801054e8     main.obj
 0002:0001e508       ??_C@_0BJ@EPJACFIC@Tool?5Cupboard?5?$HM?5?$CFd?5hours@ 0000000180105508     main.obj
 0002:0001e528       ??_C@_0CE@JEHNNGAA@sleepingbag_leather_deployed?4pr@ 0000000180105528     main.obj
 0002:0001e550       ??_C@_0BC@FGCPHAKM@Sleeping?5Bag?$CI?$CFdm?$CJ@ 0000000180105550     main.obj
 0002:0001e568       ??_C@_0N@BNNEKFNP@Sleeping?5Bag@ 0000000180105568     main.obj
 0002:0001e578       ??_C@_0BE@DMCILLCB@bed_deployed?4prefab@ 0000000180105578     main.obj
 0002:0001e590       ??_C@_08FMLDIGBK@Bed?$CI?$CFdm?$CJ@ 0000000180105590     main.obj
 0002:0001e59c       ??_C@_03KACLBHDN@Bed@      000000018010559c     main.obj
 0002:0001e5a0       ??_C@_05MCBCHHEJ@world@    00000001801055a0     main.obj
 0002:0001e5a8       ??_C@_1M@DMGPCEON@?$AAA?$AAr?$AAr?$AAo?$AAw@ 00000001801055a8     main.obj
 0002:0001e5b8       ??_C@_19NOEMBGJG@?$AAN?$AAa?$AAi?$AAl@ 00000001801055b8     main.obj
 0002:0001e5c8       ??_C@_08NJIHNDBM@?$CFls?$CI?$CFdm?$CJ@ 00000001801055c8     main.obj
 0002:0001e5d8       ??_C@_0BB@HELPJLOL@Distance?5?$FL?5?$CFdm?5?$FN@ 00000001801055d8     main.obj
 0002:0001e5f0       ??_C@_0BA@DPBOFOJI@medical?9syringe@ 00000001801055f0     main.obj
 0002:0001e600       ??_C@_07KNBGKNIH@bandage@  0000000180105600     main.obj
 0002:0001e608       ??_C@_0M@FEAFBIOI@largemedkit@ 0000000180105608     main.obj
 0002:0001e618       ??_C@_0N@DENJHKMA@spear?4wooden@ 0000000180105618     main.obj
 0002:0001e628       ??_C@_0M@JMJPBBGF@spear?4stone@ 0000000180105628     main.obj
 0002:0001e634       ??_C@_04MCMNMLGF@ak47@     0000000180105634     main.obj
 0002:0001e63c       ??_C@_03OBDHKFNL@mp5@      000000018010563c     main.obj
 0002:0001e640       ??_C@_04BFBCJLAN@rock@     0000000180105640     main.obj
 0002:0001e648       ??_C@_0BC@DFPCLFHO@bolt?9action?9rifle@ 0000000180105648     main.obj
 0002:0001e660       ??_C@_0L@OJCCHEGC@grenade?4f1@ 0000000180105660     main.obj
 0002:0001e670       ??_C@_0BA@JOFIKAJD@grenade?4beancan@ 0000000180105670     main.obj
 0002:0001e680       ??_C@_08GOINEFAF@crossbow@ 0000000180105680     main.obj
 0002:0001e690       ??_C@_07LDDBIMBL@spas?912@ 0000000180105690     main.obj
 0002:0001e698       ??_C@_0O@IDEKHAAF@double?9barrel@ 0000000180105698     main.obj
 0002:0001e6a8       ??_C@_0N@NAHALOFH@compound?9bow@ 00000001801056a8     main.obj
 0002:0001e6b8       ??_C@_0M@MNDHHPBG@hunting?9bow@ 00000001801056b8     main.obj
 0002:0001e6c4       ??_C@_03NBDNIFFD@m92@      00000001801056c4     main.obj
 0002:0001e6c8       ??_C@_08EGIOMHIH@thompson@ 00000001801056c8     main.obj
 0002:0001e6d4       ??_C@_03PDCNJFPC@sar@      00000001801056d4     main.obj
 0002:0001e6d8       ??_C@_0N@IIOCEEBH@pump?9shotgun@ 00000001801056d8     main.obj
 0002:0001e6e8       ??_C@_06OIODPPHE@python@   00000001801056e8     main.obj
 0002:0001e6f0       ??_C@_05NAHLINDP@hmlmg@    00000001801056f0     main.obj
 0002:0001e6f8       ??_C@_04DDCOGJKN@eoka@     00000001801056f8     main.obj
 0002:0001e700       ??_C@_0P@PKGBDBAD@pistol?4nailgun@ 0000000180105700     main.obj
 0002:0001e710       ??_C@_0BC@FFECDBND@shotgun?4waterpipe@ 0000000180105710     main.obj
 0002:0001e728       ??_C@_0BA@PBDLEONN@explosive?4timed@ 0000000180105728     main.obj
 0002:0001e738       ??_C@_0BC@PKMDFFKL@explosive?4satchel@ 0000000180105738     main.obj
 0002:0001e750       ??_C@_0BA@LCIBOBFG@rocket?4launcher@ 0000000180105750     main.obj
 0002:0001e760       ??_C@_0L@EPOGPBNA@custom?9smg@ 0000000180105760     main.obj
 0002:0001e76c       ??_C@_05KLKKKGPO@lr300@    000000018010576c     main.obj
 0002:0001e774       ??_C@_04CPLLELMC@m249@     0000000180105774     main.obj
 0002:0001e77c       ??_C@_03DPFONJEO@m39@      000000018010577c     main.obj
 0002:0001e780       ??_C@_01LBDDMOBJ@?$FN@     0000000180105780     main.obj
 0002:0001e784       ??_C@_02GBLMOEJC@?5?$FL@   0000000180105784     main.obj
 0002:0001e788       ??_C@_07PBILKAFL@Success@  0000000180105788     main.obj
 0002:0001e790       ??_C@_06PJODDEFL@Reload@   0000000180105790     main.obj
 0002:0001e798       ??_C@_07KGMMFLDN@Warning@  0000000180105798     main.obj
 0002:0001e7a0       ??_C@_05DIDCOMNH@Hiden@    00000001801057a0     main.obj
 0002:0001e7a8       ??_C@_05NAOIJFC@Error@     00000001801057a8     main.obj
 0002:0001e7b0       ??_C@_04BJPIHCBA@Info@     00000001801057b0     main.obj
 0002:0001e7b8       ??_C@_06LLCHJONG@Config@   00000001801057b8     main.obj
 0002:0001e7c0       ??_C@_09KAIDLHBP@?$CD?$CDTOAST?$CFd@ 00000001801057c0     main.obj
 0002:0001e7cc       ??_C@_01INIBCBCB@f@        00000001801057cc     main.obj
 0002:0001e7d0       ??_C@_01LPLHEDKD@d@        00000001801057d0     main.obj
 0002:0001e7d4       ??_C@_01KGKMHCOC@e@        00000001801057d4     main.obj
 0002:0001e7d8       ??_C@_01JEJKBAGA@g@        00000001801057d8     main.obj
 0002:0001e7dc       ??_C@_01OJONOECF@b@        00000001801057dc     main.obj
 0002:0001e7e0       ??_C@_0O@NFILCAPK@relax?4project@ 00000001801057e0     main.obj
 0002:0001e7f0       ??_C@_08CDHOFJKB@ProtoBuf@ 00000001801057f0     main.obj
 0002:0001e800       ??_C@_0BH@PFLOJMIP@PlayerProjectileUpdate@ 0000000180105800     main.obj
 0002:0001e818       ??_C@_05CCOANBIE@fumes@    0000000180105818     main.obj
 0002:0001e820       ??_C@_05LEFLIPJH@flash@    0000000180105820     main.obj
 0002:0001e828       ??_C@_09BFNHJHAD@holosight@ 0000000180105828     main.obj
 0002:0001e834       ??_C@_03HKDFLGGP@Arm@      0000000180105834     main.obj
 0002:0001e838       ??_C@_06NDMCHAAJ@hoodie@   0000000180105838     main.obj
 0002:0001e840       ??_C@_05CLBBJCJB@Glove@    0000000180105840     main.obj
 0002:0001e848       ??_C@_04JBBMMDIF@Hand@     0000000180105848     main.obj
 0002:0001e850       ??_C@_04BGNKKBAK@Suit@     0000000180105850     main.obj
 0002:0001e858       ??_C@_06EEICPBP@tshirt@    0000000180105858     main.obj
 0002:0001e860       ??_C@_06GBAKDEKJ@hazmat@   0000000180105860     main.obj
 0002:0001e868       ??_C@_05LAAIDIGB@torso@    0000000180105868     main.obj
 0002:0001e870       ??_C@_0N@BCAGPBLM@RPC_OpenLoot@ 0000000180105870     main.obj
 0002:0001e880       ??_C@_07EDILEAMK@C?3?2file@ 0000000180105880     main.obj
 0002:0001e888       ??_C@_08JGICPEJP@C?3?2file2@ 0000000180105888     main.obj
 0002:0001e898       ??_C@_0BD@PBNMOEJC@faczad_galaxy4?4mat@ 0000000180105898     main.obj
 0002:0001e8b0       ??_C@_0BA@DEILLFEJ@faczad_grad?4mat@ 00000001801058b0     main.obj
 0002:0001e8c0       ??_C@_0BB@BEMKOGIL@faczad_frame?4mat@ 00000001801058c0     main.obj
 0002:0001e8d8       ??_C@_0BB@CIAHGBMF@faczad_ghost?4mat@ 00000001801058d8     main.obj
 0002:0001e8f0       ??_C@_0BC@JLAJLDPG@faczad_ghost2?4mat@ 00000001801058f0     main.obj
 0002:0001e908       ??_C@_0BB@MOBIKJNF@faczad_storm?4mat@ 0000000180105908     main.obj
 0002:0001e920       ??_C@_0BC@IGFILMFK@faczad_storm2?4mat@ 0000000180105920     main.obj
 0002:0001e938       ??_C@_0BC@MCDAACHE@faczad_galaxy?4mat@ 0000000180105938     main.obj
 0002:0001e950       ??_C@_0BD@CHIFAHIP@faczad_galaxy2?4mat@ 0000000180105950     main.obj
 0002:0001e968       ??_C@_0BD@OMNJNECK@faczad_galaxy3?4mat@ 0000000180105968     main.obj
 0002:0001e980       ??_C@_0BD@DKIADHDH@faczad_galaxy5?4mat@ 0000000180105980     main.obj
 0002:0001e998       ??_C@_0BD@LMBEEFJJ@faczad_galaxy6?4mat@ 0000000180105998     main.obj
 0002:0001e9b0       ??_C@_0N@IHFJDHMA@chams?4shader@ 00000001801059b0     main.obj
 0002:0001e9c0       ??_C@_0BM@LCPGJPLH@wireframetransparent?4shader@ 00000001801059c0     main.obj
 0002:0001e9e0       ??_C@_0BA@MJAICBKP@chamslit?4shader@ 00000001801059e0     main.obj
 0002:0001e9f0       ??_C@_0BI@JEGONHIN@seethroughshader?4shader@ 00000001801059f0     main.obj
 0002:0001ea08       ??_C@_07DIDMFCE@UseSelf@   0000000180105a08     main.obj
 0002:0001ea10       ??_C@_0M@NCCOJPLA@StartReload@ 0000000180105a10     main.obj
 0002:0001ea1c       ??_C@_05NGDBJHKI@glass@    0000000180105a1c     main.obj
 0002:0001ea24       ??_C@_05ELAABIKM@water@    0000000180105a24     main.obj
 0002:0001ea2c       ??_C@_06OBFJDKLE@forest@   0000000180105a2c     main.obj
 0002:0001ea34       ??_C@_05MPIFAIJC@metal@    0000000180105a34     main.obj
 0002:0001ea40       ??_C@_0L@GGPGLKDB@explosions@ 0000000180105a40     main.obj
 0002:0001ea4c       ??_C@_04JCLBNONC@Wood@     0000000180105a4c     main.obj
 0002:0001ea54       ??_C@_06CBANDJHG@Pickup@   0000000180105a54     main.obj
 0002:0001ea5c       ??_C@_04PAJFJFCF@clap@     0000000180105a5c     main.obj
 0002:0001ea68       ??_C@_08LDJLELMO@friendly@ 0000000180105a68     main.obj
 0002:0001ea78       ??_C@_0L@NNMBDEJB@thumbsdown@ 0000000180105a78     main.obj
 0002:0001ea88       ??_C@_08FKPANJJM@thumbsup@ 0000000180105a88     main.obj
 0002:0001ea94       ??_C@_02MFDMBIJM@ok@       0000000180105a94     main.obj
 0002:0001ea98       ??_C@_05BBEJFBFA@point@    0000000180105a98     main.obj
 0002:0001eaa0       ??_C@_05NDHJCCHD@shrug@    0000000180105aa0     main.obj
 0002:0001eaa8       ??_C@_07KGDDBDJI@victory@  0000000180105aa8     main.obj
 0002:0001eab0       ??_C@_04LJEDCPFL@wave@     0000000180105ab0     main.obj
 0002:0001eab8       ??_C@_05PAOICHEG@dance@    0000000180105ab8     main.obj
 0002:0001eac0       ??_C@_0L@HOJFMOBL@LootPlayer@ 0000000180105ac0     main.obj
 0002:0001ead0       ??_C@_1O@MKJEFLGB@?$AAn?$AAo?$AAc?$AAl?$AAi?$AAp@ 0000000180105ad0     main.obj
 0002:0001eae0       ??_C@_1BI@NCKDHIGB@?$AAd?$AAe?$AAb?$AAu?$AAg?$AAc?$AAa?$AAm?$AAe?$AAr?$AAa@ 0000000180105ae0     main.obj
 0002:0001eb00       ??_C@_1BA@NKOHMIBB@?$AAc?$AAa?$AAm?$AAl?$AAe?$AAr?$AAp@ 0000000180105b00     main.obj
 0002:0001eb10       ??_C@_1BC@OIEMEABK@?$AAc?$AAa?$AAm?$AAs?$AAp?$AAe?$AAe?$AAd@ 0000000180105b10     main.obj
 0002:0001eb30       ??_C@_1BE@NFNDFBJ@?$AAa?$AAd?$AAm?$AAi?$AAn?$AAt?$AAi?$AAm?$AAe@ 0000000180105b30     main.obj
 0002:0001eb44       ??_C@_04FDHAPBNG@wood@     0000000180105b44     main.obj
 0002:0001eb4c       ??_C@_04EHONEKBC@sand@     0000000180105b4c     main.obj
 0002:0001eb54       ??_C@_05JOBLOEL@grass@     0000000180105b54     main.obj
 0002:0001eb60       ??_C@_08OEKCEFJL@concrete@ 0000000180105b60     main.obj
 0002:0001eb6c       ??_C@_05BAGHPJC@cloth@     0000000180105b6c     main.obj
 0002:0001eb78       ??_C@_0BA@EDPMPMND@Hit?5for?5damage?$CB@ 0000000180105b78     main.obj
 0002:0001eb88       ??_C@_0BF@OENFEHIG@Item?5Belt?3?5?$CFls?5?$FLx?$CFd?$FN@ 0000000180105b88     main.obj
 0002:0001eba0       ??_C@_0BF@GPLEALII@Item?5Wear?3?5?$CFls?5?$FLx?$CFd?$FN@ 0000000180105ba0     main.obj
 0002:0001ebb8       ??_C@_05IEALKJIG@Local@    0000000180105bb8     main.obj
 0002:0001ebc0       ??_C@_08FCLABENB@SVSwitch@ 0000000180105bc0     main.obj
 0002:0001ebd0       ??_C@_0L@CJIPNHD@PatrolHeli@ 0000000180105bd0     main.obj
 0002:0001ebe0       ??_C@_1CE@GKEMNIDN@?$AAS?$AAt?$AAo?$AAn?$AAe?$AA?5?$AAC?$AAo?$AAl?$AAl?$AAe?$AAc?$AAt?$AAa?$AAb@ 0000000180105be0     main.obj
 0002:0001ec08       ??_C@_0BJ@CPKCGHCA@stone?9collectable?4prefab@ 0000000180105c08     main.obj
 0002:0001ec28       ??_C@_1CG@NAEEHCBH@?$AAS?$AAu?$AAl?$AAf?$AAu?$AAr?$AA?5?$AAC?$AAo?$AAl?$AAl?$AAe?$AAc?$AAt?$AAa@ 0000000180105c28     main.obj
 0002:0001ec50       ??_C@_0BK@CMDDGFON@sulfur?9collectable?4prefab@ 0000000180105c50     main.obj
 0002:0001ec70       ??_C@_1CE@IFEFEEOI@?$AAM?$AAe?$AAt?$AAa?$AAl?$AA?5?$AAC?$AAo?$AAl?$AAl?$AAe?$AAc?$AAt?$AAa?$AAb@ 0000000180105c70     main.obj
 0002:0001ec98       ??_C@_0BJ@NPLHMLLK@metal?9collectable?4prefab@ 0000000180105c98     main.obj
 0002:0001ecb8       ??_C@_1BE@PNJDDCKD@?$AAS?$AAt?$AAo?$AAn?$AAe?$AA?5?$AAO?$AAr?$AAe@ 0000000180105cb8     main.obj
 0002:0001ecd0       ??_C@_0BB@POIAIMEC@stone?9ore?4prefab@ 0000000180105cd0     main.obj
 0002:0001ece8       ??_C@_1BG@CLPCOOOO@?$AAS?$AAu?$AAl?$AAf?$AAu?$AAr?$AA?5?$AAO?$AAr?$AAe@ 0000000180105ce8     main.obj
 0002:0001ed00       ??_C@_0BC@NHBGFNCN@sulfur?9ore?4prefab@ 0000000180105d00     main.obj
 0002:0001ed18       ??_C@_1BE@LCJNKDFM@?$AAM?$AAe?$AAt?$AAa?$AAl?$AA?5?$AAO?$AAr?$AAe@ 0000000180105d18     main.obj
 0002:0001ed30       ??_C@_0BB@KLCNMFAJ@metal?9ore?4prefab@ 0000000180105d30     main.obj
 0002:0001ed48       ??_C@_1BI@JLLNJOJO@?$AAE?$AAl?$AAi?$AAt?$AAe?$AA?5?$AAC?$AAr?$AAa?$AAt?$AAe@ 0000000180105d48     main.obj
 0002:0001ed60       ??_C@_0BD@DFNHMHDL@crate_elite?4prefab@ 0000000180105d60     main.obj
 0002:0001ed78       ??_C@_1BO@DBIPMHDF@?$AAM?$AAi?$AAl?$AAi?$AAt?$AAa?$AAr?$AAy?$AA?5?$AAC?$AAr?$AAa?$AAt?$AAe@ 0000000180105d78     main.obj
 0002:0001ed98       ??_C@_0BE@FEGIGGGM@crate_normal?4prefab@ 0000000180105d98     main.obj
 0002:0001edb0       ??_C@_1BA@NNEMJDDH@?$AAA?$AAi?$AAr?$AAd?$AAr?$AAo?$AAp@ 0000000180105db0     main.obj
 0002:0001edc0       ??_C@_0BD@EPENAPLE@supply_drop?4prefab@ 0000000180105dc0     main.obj
 0002:0001edd8       ??_C@_1BG@MHHCPJGH@?$AAH?$AAe?$AAl?$AAi?$AA?5?$AAC?$AAr?$AAa?$AAt?$AAe@ 0000000180105dd8     main.obj
 0002:0001edf0       ??_C@_0BC@CAPOGLJL@heli_crate?4prefab@ 0000000180105df0     main.obj
 0002:0001ee08       ??_C@_1BM@KHOCMIDN@?$AAB?$AAr?$AAa?$AAd?$AAl?$AAe?$AAy?$AA?5?$AAC?$AAr?$AAa?$AAt?$AAe@ 0000000180105e08     main.obj
 0002:0001ee28       ??_C@_0BF@NMDIFDJP@bradley_crate?4prefab@ 0000000180105e28     main.obj
 0002:0001ee40       ??_C@_1BG@EPBAENPG@?$AAM?$AAi?$AAn?$AAi?$AAc?$AAo?$AAp?$AAt?$AAe?$AAr@ 0000000180105e40     main.obj
 0002:0001ee58       ??_C@_0BJ@ONHAOFEJ@minicopter?4entity?4prefab@ 0000000180105e58     main.obj
 0002:0001ee78       ??_C@_1BG@IAPCCEN@?$AAS?$AAc?$AAr?$AAa?$AAp?$AA?5?$AAH?$AAe?$AAl?$AAi@ 0000000180105e78     main.obj
 0002:0001ee90       ??_C@_0CA@GFCDOLJN@scraptransporthelicopter?4prefab@ 0000000180105e90     main.obj
 0002:0001eeb0       ??_C@_19KIAEBJDH@?$AAB?$AAo?$AAa?$AAt@ 0000000180105eb0     main.obj
 0002:0001eec0       ??_C@_0P@BICIEPIN@rowboat?4prefab@ 0000000180105ec0     main.obj
 0002:0001eed0       ??_C@_19ECKGNDLG@?$AAR?$AAH?$AAI?$AAB@ 0000000180105ed0     main.obj
 0002:0001eee0       ??_C@_0M@OOBECDEL@rhib?4prefab@ 0000000180105ee0     main.obj
 0002:0001eef0       ??_C@_1BI@POCPNJOE@?$AAA?$AAu?$AAt?$AAo?$AA?5?$AAT?$AAu?$AAr?$AAr?$AAe?$AAt@ 0000000180105ef0     main.obj
 0002:0001ef08       ??_C@_0BL@ECOBCNID@autoturret_deployed?4prefab@ 0000000180105f08     main.obj
 0002:0001ef28       ??_C@_1BK@DCFHHEMH@?$AAF?$AAl?$AAa?$AAm?$AAe?$AA?5?$AAT?$AAu?$AAr?$AAr?$AAe?$AAt@ 0000000180105f28     main.obj
 0002:0001ef48       ??_C@_0BM@PCKNFIAJ@flameturret?4deployed?4prefab@ 0000000180105f48     main.obj
 0002:0001ef68       ??_C@_1BK@NDBPNAOM@?$AAS?$AAh?$AAo?$AAt?$AAg?$AAu?$AAn?$AA?5?$AAT?$AAr?$AAa?$AAp@ 0000000180105f68     main.obj
 0002:0001ef88       ??_C@_0BI@JILMJKIE@guntrap?4deployed?4prefab@ 0000000180105f88     main.obj
 0002:0001efa0       ??_C@_1BC@BABAPFFL@?$AAL?$AAa?$AAn?$AAd?$AAm?$AAi?$AAn?$AAe@ 0000000180105fa0     main.obj
 0002:0001efb8       ??_C@_0BA@KMGPNPKJ@landmine?4prefab@ 0000000180105fb8     main.obj
 0002:0001efc8       ??_C@_1BC@IJOEDEKM@?$AAS?$AAA?$AAM?$AA?5?$AAS?$AAi?$AAt?$AAe@ 0000000180105fc8     main.obj
 0002:0001efe0       ??_C@_0CA@GHMDBCEL@sam_site_turret_deployed?4prefab@ 0000000180105fe0     main.obj
 0002:0001f000       ??_C@_19NGEGMCBK@?$AAH?$AAe?$AAm?$AAp@ 0000000180106000     main.obj
 0002:0001f010       ??_C@_0BI@NFKFJCAN@hemp?9collectable?4prefab@ 0000000180106010     main.obj
 0002:0001f028       ??_C@_1BA@LGEMBBEK@?$AAB?$AAo?$AAd?$AAy?$AAb?$AAa?$AAg@ 0000000180106028     main.obj
 0002:0001f038       ??_C@_0BK@BBGLEFAP@item_drop_backpack?4prefab@ 0000000180106038     main.obj
 0002:0001f058       ??_C@_17KGEMNAPK@?$AAB?$AAo?$AAx@ 0000000180106058     main.obj
 0002:0001f060       ??_C@_0BI@HECEINKK@box?4wooden?4large?4prefab@ 0000000180106060     main.obj
 0002:0001f078       ??_C@_19BMKPFKCD@?$AAB?$AAe?$AAa?$AAr@ 0000000180106078     main.obj
 0002:0001f088       ??_C@_0M@JGIPIBDF@bear?4prefab@ 0000000180106088     main.obj
 0002:0001f098       ??_C@_19CPANNPFB@?$AAW?$AAo?$AAl?$AAf@ 0000000180106098     main.obj
 0002:0001f0a8       ??_C@_0M@OEEJNLJA@wolf?4prefab@ 00000001801060a8     main.obj
 0002:0001f0b8       ??_C@_17EGPBECHI@?$AAP?$AAi?$AAg@ 00000001801060b8     main.obj
 0002:0001f0c0       ??_C@_0M@HECANJLB@boar?4prefab@ 00000001801060c0     main.obj
 0002:0001f0d0       ??_C@_1BA@CKBMCMGD@?$AAC?$AAh?$AAi?$AAc?$AAk?$AAe?$AAn@ 00000001801060d0     main.obj
 0002:0001f0e0       ??_C@_0P@NFOEFMPI@chicken?4prefab@ 00000001801060e0     main.obj
 0002:0001f0f0       ??_C@_1M@PNJCEJNA@?$AAH?$AAo?$AAr?$AAs?$AAe@ 00000001801060f0     main.obj
 0002:0001f100       ??_C@_0N@EEEGKGCA@horse?4prefab@ 0000000180106100     main.obj
 0002:0001f110       ??_C@_03NONCDIOG@?3?5?$CC@ 0000000180106110     main.obj
 0002:0001f114       ??_C@_04PHMHGEMA@?$CC?0?5?$CC@ 0000000180106114     main.obj
 0002:0001f11c       ??_C@_13BBDEGPLJ@?$AA?$CK@ 000000018010611c     main.obj
 0002:0001f120       ??_C@_0DL@FMJPNKHC@recursive_directory_iterator?3?3r@ 0000000180106120     main.obj
 0002:0001f160       ??_C@_0CJ@OMKENMFB@recursive_directory_iterator?3?3o@ 0000000180106160     main.obj
 0002:0001f18c       ??_C@_06DJIHEMFI@status@   000000018010618c     main.obj
 0002:0001f198       ??_C@_0BB@FIPAOBBI@create_directory@ 0000000180106198     main.obj
 0002:0001f1b0       ??_C@_0O@LBHFPEOO@Sapphire?4wtf?2@ 00000001801061b0     main.obj
 0002:0001f1c0       ??_C@_04IFJILJI@?4cfg@     00000001801061c0     main.obj
 0002:0001f1c8       ??_C@_01HIHLOKLC@1@        00000001801061c8     main.obj
 0002:0001f1d0       ??_C@_0N@BMMANHOE@Sapphire?4wtf@ 00000001801061d0     main.obj
 0002:0001f1e0       ??_C@_0N@INBLOGAL@outline_font@ 00000001801061e0     main.obj
 0002:0001f1f0       ??_C@_05OLGJEJBH@Stuff@    00000001801061f0     main.obj
 0002:0001f1f8       ??_C@_0O@EAMACBEP@unload_on_key@ 00000001801061f8     main.obj
 0002:0001f208       ??_C@_0L@DPJOKNLH@unload_key@ 0000000180106208     main.obj
 0002:0001f218       ??_C@_08EPMFBBBC@Font?5ESP@ 0000000180106218     main.obj
 0002:0001f228       ??_C@_09JECAPFLF@size_font@ 0000000180106228     main.obj
 0002:0001f238       ??_C@_0L@FGOPDDIH@size_font2@ 0000000180106238     main.obj
 0002:0001f248       ??_C@_0M@MPMEOLOJ@longnecking@ 0000000180106248     main.obj
 0002:0001f254       ??_C@_04IEPFDAGF@keys@     0000000180106254     main.obj
 0002:0001f260       ??_C@_0N@DKLNILKN@low_velocity@ 0000000180106260     main.obj
 0002:0001f270       ??_C@_08IBHINFFH@fast_key@ 0000000180106270     main.obj
 0002:0001f280       ??_C@_0M@DCMKGIDP@tp_head_key@ 0000000180106280     main.obj
 0002:0001f290       ??_C@_09OOCLJIFO@debugging@ 0000000180106290     main.obj
 0002:0001f29c       ??_C@_04HKCCIOCO@zoom@     000000018010629c     main.obj
 0002:0001f2a8       ??_C@_0L@PHNJLEBL@zoom_value@ 00000001801062a8     main.obj
 0002:0001f2b8       ??_C@_07OGEBFOPB@suicide@  00000001801062b8     main.obj
 0002:0001f2c0       ??_C@_0BA@LJCCLDDE@manipulated_key@ 00000001801062c0     main.obj
 0002:0001f2d0       ??_C@_0P@GFGKIJGD@ignore_stopper@ 00000001801062d0     main.obj
 0002:0001f2e0       ??_C@_09EMBNNDIN@stashopen@ 00000001801062e0     main.obj
 0002:0001f2f0       ??_C@_0BG@PNHGOPKG@TeleportTopPlayer?5key@ 00000001801062f0     main.obj
 0002:0001f308       ??_C@_06OBIPHNNJ@desync@   0000000180106308     main.obj
 0002:0001f310       ??_C@_08MNELBCIB@speedkey@ 0000000180106310     main.obj
 0002:0001f320       ??_C@_09HMDPLEIL@instakill@ 0000000180106320     main.obj
 0002:0001f330       ??_C@_0L@LLEEFAGB@psilentkey@ 0000000180106330     main.obj
 0002:0001f340       ??_C@_0BB@HDDFIAHF@ExtentForMoutend@ 0000000180106340     main.obj
 0002:0001f354       ??_C@_06BMBJGDHL@Combat@   0000000180106354     main.obj
 0002:0001f360       ??_C@_0L@NKKDKMGO@wall_shoot@ 0000000180106360     main.obj
 0002:0001f370       ??_C@_0BC@HBFCDIEA@ManipulatorRadios@ 0000000180106370     main.obj
 0002:0001f388       ??_C@_0BB@BHBEEDHP@bullet_tp_arrows@ 0000000180106388     main.obj
 0002:0001f3a0       ??_C@_0BH@ENPEJMGP@BulletTeleportGradient@ 00000001801063a0     main.obj
 0002:0001f3b8       ??_C@_06GDPPNEIJ@pierce@   00000001801063b8     main.obj
 0002:0001f3c0       ??_C@_0L@EDLFODLL@low_hiting@ 00000001801063c0     main.obj
 0002:0001f3d0       ??_C@_09DLGODEEB@penetrate@ 00000001801063d0     main.obj
 0002:0001f3e0       ??_C@_07PKKCMMCH@weapons@  00000001801063e0     main.obj
 0002:0001f3e8       ??_C@_09BDKJGHPI@doubletap@ 00000001801063e8     main.obj
 0002:0001f3f8       ??_C@_0O@KDCPPLDI@doubletaptype@ 00000001801063f8     main.obj
 0002:0001f408       ??_C@_03OBOKLOKI@pvs@      0000000180106408     main.obj
 0002:0001f410       ??_C@_09NOOMHAOB@roundfire@ 0000000180106410     main.obj
 0002:0001f420       ??_C@_0BB@NCPFMIJ@bullet_tp_radius@ 0000000180106420     main.obj
 0002:0001f438       ??_C@_09DMDCIFD@bullet_tp@ 0000000180106438     main.obj
 0002:0001f448       ??_C@_0P@JDHKNJJ@bullet_tp_type@ 0000000180106448     main.obj
 0002:0001f458       ??_C@_0BA@FKEADOFG@hitscan_tp_type@ 0000000180106458     main.obj
 0002:0001f468       ??_C@_0BA@FJONMIEK@hitscan_tp_mode@ 0000000180106468     main.obj
 0002:0001f478       ??_C@_0BJ@IHFBFCKN@manipulator_vectors_type@ 0000000180106478     main.obj
 0002:0001f498       ??_C@_0BA@KENLEIDD@bullet_tp_range@ 0000000180106498     main.obj
 0002:0001f4a8       ??_C@_0L@OFALEELP@autoreload@ 00000001801064a8     main.obj
 0002:0001f4b8       ??_C@_0L@IKHGAFLE@burst_fire@ 00000001801064b8     main.obj
 0002:0001f4c8       ??_C@_0BB@IBJFBHBB@DesyncSpawnDelay@ 00000001801064c8     main.obj
 0002:0001f4e0       ??_C@_0BB@LAAIEBIP@insta_kill_value@ 00000001801064e0     main.obj
 0002:0001f4f8       ??_C@_0M@FIEFFNDD@theta_value@ 00000001801064f8     main.obj
 0002:0001f508       ??_C@_0O@OAPJKEEM@point_x_value@ 0000000180106508     main.obj
 0002:0001f518       ??_C@_0O@CMFDKENC@point_y_value@ 0000000180106518     main.obj
 0002:0001f528       ??_C@_0BF@DFJOKHLN@points_dync_generate@ 0000000180106528     main.obj
 0002:0001f540       ??_C@_0BF@BEPBFDM@points_rota_generate@ 0000000180106540     main.obj
 0002:0001f558       ??_C@_0L@HAFBEONC@instanthit@ 0000000180106558     main.obj
 0002:0001f568       ??_C@_09ICOJEJGC@autoshoot@ 0000000180106568     main.obj
 0002:0001f578       ??_C@_0BC@DINCDJMK@always_heli_rotor@ 0000000180106578     main.obj
 0002:0001f590       ??_C@_07KHDLFOH@HitScan@   0000000180106590     main.obj
 0002:0001f598       ??_C@_0N@IELGFCEM@silent_melee@ 0000000180106598     main.obj
 0002:0001f5a8       ??_C@_07JNNGOCIH@psilent@  00000001801065a8     main.obj
 0002:0001f5b0       ??_C@_09IFGCBFFN@silentaim@ 00000001801065b0     main.obj
 0002:0001f5c0       ??_C@_0M@NDHMNODL@psilentheli@ 00000001801065c0     main.obj
 0002:0001f5d0       ??_C@_0O@KMDJBGIC@visualize_fov@ 00000001801065d0     main.obj
 0002:0001f5e0       ??_C@_0M@OPNIEBNA@manipulator@ 00000001801065e0     main.obj
 0002:0001f5f0       ??_C@_0BB@HEANOCBE@auto_manipulator@ 00000001801065f0     main.obj
 0002:0001f604       ??_C@_06NDKEFKOH@combat@   0000000180106604     main.obj
 0002:0001f610       ??_C@_0M@GIBHPJED@auto_m_dist@ 0000000180106610     main.obj
 0002:0001f620       ??_C@_0BB@DLGCCJLH@manipulator_stop@ 0000000180106620     main.obj
 0002:0001f638       ??_C@_0BA@IIPJJGKG@ignore_sleepers@ 0000000180106638     main.obj
 0002:0001f648       ??_C@_0M@FHAFCMEK@ignore_team@ 0000000180106648     main.obj
 0002:0001f658       ??_C@_0L@EJOFMGHD@ignore_npc@ 0000000180106658     main.obj
 0002:0001f668       ??_C@_09DNGEHAA@HitBox_ov@ 0000000180106668     main.obj
 0002:0001f678       ??_C@_0BA@IPPALCDM@insta_indicator@ 0000000180106678     main.obj
 0002:0001f688       ??_C@_0BA@FLDHMOCB@speed_indicator@ 0000000180106688     main.obj
 0002:0001f698       ??_C@_0BB@COPBNBMK@indiacators_type@ 0000000180106698     main.obj
 0002:0001f6b0       ??_C@_0BC@PNHFNOAB@chams_render_mode@ 00000001801066b0     main.obj
 0002:0001f6c8       ??_C@_0M@DIPOFEBI@Desync?5Type@ 00000001801066c8     main.obj
 0002:0001f6d8       ??_C@_0M@LILJMOPF@Aimbot?5Fove@ 00000001801066d8     main.obj
 0002:0001f6e8       ??_C@_0O@GNHIPBKJ@silentfovdraw@ 00000001801066e8     main.obj
 0002:0001f6f8       ??_C@_0BH@HKLLACND@manipulate_angle_arrow@ 00000001801066f8     main.obj
 0002:0001f710       ??_C@_0BJ@IJGMIJOP@manipulate_angle_vectors@ 0000000180106710     main.obj
 0002:0001f730       ??_C@_09MFAIIBOJ@speedhack@ 0000000180106730     main.obj
 0002:0001f73c       ??_C@_04GDGONPK@misc@      000000018010673c     main.obj
 0002:0001f744       ??_C@_04CLMLNHCH@Atom@     0000000180106744     main.obj
 0002:0001f750       ??_C@_08DFKMPDDF@recycler@ 0000000180106750     main.obj
 0002:0001f760       ??_C@_0M@HCKGOBGH@AtomOutline@ 0000000180106760     main.obj
 0002:0001f770       ??_C@_0M@FODDKCN@silentstash@ 0000000180106770     main.obj
 0002:0001f780       ??_C@_0L@BHJLHBAA@speedfloat@ 0000000180106780     main.obj
 0002:0001f790       ??_C@_07GFBFDLBM@gravity@  0000000180106790     main.obj
 0002:0001f798       ??_C@_0BB@EADPMEFA@gravity_modifier@ 0000000180106798     main.obj
 0002:0001f7b0       ??_C@_0M@PNCHGKEG@GradientPos@ 00000001801067b0     main.obj
 0002:0001f7c0       ??_C@_0P@PEHLEMCP@GradientSpread@ 00000001801067c0     main.obj
 0002:0001f7d0       ??_C@_0L@DJMHMCLO@DesyncTime@ 00000001801067d0     main.obj
 0002:0001f7e0       ??_C@_0P@NINFIOMF@sapphire_cross@ 00000001801067e0     main.obj
 0002:0001f7f0       ??_C@_09NBNKIDFG@crosshair@ 00000001801067f0     main.obj
 0002:0001f7fc       ??_C@_04OJAKJOIH@quad@     00000001801067fc     main.obj
 0002:0001f804       ??_C@_03BOGADHLI@gap@      0000000180106804     main.obj
 0002:0001f808       ??_C@_06IJDLPEM@length@    0000000180106808     main.obj
 0002:0001f810       ??_C@_09JLGJJLJJ@rapidfire@ 0000000180106810     main.obj
 0002:0001f81c       ??_C@_06KLEAFNAE@Weapon@   000000018010681c     main.obj
 0002:0001f828       ??_C@_0M@BINNCHLI@rapid_value@ 0000000180106828     main.obj
 0002:0001f838       ??_C@_09MMNAGNHC@no_recoil@ 0000000180106838     main.obj
 0002:0001f848       ??_C@_07JCKGKLDP@fastbow@  0000000180106848     main.obj
 0002:0001f850       ??_C@_0M@OIEFFEIJ@size_bullet@ 0000000180106850     main.obj
 0002:0001f860       ??_C@_0N@OMEHNCMM@bullet_sizex@ 0000000180106860     main.obj
 0002:0001f870       ??_C@_0N@PFFMODIN@bullet_sizey@ 0000000180106870     main.obj
 0002:0001f880       ??_C@_0N@NOHBLAEO@bullet_sizez@ 0000000180106880     main.obj
 0002:0001f890       ??_C@_0BA@CPNLLGFE@recoil_control2@ 0000000180106890     main.obj
 0002:0001f8a0       ??_C@_0P@NEFDNNK@spread_control@ 00000001801068a0     main.obj
 0002:0001f8b0       ??_C@_0N@MHEJNLJB@sway_control@ 00000001801068b0     main.obj
 0002:0001f8c0       ??_C@_0N@IMJLODIB@fast_bullets@ 00000001801068c0     main.obj
 0002:0001f8d0       ??_C@_08OCOPPAGK@fast_pvs@ 00000001801068d0     main.obj
 0002:0001f8e0       ??_C@_0BC@HAILLAFF@spoof_hitdistance@ 00000001801068e0     main.obj
 0002:0001f8f8       ??_C@_0M@NAOHHEDG@hitdistance@ 00000001801068f8     main.obj
 0002:0001f908       ??_C@_0BB@KOLAJMGM@pierce_materials@ 0000000180106908     main.obj
 0002:0001f920       ??_C@_0P@PFPCCKCD@minicopter_aim@ 0000000180106920     main.obj
 0002:0001f930       ??_C@_0BD@HFCLKEOB@remove_attack_anim@ 0000000180106930     main.obj
 0002:0001f948       ??_C@_09MNELHAAI@no_spread@ 0000000180106948     main.obj
 0002:0001f958       ??_C@_09DADDGAEC@automatic@ 0000000180106958     main.obj
 0002:0001f968       ??_C@_0N@IIFKPKDE@thick_bullet@ 0000000180106968     main.obj
 0002:0001f978       ??_C@_07CAOIHFKD@no_sway@  0000000180106978     main.obj
 0002:0001f980       ??_C@_0O@JKJJAOLJ@wall_ricohcet@ 0000000180106980     main.obj
 0002:0001f990       ??_C@_07DLDOPMAL@eokatap@  0000000180106990     main.obj
 0002:0001f998       ??_C@_08JAMLDMHI@compound@ 0000000180106998     main.obj
 0002:0001f9a8       ??_C@_0M@KMPLBOKE@outline?5box@ 00000001801069a8     main.obj
 0002:0001f9b8       ??_C@_07GNHLELCG@Visuals@  00000001801069b8     main.obj
 0002:0001f9c0       ??_C@_0N@IIFMBHFC@reload_offer@ 00000001801069c0     main.obj
 0002:0001f9d0       ??_C@_05EMNNHGFM@radar@    00000001801069d0     main.obj
 0002:0001f9d8       ??_C@_0L@FCILGBCO@colorcheck@ 00000001801069d8     main.obj
 0002:0001f9e8       ??_C@_0BB@LPIENGFG@Skeleton?5Outline@ 00000001801069e8     main.obj
 0002:0001fa00       ??_C@_0BF@NGKHNKLI@Skeletom?5Color?5Check@ 0000000180106a00     main.obj
 0002:0001fa18       ??_C@_0N@LEBJKJLO@Name?5Outline@ 0000000180106a18     main.obj
 0002:0001fa28       ??_C@_09PPDOPGAH@Name?5Font@ 0000000180106a28     main.obj
 0002:0001fa38       ??_C@_0BB@LCDBJBDA@Name?5Color?5check@ 0000000180106a38     main.obj
 0002:0001fa50       ??_C@_0BB@OIPIHJNP@Distance?5Outline@ 0000000180106a50     main.obj
 0002:0001fa68       ??_C@_0BF@JODGOOCC@Distance?5Color?5Check@ 0000000180106a68     main.obj
 0002:0001fa80       ??_C@_0P@NCGHJLNC@Weapon?5Outline@ 0000000180106a80     main.obj
 0002:0001fa90       ??_C@_0M@ELMOIMAP@Weapon?5Font@ 0000000180106a90     main.obj
 0002:0001faa0       ??_C@_0BD@PGOPHNFG@Weapon?5Color?5Check@ 0000000180106aa0     main.obj
 0002:0001fab8       ??_C@_0P@HKEELCPF@HealthBar?5Font@ 0000000180106ab8     main.obj
 0002:0001fac8       ??_C@_0BA@EOPHHFJG@HealthBar?5Style@ 0000000180106ac8     main.obj
 0002:0001fad8       ??_C@_0L@LCJGDDB@TargetBelt@ 0000000180106ad8     main.obj
 0002:0001fae8       ??_C@_0L@PNKLEPBG@TargetWear@ 0000000180106ae8     main.obj
 0002:0001faf8       ??_C@_0L@LAPNFLIH@TargetMain@ 0000000180106af8     main.obj
 0002:0001fb08       ??_C@_08GHBALNJL@keybinds@ 0000000180106b08     main.obj
 0002:0001fb18       ??_C@_0BA@BIIGCNHK@hand_chams_type@ 0000000180106b18     main.obj
 0002:0001fb28       ??_C@_0BB@FNLIEKHO@hand_chams_type2@ 0000000180106b28     main.obj
 0002:0001fb40       ??_C@_0BC@LLJJEBOF@weapon_chams_type@ 0000000180106b40     main.obj
 0002:0001fb58       ??_C@_0BC@LBPJBNIJ@player_chams_type@ 0000000180106b58     main.obj
 0002:0001fb70       ??_C@_0BD@HJKFJGOI@player_chams_type2@ 0000000180106b70     main.obj
 0002:0001fb88       ??_C@_0N@DBJIGLNK@player_chams@ 0000000180106b88     main.obj
 0002:0001fb98       ??_C@_0L@LFHCJIFB@hand_chams@ 0000000180106b98     main.obj
 0002:0001fba8       ??_C@_0O@PCKLKJDP@pwire_rainbow@ 0000000180106ba8     main.obj
 0002:0001fbb8       ??_C@_0P@FLOENCOF@pwire_rainbow2@ 0000000180106bb8     main.obj
 0002:0001fbc8       ??_C@_0N@DFMBHLIJ@wire_u_color@ 0000000180106bc8     main.obj
 0002:0001fbd8       ??_C@_0N@JDGNNCCD@weapon_chams@ 0000000180106bd8     main.obj
 0002:0001fbe8       ??_C@_08GKENFDBB@OverFunc@ 0000000180106be8     main.obj
 0002:0001fbf8       ??_C@_0M@IGOGJBNK@local_bones@ 0000000180106bf8     main.obj
 0002:0001fc08       ??_C@_08ONPELKM@anti_aim@  0000000180106c08     main.obj
 0002:0001fc18       ??_C@_0P@EIJOKABM@player_tp_head@ 0000000180106c18     main.obj
 0002:0001fc28       ??_C@_06KGHINEPG@radius@   0000000180106c28     main.obj
 0002:0001fc30       ??_C@_0P@FBDOOOMP@target_tracers@ 0000000180106c30     main.obj
 0002:0001fc40       ??_C@_0L@KBHIBNF@oof_arrows@ 0000000180106c40     main.obj
 0002:0001fc50       ??_C@_08MNHNCKGB@out_type@ 0000000180106c50     main.obj
 0002:0001fc60       ??_C@_08LHFODBFO@distance@ 0000000180106c60     main.obj
 0002:0001fc6c       ??_C@_03OLPJGAII@box@      0000000180106c6c     main.obj
 0002:0001fc70       ??_C@_0BG@FFEEBLCB@autoshoot_power_shoot@ 0000000180106c70     main.obj
 0002:0001fc88       ??_C@_0L@DNLOELDK@box_rotate@ 0000000180106c88     main.obj
 0002:0001fc98       ??_C@_07IEMBJFJK@fillbox@  0000000180106c98     main.obj
 0002:0001fca0       ??_C@_09KAFKNFAP@Grfillbox@ 0000000180106ca0     main.obj
 0002:0001fcb0       ??_C@_0L@CGLEKIKC@RGBfillbox@ 0000000180106cb0     main.obj
 0002:0001fcc0       ??_C@_0BB@LMDFJNNG@RGBfillbox?5Alpha@ 0000000180106cc0     main.obj
 0002:0001fcd8       ??_C@_08HDLLBFPI@boxstyle@ 0000000180106cd8     main.obj
 0002:0001fce8       ??_C@_08GKHDINGL@esp_type@ 0000000180106ce8     main.obj
 0002:0001fcf4       ??_C@_03LPJCHBD@Esp@       0000000180106cf4     main.obj
 0002:0001fcf8       ??_C@_08PGJLABAN@skeleton@ 0000000180106cf8     main.obj
 0002:0001fd08       ??_C@_09GECEGHOC@healthbar@ 0000000180106d08     main.obj
 0002:0001fd14       ??_C@_06GEPNGEJI@weapon@   0000000180106d14     main.obj
 0002:0001fd20       ??_C@_0L@JOPOLHDA@WeaponIcon@ 0000000180106d20     main.obj
 0002:0001fd30       ??_C@_0BC@INCNAOMD@DisableWeaponName@ 0000000180106d30     main.obj
 0002:0001fd48       ??_C@_0O@LCNOLOIO@sleeperignore@ 0000000180106d48     main.obj
 0002:0001fd58       ??_C@_0L@OJMPDFEF@targetline@ 0000000180106d58     main.obj
 0002:0001fd68       ??_C@_0M@GEHNABL@Visuals?5npc@ 0000000180106d68     main.obj
 0002:0001fd78       ??_C@_09CCKLFHKM@GRfillbox@ 0000000180106d78     main.obj
 0002:0001fd88       ??_C@_0P@HNKLPNMO@rainbowfillbox@ 0000000180106d88     main.obj
 0002:0001fd98       ??_C@_0O@ENNLMHFK@Radial?5Radius@ 0000000180106d98     main.obj
 0002:0001fda8       ??_C@_05BBOGGNLJ@Other@    0000000180106da8     main.obj
 0002:0001fdb0       ??_C@_08JONJHPOO@skycolor@ 0000000180106db0     main.obj
 0002:0001fdbc       ??_C@_05BIIIGEGH@Stars@    0000000180106dbc     main.obj
 0002:0001fdc8       ??_C@_0N@CILGFBPB@Stars?5Amount@ 0000000180106dc8     main.obj
 0002:0001fdd8       ??_C@_0BH@BJDDMHHL@show_distance_bulletTp@ 0000000180106dd8     main.obj
 0002:0001fdf0       ??_C@_09LLHIGICI@No_bobing@ 0000000180106df0     main.obj
 0002:0001fe00       ??_C@_0M@IILIINCE@bradley_apc@ 0000000180106e00     main.obj
 0002:0001fe10       ??_C@_0M@PIIAMIJO@patrol_heli@ 0000000180106e10     main.obj
 0002:0001fe1c       ??_C@_02CFNLJIOF@Tc@       0000000180106e1c     main.obj
 0002:0001fe20       ??_C@_0N@HFBKDGAK@sleeping_bag@ 0000000180106e20     main.obj
 0002:0001fe30       ??_C@_03BJLIAD@bed@        0000000180106e30     main.obj
 0002:0001fe34       ??_C@_05PEOGLLBM@boxes@    0000000180106e34     main.obj
 0002:0001fe40       ??_C@_0O@IHNCKKFG@show_distance@ 0000000180106e40     main.obj
 0002:0001fe50       ??_C@_0BD@GCMNAFAO@draw_distance?5base@ 0000000180106e50     main.obj
 0002:0001fe68       ??_C@_0L@HEKJHFHM@minicopter@ 0000000180106e68     main.obj
 0002:0001fe78       ??_C@_09PMDLBBBJ@scrapheli@ 0000000180106e78     main.obj
 0002:0001fe84       ??_C@_04LLCMNGHP@boat@     0000000180106e84     main.obj
 0002:0001fe8c       ??_C@_04FEJAJNCL@rhib@     0000000180106e8c     main.obj
 0002:0001fe98       ??_C@_0BG@ECLHJGPA@draw_distance?5vehicle@ 0000000180106e98     main.obj
 0002:0001feb0       ??_C@_0M@EMHFGLHA@auto_turret@ 0000000180106eb0     main.obj
 0002:0001fec0       ??_C@_0N@FINHHIAF@flame_turret@ 0000000180106ec0     main.obj
 0002:0001fed0       ??_C@_0P@PLMNBIMC@shotgun_turret@ 0000000180106ed0     main.obj
 0002:0001fee0       ??_C@_08IKEDDBIN@landmine@ 0000000180106ee0     main.obj
 0002:0001fef0       ??_C@_08GIAOFOJL@sam_site@ 0000000180106ef0     main.obj
 0002:0001ff00       ??_C@_09OOLDKKND@bear_trap@ 0000000180106f00     main.obj
 0002:0001ff10       ??_C@_0BF@IHEBKBBK@draw_distance?5turret@ 0000000180106f10     main.obj
 0002:0001ff28       ??_C@_0O@MPLEPFMJ@dropped_items@ 0000000180106f28     main.obj
 0002:0001ff38       ??_C@_07OAMMBHFB@bodybag@  0000000180106f38     main.obj
 0002:0001ff40       ??_C@_06IHHPJBKO@corpse@   0000000180106f40     main.obj
 0002:0001ff48       ??_C@_05LHNAMAPM@stash@    0000000180106f48     main.obj
 0002:0001ff50       ??_C@_04PDFHBCNK@hemp@     0000000180106f50     main.obj
 0002:0001ff58       ??_C@_0BE@GJFFCAME@draw_distance?5other@ 0000000180106f58     main.obj
 0002:0001ff6c       ??_C@_05EHJKLNBO@elite@    0000000180106f6c     main.obj
 0002:0001ff78       ??_C@_08DONDOGNJ@military@ 0000000180106f78     main.obj
 0002:0001ff84       ??_C@_06MJCBMGON@supply@   0000000180106f84     main.obj
 0002:0001ff90       ??_C@_07NDNOMLNG@chinook@  0000000180106f90     main.obj
 0002:0001ff98       ??_C@_04GJJFNBPF@heli@     0000000180106f98     main.obj
 0002:0001ffa0       ??_C@_07BNOPMIOP@bradley@  0000000180106fa0     main.obj
 0002:0001ffa8       ??_C@_0BF@HFFHBHKL@draw_distance?5crates@ 0000000180106fa8     main.obj
 0002:0001ffc0       ??_C@_04ICMLJBJN@bear@     0000000180106fc0     main.obj
 0002:0001ffc8       ??_C@_03NIDOINLA@pig@      0000000180106fc8     main.obj
 0002:0001ffd0       ??_C@_07NEMMOJKD@chicken@  0000000180106fd0     main.obj
 0002:0001ffd8       ??_C@_04GDAACNAN@wolf@     0000000180106fd8     main.obj
 0002:0001ffe0       ??_C@_04KICMMOB@deer@      0000000180106fe0     main.obj
 0002:0001ffe8       ??_C@_0BG@LOIDPCAB@draw_distance?5animals@ 0000000180106fe8     main.obj
 0002:00020000       ??_C@_0BF@MGOJBCMO@other?3?3show_distance@ 0000000180107000     main.obj
 0002:00020018       ??_C@_0BF@KCPPJHIA@other?3?3draw_distance@ 0000000180107018     main.obj
 0002:00020030       ??_C@_0L@PFJJLGN@TargetInfo@ 0000000180107030     main.obj
 0002:0002003c       ??_C@_04MHPHMCPO@Misc@     000000018010703c     main.obj
 0002:00020048       ??_C@_0O@HCINBFPP@Bullet?5Tracer@ 0000000180107048     main.obj
 0002:00020058       ??_C@_0P@MAAADGOJ@Bullet?5Tracer2@ 0000000180107058     main.obj
 0002:00020068       ??_C@_0P@NJBLAHKI@Bullet?5Tracer3@ 0000000180107068     main.obj
 0002:00020078       ??_C@_0P@JGFKJBGP@Bullet?5Tracer4@ 0000000180107078     main.obj
 0002:00020088       ??_C@_0P@IPEBKACO@Bullet?5Tracer5@ 0000000180107088     main.obj
 0002:00020098       ??_C@_0P@KEGMPDON@Bullet?5Tracer6@ 0000000180107098     main.obj
 0002:000200a8       ??_C@_0P@FNCBOMEO@Movement?5Line?5@ 00000001801070a8     main.obj
 0002:000200b8       ??_C@_0P@CFNFJMJN@Movement?5Line2@ 00000001801070b8     main.obj
 0002:000200c8       ??_C@_0P@DMMOKNNM@Movement?5Line3@ 00000001801070c8     main.obj
 0002:000200d8       ??_C@_0P@HDIPDLBL@Movement?5Line4@ 00000001801070d8     main.obj
 0002:000200e8       ??_C@_0BB@HOIGFOCH@Ineractive?5Debug@ 00000001801070e8     main.obj
 0002:00020100       ??_C@_07IACANNJD@fakelag@  0000000180107100     main.obj
 0002:00020108       ??_C@_0BC@GPHMFGFO@TeloportTopPlayer@ 0000000180107108     main.obj
 0002:00020120       ??_C@_0L@LDEKGEFP@modelstate@ 0000000180107120     main.obj
 0002:00020130       ??_C@_0L@HILBBNLG@cross_type@ 0000000180107130     main.obj
 0002:00020140       ??_C@_0BB@MECCGIKI@cross_type_color@ 0000000180107140     main.obj
 0002:00020158       ??_C@_08ICHACKKE@longneck@ 0000000180107158     main.obj
 0002:00020164       ??_C@_05JJCCAFKB@jesus@    0000000180107164     main.obj
 0002:00020170       ??_C@_07NIKEKKID@fotsize@  0000000180107170     main.obj
 0002:00020178       ??_C@_0BB@NDMBIKJP@fly_auto_stopper@ 0000000180107178     main.obj
 0002:00020190       ??_C@_0M@FIGMHGPJ@weapon_spam@ 0000000180107190     main.obj
 0002:000201a0       ??_C@_09HLOLODMG@fast_loot@ 00000001801071a0     main.obj
 0002:000201b0       ??_C@_0M@OADENICM@hammer_spam@ 00000001801071b0     main.obj
 0002:000201c0       ??_C@_0BB@DBALAJFK@hammer_spam_type@ 00000001801071c0     main.obj
 0002:000201d8       ??_C@_0M@EKPIKDOD@AspectRatio@ 00000001801071d8     main.obj
 0002:000201e8       ??_C@_0BC@GLFICHOA@flyhack_indicator@ 00000001801071e8     main.obj
 0002:00020200       ??_C@_0BB@GIEEPLKB@reload_indicator@ 0000000180107200     main.obj
 0002:00020218       ??_C@_0BG@DOJPFLOI@manipulator_indicator@ 0000000180107218     main.obj
 0002:00020230       ??_C@_0P@OHFFJMC@Player_Circles@ 0000000180107230     main.obj
 0002:00020240       ??_C@_09OBPJFMAH@spiderman@ 0000000180107240     main.obj
 0002:00020250       ??_C@_0P@CGFLKKJD@spider_colider@ 0000000180107250     main.obj
 0002:00020260       ??_C@_0M@MNFKINHO@better_jump@ 0000000180107260     main.obj
 0002:00020270       ??_C@_07MCPHBAFF@no_fall@  0000000180107270     main.obj
 0002:00020278       ??_C@_07ENPEKJGL@fldview@  0000000180107278     main.obj
 0002:00020280       ??_C@_0N@JFLLCPLN@Hit?5Material@ 0000000180107280     main.obj
 0002:00020290       ??_C@_09JKBEICIG@HitEffect@ 0000000180107290     main.obj
 0002:000202a0       ??_C@_0BA@LMPNFFKO@HitSpawnNearest@ 00000001801072a0     main.obj
 0002:000202b0       ??_C@_0O@EKFCBGKB@anti_aim_type@ 00000001801072b0     main.obj
 0002:000202c0       ??_C@_0O@KCKOAHBD@emotion_spamm@ 00000001801072c0     main.obj
 0002:000202d0       ??_C@_0N@BPEPPDPP@Gesture?5Spam@ 00000001801072d0     main.obj
 0002:000202e0       ??_C@_0BB@BMBIIDPI@hit_notification@ 00000001801072e0     main.obj
 0002:000202f8       ??_C@_0O@IHCHANNG@Auto?5Pickp?5Up@ 00000001801072f8     main.obj
 0002:00020308       ??_C@_09CCJGNMEG@auto_farm@ 0000000180107308     main.obj
 0002:00020318       ??_C@_0O@FOGODLFO@auto_farm_ore@ 0000000180107318     main.obj
 0002:00020328       ??_C@_0P@IDDHCLLJ@auto_farm_tree@ 0000000180107328     main.obj
 0002:00020338       ??_C@_0L@IFOOHDMC@can_attack@ 0000000180107338     main.obj
 0002:00020348       ??_C@_0P@GMKNHFND@faster_healing@ 0000000180107348     main.obj
 0002:00020358       ??_C@_08CFHOIHAE@HitSound@ 0000000180107358     main.obj
 0002:00020368       ??_C@_0BF@PJEJJLKD@custom_hitsound_type@ 0000000180107368     main.obj
 0002:00020380       ??_C@_07DBKLMEBE@annoyer@  0000000180107380     main.obj
 0002:00020388       ??_C@_0BB@IBNHIEGH@rayleigh_changer@ 0000000180107388     main.obj
 0002:000203a0       ??_C@_0M@HFBINAFE@mie_changer@ 00000001801073a0     main.obj
 0002:000203b0       ??_C@_0P@IGLLJNAP@bright_ambient@ 00000001801073b0     main.obj
 0002:000203c0       ??_C@_0BD@DLCOGCLJ@brightness_changer@ 00000001801073c0     main.obj
 0002:000203d8       ??_C@_0M@OIMKGOCE@fog_changer@ 00000001801073d8     main.obj
 0002:000203e8       ??_C@_0N@CGPLCPAA@rain_changer@ 00000001801073e8     main.obj
 0002:000203f8       ??_C@_04IFCNJNKN@rain@     00000001801073f8     main.obj
 0002:00020400       ??_C@_07JACCJKML@thunder@  0000000180107400     main.obj
 0002:00020408       ??_C@_03KJMBPJEB@fog@      0000000180107408     main.obj
 0002:00020410       ??_C@_0L@BECHNFGG@brightness@ 0000000180107410     main.obj
 0002:00020420       ??_C@_08CKGEIGEA@rayleigh@ 0000000180107420     main.obj
 0002:0002042c       ??_C@_03EIHLGAHA@mie@      000000018010742c     main.obj
 0002:00020430       ??_C@_0L@DAGIGNFJ@night_mode@ 0000000180107430     main.obj
 0002:00020440       ??_C@_0P@CPFAMCJH@block_commands@ 0000000180107440     main.obj
 0002:00020450       ??_C@_0BB@FBKAAPHL@sapphire_spammer@ 0000000180107450     main.obj
 0002:00020468       ??_C@_0BC@BEMLJIOC@night_intensivity@ 0000000180107468     main.obj
 0002:00020480       ??_C@_09IEOMNIPF@nightmode@ 0000000180107480     main.obj
 0002:00020490       ??_C@_07JEANCJHA@visuals@  0000000180107490     main.obj
 0002:00020498       ??_C@_03EKOFOBND@amb@      0000000180107498     main.obj
 0002:0002049c       ??_C@_06PFKFADAP@Sphera@   000000018010749c     main.obj
 0002:000204a8       ??_C@_0L@KCDFPPPA@circle_hat@ 00000001801074a8     main.obj
 0002:000204b8       ??_C@_0BF@CGCIPLE@Custom?5Foving?5Player@ 00000001801074b8     main.obj
 0002:000204d0       ??_C@_05ONLLBMGH@ratio@    00000001801074d0     main.obj
 0002:000204d8       ??_C@_0BK@OJNNLBON@omnidirectional_sprinting@ 00000001801074d8     main.obj
 0002:000204f8       ??_C@_09FLFDNNM@fakeadmin@ 00000001801074f8     main.obj
 0002:00020508       ??_C@_0O@IEHOHJPH@Damage?5Marker@ 0000000180107508     main.obj
 0002:00020518       ??_C@_0L@FLGMHANI@Hit?5Marker@ 0000000180107518     main.obj
 0002:00020528       ??_C@_09MFMNAJHK@speed_key@ 0000000180107528     main.obj
 0002:00020538       ??_C@_07HAHIMJGO@stasher@  0000000180107538     main.obj
 0002:00020540       ??_C@_0L@JAOMBOHI@weaponspam@ 0000000180107540     main.obj
 0002:0002054c       ??_C@_05PEHMNMFL@BTbox@    000000018010754c     main.obj
 0002:00020558       ??_C@_0M@OICJMJJM@custom_time@ 0000000180107558     main.obj
 0002:00020564       ??_C@_04CLCEDBPF@time@     0000000180107564     main.obj
 0002:00020570       ??_C@_0BD@FKDIIHGB@Global?5Render?5Font@ 0000000180107570     main.obj
 0002:00020588       ??_C@_0BA@GHMBGAOC@ambient_color?5x@ 0000000180107588     main.obj
 0002:00020598       ??_C@_06ENIPCAGE@colors@   0000000180107598     main.obj
 0002:000205a0       ??_C@_0BA@HONKFBKD@ambient_color?5y@ 00000001801075a0     main.obj
 0002:000205b0       ??_C@_0BA@FFPHACGA@ambient_color?5z@ 00000001801075b0     main.obj
 0002:000205c0       ??_C@_0BA@OAFJHMCN@ambient_color?5w@ 00000001801075c0     main.obj
 0002:000205d0       ??_C@_0M@FKOPDCPN@sky_color?5x@ 00000001801075d0     main.obj
 0002:000205e0       ??_C@_0M@EDPEADLM@sky_color?5y@ 00000001801075e0     main.obj
 0002:000205f0       ??_C@_0M@GINJFAHP@sky_color?5z@ 00000001801075f0     main.obj
 0002:00020600       ??_C@_0M@NNHHCODC@sky_color?5w@ 0000000180107600     main.obj
 0002:00020610       ??_C@_0P@BMAFAFKG@Radial?5Color?5x@ 0000000180107610     main.obj
 0002:00020620       ??_C@_0P@FBODEOH@Radial?5Color?5y@ 0000000180107620     main.obj
 0002:00020630       ??_C@_0P@CODDGHCE@Radial?5Color?5z@ 0000000180107630     main.obj
 0002:00020640       ??_C@_0P@JLJNBJGJ@Radial?5Color?5w@ 0000000180107640     main.obj
 0002:00020650       ??_C@_08POBADGCI@marker?5x@ 0000000180107650     main.obj
 0002:00020660       ??_C@_08OHALAHGJ@marker?5y@ 0000000180107660     main.obj
 0002:00020670       ??_C@_08MMCGFEKK@marker?5z@ 0000000180107670     main.obj
 0002:00020680       ??_C@_09FGJOOPNM@markerr?5w@ 0000000180107680     main.obj
 0002:00020690       ??_C@_0M@NEAEBMNJ@Boxviscol?5x@ 0000000180107690     main.obj
 0002:000206a0       ??_C@_0M@MNBPCNJI@Boxviscol?5y@ 00000001801076a0     main.obj
 0002:000206b0       ??_C@_0M@OGDCHOFL@Boxviscol?5z@ 00000001801076b0     main.obj
 0002:000206c0       ??_C@_0M@FDJMAABG@Boxviscol?5w@ 00000001801076c0     main.obj
 0002:000206d0       ??_C@_0BF@BMHICMGI@damagemarker?5Color?5x@ 00000001801076d0     main.obj
 0002:000206e8       ??_C@_0BF@FGDBNCJ@damagemarker?5Color?5y@ 00000001801076e8     main.obj
 0002:00020700       ??_C@_0BF@COEOEOOK@damagemarker?5Color?5z@ 0000000180107700     main.obj
 0002:00020718       ??_C@_0BF@JLOADAKH@damagemarker?5Color?5w@ 0000000180107718     main.obj
 0002:00020730       ??_C@_0BC@KMBLMEBA@hitmarker?5Color?5x@ 0000000180107730     main.obj
 0002:00020748       ??_C@_0BC@LFAAPFFB@hitmarker?5Color?5y@ 0000000180107748     main.obj
 0002:00020760       ??_C@_0BC@JOCNKGJC@hitmarker?5Color?5z@ 0000000180107760     main.obj
 0002:00020778       ??_C@_0BC@CLIDNINP@hitmarker?5Color?5w@ 0000000180107778     main.obj
 0002:00020790       ??_C@_0M@GEOPCAD@colsphere?5x@ 0000000180107790     main.obj
 0002:000207a0       ??_C@_0M@BPFFMDEC@colsphere?5y@ 00000001801077a0     main.obj
 0002:000207b0       ??_C@_0M@DEHIJAIB@colsphere?5z@ 00000001801077b0     main.obj
 0002:000207c0       ??_C@_0M@IBNGOOMM@colsphere?5w@ 00000001801077c0     main.obj
 0002:000207d0       ??_C@_0M@KMOFHIMJ@vissphere?5x@ 00000001801077d0     main.obj
 0002:000207e0       ??_C@_0M@LFPOEJII@vissphere?5y@ 00000001801077e0     main.obj
 0002:000207f0       ??_C@_0M@JONDBKEL@vissphere?5z@ 00000001801077f0     main.obj
 0002:00020800       ??_C@_0M@CLHNGEAG@vissphere?5w@ 0000000180107800     main.obj
 0002:00020810       ??_C@_0P@MFFJAIJG@player_color?5x@ 0000000180107810     main.obj
 0002:00020820       ??_C@_0P@NMECDJNH@player_color?5y@ 0000000180107820     main.obj
 0002:00020830       ??_C@_0P@PHGPGKBE@player_color?5z@ 0000000180107830     main.obj
 0002:00020840       ??_C@_0P@ECMBBEFJ@player_color?5w@ 0000000180107840     main.obj
 0002:00020850       ??_C@_0BD@JFHBDLMK@GrFillBox_Color1?5x@ 0000000180107850     main.obj
 0002:00020868       ??_C@_0BD@IMGKAKIL@GrFillBox_Color1?5y@ 0000000180107868     main.obj
 0002:00020880       ??_C@_0BD@KHEHFJEI@GrFillBox_Color1?5z@ 0000000180107880     main.obj
 0002:00020898       ??_C@_0BD@BCOJCHAF@GrFillBox_Color1?5w@ 0000000180107898     main.obj
 0002:000208b0       ??_C@_0BD@IHMEJECE@GrFillBox_Color2?5x@ 00000001801078b0     main.obj
 0002:000208c8       ??_C@_0BD@JONPKFGF@GrFillBox_Color2?5y@ 00000001801078c8     main.obj
 0002:000208e0       ??_C@_0BD@LFPCPGKG@GrFillBox_Color2?5z@ 00000001801078e0     main.obj
 0002:000208f8       ??_C@_0BD@FMIIOL@GrFillBox_Color2?5w@ 00000001801078f8     main.obj
 0002:00020910       ??_C@_0BH@DPKCOPDA@target_tracers_color?5x@ 0000000180107910     main.obj
 0002:00020928       ??_C@_0BH@CGLJNOHB@target_tracers_color?5y@ 0000000180107928     main.obj
 0002:00020940       ??_C@_0BH@NJEINLC@target_tracers_color?5z@ 0000000180107940     main.obj
 0002:00020958       ??_C@_0BH@LIDKPDPP@target_tracers_color?5w@ 0000000180107958     main.obj
 0002:00020970       ??_C@_06PLJGDNLP@npc1?5x@  0000000180107970     main.obj
 0002:00020978       ??_C@_06OCINAMPO@npc1?5y@  0000000180107978     main.obj
 0002:00020980       ??_C@_06MJKAFPDN@npc1?5z@  0000000180107980     main.obj
 0002:00020988       ??_C@_06HMAOCBHA@npc1?5w@  0000000180107988     main.obj
 0002:00020990       ??_C@_06OJCDJCFB@npc2?5x@  0000000180107990     main.obj
 0002:00020998       ??_C@_06PADIKDBA@npc2?5y@  0000000180107998     main.obj
 0002:000209a0       ??_C@_06NLBFPAND@npc2?5z@  00000001801079a0     main.obj
 0002:000209a8       ??_C@_06GOLLIOJO@npc2?5w@  00000001801079a8     main.obj
 0002:000209b0       ??_C@_0M@HFADIMEB@npc_color?5x@ 00000001801079b0     main.obj
 0002:000209c0       ??_C@_0M@GMBILNAA@npc_color?5y@ 00000001801079c0     main.obj
 0002:000209d0       ??_C@_0M@EHDFOOMD@npc_color?5z@ 00000001801079d0     main.obj
 0002:000209e0       ??_C@_0M@PCJLJAIO@npc_color?5w@ 00000001801079e0     main.obj
 0002:000209f0       ??_C@_0M@EHPLEMIM@crosshair?5x@ 00000001801079f0     main.obj
 0002:00020a00       ??_C@_0M@FOOAHNMN@crosshair?5y@ 0000000180107a00     main.obj
 0002:00020a10       ??_C@_0M@HFMNCOAO@crosshair?5z@ 0000000180107a10     main.obj
 0002:00020a20       ??_C@_0M@MAGDFAED@crosshair?5w@ 0000000180107a20     main.obj
 0002:00020a30       ??_C@_0N@JLBACHKF@crosshair2?5x@ 0000000180107a30     main.obj
 0002:00020a40       ??_C@_0N@ICALBGOE@crosshair2?5y@ 0000000180107a40     main.obj
 0002:00020a50       ??_C@_0N@KJCGEFCH@crosshair2?5z@ 0000000180107a50     main.obj
 0002:00020a60       ??_C@_0N@BMIIDLGK@crosshair2?5w@ 0000000180107a60     main.obj
 0002:00020a70       ??_C@_0O@NAJAPLFC@cross_color?5x@ 0000000180107a70     main.obj
 0002:00020a80       ??_C@_0O@MJILMKBD@cross_color?5y@ 0000000180107a80     main.obj
 0002:00020a90       ??_C@_0O@OCKGJJNA@cross_color?5z@ 0000000180107a90     main.obj
 0002:00020aa0       ??_C@_0O@FHAIOHJN@cross_color?5w@ 0000000180107aa0     main.obj
 0002:00020ab0       ??_C@_0P@PFEHHJLF@cross2_color?5x@ 0000000180107ab0     main.obj
 0002:00020ac0       ??_C@_0P@OMFMEIPE@cross2_color?5y@ 0000000180107ac0     main.obj
 0002:00020ad0       ??_C@_0P@MHHBBLDH@cross2_color?5z@ 0000000180107ad0     main.obj
 0002:00020ae0       ??_C@_0P@HCNPGFHK@cross2_color?5w@ 0000000180107ae0     main.obj
 0002:00020af0       ??_C@_0BN@EJOEMJGM@name_distance_color_player?5x@ 0000000180107af0     main.obj
 0002:00020b10       ??_C@_0BN@FAPPPICN@name_distance_color_player?5y@ 0000000180107b10     main.obj
 0002:00020b30       ??_C@_0BN@HLNCKLOO@name_distance_color_player?5z@ 0000000180107b30     main.obj
 0002:00020b50       ??_C@_0BN@MOHMNFKD@name_distance_color_player?5w@ 0000000180107b50     main.obj
 0002:00020b70       ??_C@_0M@KBEEBOMF@FillColor?5x@ 0000000180107b70     main.obj
 0002:00020b80       ??_C@_0M@LIFPCPIE@FillColor?5y@ 0000000180107b80     main.obj
 0002:00020b90       ??_C@_0M@JDHCHMEH@FillColor?5z@ 0000000180107b90     main.obj
 0002:00020ba0       ??_C@_0M@CGNMACAK@FillColor?5w@ 0000000180107ba0     main.obj
 0002:00020bb0       ??_C@_0M@LOOGGJNL@FillColor2x@ 0000000180107bb0     main.obj
 0002:00020bc0       ??_C@_0N@INONFAIC@FillColor2?5y@ 0000000180107bc0     main.obj
 0002:00020bd0       ??_C@_0N@KGMAADEB@FillColor2?5z@ 0000000180107bd0     main.obj
 0002:00020be0       ??_C@_0N@BDGOHNAM@FillColor2?5w@ 0000000180107be0     main.obj
 0002:00020bf0       ??_C@_0M@EOMMAFOC@off_color?5x@ 0000000180107bf0     main.obj
 0002:00020c00       ??_C@_0M@FHNHDEKD@off_color?5y@ 0000000180107c00     main.obj
 0002:00020c10       ??_C@_0M@HMPKGHGA@off_color?5z@ 0000000180107c10     main.obj
 0002:00020c20       ??_C@_0M@MJFEBJCN@off_color?5w@ 0000000180107c20     main.obj
 0002:00020c30       ??_C@_0N@OONPCALF@PlayerLine?5x@ 0000000180107c30     main.obj
 0002:00020c40       ??_C@_0N@PHMEBBPE@PlayerLine?5y@ 0000000180107c40     main.obj
 0002:00020c50       ??_C@_0N@NMOJECDH@PlayerLine?5z@ 0000000180107c50     main.obj
 0002:00020c60       ??_C@_0N@GJEHDMHK@PlayerLine?5w@ 0000000180107c60     main.obj
 0002:00020c70       ??_C@_0N@GHEJOKGF@BulletLine?5x@ 0000000180107c70     main.obj
 0002:00020c80       ??_C@_0N@HOFCNLCE@BulletLine?5y@ 0000000180107c80     main.obj
 0002:00020c90       ??_C@_0N@FFHPIIOH@BulletLine?5z@ 0000000180107c90     main.obj
 0002:00020ca0       ??_C@_0N@OANBPGKK@BulletLine?5w@ 0000000180107ca0     main.obj
 0002:00020cb0       ??_C@_0L@GJBOBDBD@CrossCol?5x@ 0000000180107cb0     main.obj
 0002:00020cc0       ??_C@_0L@HAAFCCFC@CrossCol?5y@ 0000000180107cc0     main.obj
 0002:00020cd0       ??_C@_0L@FLCIHBJB@CrossCol?5z@ 0000000180107cd0     main.obj
 0002:00020ce0       ??_C@_0L@OOIGAPNM@CrossCol?5w@ 0000000180107ce0     main.obj
 0002:00020cf0       ??_C@_08OPIKDCB@FovCol?5x@ 0000000180107cf0     main.obj
 0002:00020d00       ??_C@_08BHODJCGA@FovCol?5y@ 0000000180107d00     main.obj
 0002:00020d10       ??_C@_08DMMOMBKD@FovCol?5z@ 0000000180107d10     main.obj
 0002:00020d20       ??_C@_08IJGALPOO@FovCol?5w@ 0000000180107d20     main.obj
 0002:00020d30       ??_C@_09DDDOPLBP@FovCol2?5x@ 0000000180107d30     main.obj
 0002:00020d40       ??_C@_09CKCFMKFO@FovCol2?5y@ 0000000180107d40     main.obj
 0002:00020d50       ??_C@_09BAIJJJN@FovCol2?5z@ 0000000180107d50     main.obj
 0002:00020d60       ??_C@_09LEKGOHNA@FovCol2?5w@ 0000000180107d60     main.obj
 0002:00020d70       ??_C@_0L@NCDMADAF@fill_col?5x@ 0000000180107d70     main.obj
 0002:00020d80       ??_C@_0L@MLCHDCEE@fill_col?5y@ 0000000180107d80     main.obj
 0002:00020d90       ??_C@_0L@OAAKGBIH@fill_col?5z@ 0000000180107d90     main.obj
 0002:00020da0       ??_C@_0L@FFKEBPMK@fill_col?5w@ 0000000180107da0     main.obj
 0002:00020db0       ??_C@_0M@DHBDIHBM@MarkColor?5x@ 0000000180107db0     main.obj
 0002:00020dc0       ??_C@_0M@COAILGFN@MarkColor?5y@ 0000000180107dc0     main.obj
 0002:00020dd0       ??_C@_0M@FCFOFJO@MarkColor?5z@ 0000000180107dd0     main.obj
 0002:00020de0       ??_C@_0M@NOFKAMBL@MenuColor?5x@ 0000000180107de0     main.obj
 0002:00020df0       ??_C@_0M@MHEBDNFK@MenuColor?5y@ 0000000180107df0     main.obj
 0002:00020e00       ??_C@_0M@OMGMGOJJ@MenuColor?5z@ 0000000180107e00     main.obj
 0002:00020e10       ??_C@_0L@LHEELGNB@MPRadius?5x@ 0000000180107e10     main.obj
 0002:00020e20       ??_C@_0L@KOFPIHJA@MPRadius?5y@ 0000000180107e20     main.obj
 0002:00020e30       ??_C@_0L@IFHCNEFD@MPRadius?5z@ 0000000180107e30     main.obj
 0002:00020e40       ??_C@_0L@DANMKKBO@MPRadius?5w@ 0000000180107e40     main.obj
 0002:00020e50       ??_C@_0O@MBNDNNFM@BTspheraCol?5x@ 0000000180107e50     main.obj
 0002:00020e60       ??_C@_0O@NIMIOMBN@BTspheraCol?5y@ 0000000180107e60     main.obj
 0002:00020e70       ??_C@_0O@PDOFLPNO@BTspheraCol?5z@ 0000000180107e70     main.obj
 0002:00020e80       ??_C@_0O@EGELMBJD@BTspheraCol?5w@ 0000000180107e80     main.obj
 0002:00020e90       ??_C@_0P@JHELJCDA@angle_vector?5x@ 0000000180107e90     main.obj
 0002:00020ea0       ??_C@_0P@IOFAKDHB@angle_vector?5y@ 0000000180107ea0     main.obj
 0002:00020eb0       ??_C@_0P@KFHNPALC@angle_vector?5z@ 0000000180107eb0     main.obj
 0002:00020ec0       ??_C@_0O@EENPPOCI@angle_arrow?5x@ 0000000180107ec0     main.obj
 0002:00020ed0       ??_C@_0O@FNMEMPGJ@angle_arrow?5y@ 0000000180107ed0     main.obj
 0002:00020ee0       ??_C@_0O@HGOJJMKK@angle_arrow?5z@ 0000000180107ee0     main.obj
 0002:00020ef0       ??_C@_0L@DCIPCIIN@BTboxCol?5x@ 0000000180107ef0     main.obj
 0002:00020f00       ??_C@_0L@CLJEBJMM@BTboxCol?5y@ 0000000180107f00     main.obj
 0002:00020f10       ??_C@_0L@LJEKAP@BTboxCol?5z@ 0000000180107f10     main.obj
 0002:00020f20       ??_C@_0L@LFBHDEEC@BTboxCol?5w@ 0000000180107f20     main.obj
 0002:00020f30       ??_C@_0O@CDHELNLP@local_bones?5x@ 0000000180107f30     main.obj
 0002:00020f40       ??_C@_0O@DKGPIMPO@local_bones?5y@ 0000000180107f40     main.obj
 0002:00020f50       ??_C@_0O@BBECNPDN@local_bones?5z@ 0000000180107f50     main.obj
 0002:00020f60       ??_C@_0O@KEOMKBHA@local_bones?5w@ 0000000180107f60     main.obj
 0002:00020f70       ??_C@_0N@ICNPHHAP@hand_chams?5x@ 0000000180107f70     main.obj
 0002:00020f80       ??_C@_0N@JLMEEGEO@hand_chams?5y@ 0000000180107f80     main.obj
 0002:00020f90       ??_C@_0N@LAOJBFIN@hand_chams?5z@ 0000000180107f90     main.obj
 0002:00020fa0       ??_C@_0N@FEHGLMA@hand_chams?5w@ 0000000180107fa0     main.obj
 0002:00020fb0       ??_C@_0BH@ILHDFOJP@player_circles_color?5x@ 0000000180107fb0     main.obj
 0002:00020fc8       ??_C@_0BH@JCGIGPNO@player_circles_color?5y@ 0000000180107fc8     main.obj
 0002:00020fe0       ??_C@_0BH@LJEFDMBN@player_circles_color?5z@ 0000000180107fe0     main.obj
 0002:00020ff8       ??_C@_0O@OPGENBAE@hand_chams2?5x@ 0000000180107ff8     main.obj
 0002:00021008       ??_C@_0O@PGHPOAEF@hand_chams2?5y@ 0000000180108008     main.obj
 0002:00021018       ??_C@_0O@NNFCLDIG@hand_chams2?5z@ 0000000180108018     main.obj
 0002:00021028       ??_C@_0O@GIPMMNML@hand_chams2?5w@ 0000000180108028     main.obj
 0002:00021038       ??_C@_07IEIMCOPD@ghost?5x@ 0000000180108038     main.obj
 0002:00021040       ??_C@_07JNJHBPLC@ghost?5y@ 0000000180108040     main.obj
 0002:00021048       ??_C@_07LGLKEMHB@ghost?5z@ 0000000180108048     main.obj
 0002:00021050       ??_C@_07DBEDCDM@ghost?5w@  0000000180108050     main.obj
 0002:00021058       ??_C@_06MDEEFHIL@holo?5x@  0000000180108058     main.obj
 0002:00021060       ??_C@_06NKFPGGMK@holo?5y@  0000000180108060     main.obj
 0002:00021068       ??_C@_06PBHCDFAJ@holo?5z@  0000000180108068     main.obj
 0002:00021070       ??_C@_06EENMELEE@holo?5w@  0000000180108070     main.obj
 0002:00021078       ??_C@_06GBJFFAGM@glow?5x@  0000000180108078     main.obj
 0002:00021080       ??_C@_06HIIOGBCN@glow?5y@  0000000180108080     main.obj
 0002:00021088       ??_C@_06FDKDDCOO@glow?5z@  0000000180108088     main.obj
 0002:00021090       ??_C@_06OGANEMKD@glow?5w@  0000000180108090     main.obj
 0002:00021098       ??_C@_08OBGAEJGG@beh_pl?5x@ 0000000180108098     main.obj
 0002:000210a8       ??_C@_08PIHLHICH@beh_pl?5y@ 00000001801080a8     main.obj
 0002:000210b8       ??_C@_08NDFGCLOE@beh_pl?5z@ 00000001801080b8     main.obj
 0002:000210c8       ??_C@_08GGPIFFKJ@beh_pl?5w@ 00000001801080c8     main.obj
 0002:000210d8       ??_C@_08CCDKIHGA@vis_pl?5x@ 00000001801080d8     main.obj
 0002:000210e8       ??_C@_08DLCBLGCB@vis_pl?5y@ 00000001801080e8     main.obj
 0002:000210f8       ??_C@_08BAAMOFOC@vis_pl?5z@ 00000001801080f8     main.obj
 0002:00021108       ??_C@_08KFKCJLKP@vis_pl?5w@ 0000000180108108     main.obj
 0002:00021118       ??_C@_09NLGJLHMG@beh_pl2?5x@ 0000000180108118     main.obj
 0002:00021128       ??_C@_09MCHCIGIH@beh_pl2?5y@ 0000000180108128     main.obj
 0002:00021138       ??_C@_09OJFPNFEE@beh_pl2?5z@ 0000000180108138     main.obj
 0002:00021148       ??_C@_09FMPBKLAJ@beh_pl2?5w@ 0000000180108148     main.obj
 0002:00021158       ??_C@_09GFIKGMHA@wire_pl?5x@ 0000000180108158     main.obj
 0002:00021168       ??_C@_09HMJBFNDB@wire_pl?5y@ 0000000180108168     main.obj
 0002:00021178       ??_C@_09FHLMAOPC@wire_pl?5z@ 0000000180108178     main.obj
 0002:00021188       ??_C@_09OCBCHALP@wire_pl?5w@ 0000000180108188     main.obj
 0002:00021198       ??_C@_09BPEMABMK@glow_pl?5x@ 0000000180108198     main.obj
 0002:000211a8       ??_C@_09GFHDAIL@glow_pl?5y@ 00000001801081a8     main.obj
 0002:000211b8       ??_C@_09CNHKGDEI@glow_pl?5z@ 00000001801081b8     main.obj
 0002:000211c8       ??_C@_09JINEBNAF@glow_pl?5w@ 00000001801081c8     main.obj
 0002:000211d8       ??_C@_0M@PONIBDLL@beh_fl_pl?5x@ 00000001801081d8     main.obj
 0002:000211e8       ??_C@_0M@OHMDCCPK@beh_fl_pl?5y@ 00000001801081e8     main.obj
 0002:000211f8       ??_C@_0M@MMOOHBDJ@beh_fl_pl?5z@ 00000001801081f8     main.obj
 0002:00021208       ??_C@_0M@HJEAAPHE@beh_fl_pl?5w@ 0000000180108208     main.obj
 0002:00021218       ??_C@_0M@CEJCCNOA@vis_fl_pl?5x@ 0000000180108218     main.obj
 0002:00021228       ??_C@_0M@DNIJBMKB@vis_fl_pl?5y@ 0000000180108228     main.obj
 0002:00021238       ??_C@_0M@BGKEEPGC@vis_fl_pl?5z@ 0000000180108238     main.obj
 0002:00021248       ??_C@_0M@KDAKDBCP@vis_fl_pl?5w@ 0000000180108248     main.obj
 0002:00021258       ??_C@_0BE@JNINHJIK@DamascusColor1_pl?5x@ 0000000180108258     main.obj
 0002:00021270       ??_C@_0BE@IEJGEIML@DamascusColor1_pl?5y@ 0000000180108270     main.obj
 0002:00021288       ??_C@_0BE@KPLLBLAI@DamascusColor1_pl?5z@ 0000000180108288     main.obj
 0002:000212a0       ??_C@_0BE@BKBFGFEF@DamascusColor1_pl?5w@ 00000001801082a0     main.obj
 0002:000212b8       ??_C@_0BE@KMGFGDBH@DamascusColor2_pl?5x@ 00000001801082b8     main.obj
 0002:000212d0       ??_C@_0BE@LFHOFCFG@DamascusColor2_pl?5y@ 00000001801082d0     main.obj
 0002:000212e8       ??_C@_0BE@JOFDABJF@DamascusColor2_pl?5z@ 00000001801082e8     main.obj
 0002:00021300       ??_C@_0BE@CLPNHPNI@DamascusColor2_pl?5w@ 0000000180108300     main.obj
 0002:00021318       ??_C@_0BH@EKKJHABM@DamascusGradient1_pl?5x@ 0000000180108318     main.obj
 0002:00021330       ??_C@_0BH@FDLCEBFN@DamascusGradient1_pl?5y@ 0000000180108330     main.obj
 0002:00021348       ??_C@_0BH@HIJPBCJO@DamascusGradient1_pl?5z@ 0000000180108348     main.obj
 0002:00021360       ??_C@_0BH@MNDBGMND@DamascusGradient1_pl?5w@ 0000000180108360     main.obj
 0002:00021378       ??_C@_0BG@LMBIKODN@DamascusPattern1_pl?5x@ 0000000180108378     main.obj
 0002:00021390       ??_C@_0BG@KFADJPHM@DamascusPattern1_pl?5y@ 0000000180108390     main.obj
 0002:000213a8       ??_C@_0BG@IOCOMMLP@DamascusPattern1_pl?5z@ 00000001801083a8     main.obj
 0002:000213c0       ??_C@_0BG@DLIALCPC@DamascusPattern1_pl?5w@ 00000001801083c0     main.obj
 0002:000213d8       ??_C@_0BD@IFNDDJNO@LightingColor_pl?5x@ 00000001801083d8     main.obj
 0002:000213f0       ??_C@_0BD@JMMIAIJP@LightingColor_pl?5y@ 00000001801083f0     main.obj
 0002:00021408       ??_C@_0BD@LHOFFLFM@LightingColor_pl?5z@ 0000000180108408     main.obj
 0002:00021420       ??_C@_0BD@CELCFBB@LightingColor_pl?5w@ 0000000180108420     main.obj
 0002:00021438       ??_C@_0L@GKDOGBEF@light_pl?5x@ 0000000180108438     main.obj
 0002:00021448       ??_C@_0L@HDCFFAAE@light_pl?5y@ 0000000180108448     main.obj
 0002:00021458       ??_C@_0L@FIAIADMH@light_pl?5z@ 0000000180108458     main.obj
 0002:00021468       ??_C@_0L@ONKGHNIK@light_pl?5w@ 0000000180108468     main.obj
 0002:00021478       ??_C@_0N@INPDFFAH@celoutline?5x@ 0000000180108478     main.obj
 0002:00021488       ??_C@_0N@JEOIGEEG@celoutline?5y@ 0000000180108488     main.obj
 0002:00021498       ??_C@_0N@LPMFDHIF@celoutline?5z@ 0000000180108498     main.obj
 0002:000214a8       ??_C@_0N@KGLEJMI@celoutline?5w@ 00000001801084a8     main.obj
 0002:000214b8       ??_C@_08PDPFDDMK@plasma?5x@ 00000001801084b8     main.obj
 0002:000214c8       ??_C@_08OKOOACIL@plasma?5y@ 00000001801084c8     main.obj
 0002:000214d8       ??_C@_08MBMDFBEI@plasma?5z@ 00000001801084d8     main.obj
 0002:000214e8       ??_C@_08HEGNCPAF@plasma?5w@ 00000001801084e8     main.obj
 0002:000214f8       ??_C@_0M@MOLIAJGA@invisible?5x@ 00000001801084f8     main.obj
 0002:00021508       ??_C@_0M@NHKDDICB@invisible?5y@ 0000000180108508     main.obj
 0002:00021518       ??_C@_0M@PMIOGLOC@invisible?5z@ 0000000180108518     main.obj
 0002:00021528       ??_C@_0M@EJCABFKP@invisible?5w@ 0000000180108528     main.obj
 0002:00021538       ??_C@_09OBLOEMNO@visible?5x@ 0000000180108538     main.obj
 0002:00021548       ??_C@_09PIKFHNJP@visible?5y@ 0000000180108548     main.obj
 0002:00021558       ??_C@_09NDIICOFM@visible?5z@ 0000000180108558     main.obj
 0002:00021568       ??_C@_09GGCGFABB@visible?5w@ 0000000180108568     main.obj
 0002:00021578       ??_C@_0P@HOBMBBMD@player_chams?5x@ 0000000180108578     main.obj
 0002:00021588       ??_C@_0P@GHAHCAIC@player_chams?5y@ 0000000180108588     main.obj
 0002:00021598       ??_C@_0P@EMCKHDEB@player_chams?5z@ 0000000180108598     main.obj
 0002:000215a8       ??_C@_0P@PJIEANAM@player_chams?5w@ 00000001801085a8     main.obj
 0002:000215b8       ??_C@_0BA@HNEKJMPJ@player_chams2?5x@ 00000001801085b8     main.obj
 0002:000215c8       ??_C@_0BA@GEFBKNLI@player_chams2?5y@ 00000001801085c8     main.obj
 0002:000215d8       ??_C@_0BA@EPHMPOHL@player_chams2?5z@ 00000001801085d8     main.obj
 0002:000215e8       ??_C@_0BA@PKNCIADG@player_chams2?5w@ 00000001801085e8     main.obj
 0002:000215f8       ??_C@_0BA@GOKJACKK@WorldEspColor?5x@ 00000001801085f8     main.obj
 0002:00021608       ??_C@_0BA@HHLCDDOL@WorldEspColor?5y@ 0000000180108608     main.obj
 0002:00021618       ??_C@_0BA@FMJPGACI@WorldEspColor?5z@ 0000000180108618     main.obj
 0002:00021628       ??_C@_0BA@OJDBBOGF@WorldEspColor?5w@ 0000000180108628     main.obj
 0002:00021638       ??_C@_0M@BPDIFPKE@one_color?5x@ 0000000180108638     main.obj
 0002:00021648       ??_C@_0M@GCDGOOF@one_color?5y@ 0000000180108648     main.obj
 0002:00021658       ??_C@_0M@CNAODNCG@one_color?5z@ 0000000180108658     main.obj
 0002:00021668       ??_C@_0M@JIKAEDGL@one_color?5w@ 0000000180108668     main.obj
 0002:00021678       ??_C@_0BD@IBHKFEPC@DamascusPattern1?5x@ 0000000180108678     main.obj
 0002:00021690       ??_C@_0BD@JIGBGFLD@DamascusPattern1?5y@ 0000000180108690     main.obj
 0002:000216a8       ??_C@_0BD@LDEMDGHA@DamascusPattern1?5z@ 00000001801086a8     main.obj
 0002:000216c0       ??_C@_0BD@GOCEIDN@DamascusPattern1?5w@ 00000001801086c0     main.obj
 0002:000216d8       ??_C@_0BE@HJMIJLDK@DamascusGradient1?5x@ 00000001801086d8     main.obj
 0002:000216f0       ??_C@_0BE@GANDKKHL@DamascusGradient1?5y@ 00000001801086f0     main.obj
 0002:00021708       ??_C@_0BE@ELPOPJLI@DamascusGradient1?5z@ 0000000180108708     main.obj
 0002:00021720       ??_C@_0BE@POFAIHPF@DamascusGradient1?5w@ 0000000180108720     main.obj
 0002:00021738       ??_C@_0BB@LHJHEHBH@DamascusColor2?5x@ 0000000180108738     main.obj
 0002:00021750       ??_C@_0BB@KOIMHGFG@DamascusColor2?5y@ 0000000180108750     main.obj
 0002:00021768       ??_C@_0BB@IFKBCFJF@DamascusColor2?5z@ 0000000180108768     main.obj
 0002:00021780       ??_C@_0BB@DAAPFLNI@DamascusColor2?5w@ 0000000180108780     main.obj
 0002:00021798       ??_C@_0BB@KFCCOIPJ@DamascusColor1?5x@ 0000000180108798     main.obj
 0002:000217b0       ??_C@_0BB@LMDJNJLI@DamascusColor1?5y@ 00000001801087b0     main.obj
 0002:000217c8       ??_C@_0BB@JHBEIKHL@DamascusColor1?5z@ 00000001801087c8     main.obj
 0002:000217e0       ??_C@_0BB@CCLKPEDG@DamascusColor1?5w@ 00000001801087e0     main.obj
 0002:000217f8       ??_C@_0BA@EIGICOOA@LightingColor?5x@ 00000001801087f8     main.obj
 0002:00021808       ??_C@_0BA@FBHDBPKB@LightingColor?5y@ 0000000180108808     main.obj
 0002:00021818       ??_C@_0BA@HKFOEMGC@LightingColor?5z@ 0000000180108818     main.obj
 0002:00021828       ??_C@_0BA@MPPADCCP@LightingColor?5w@ 0000000180108828     main.obj
 0002:00021838       ??_C@_0M@KACLHMNB@two_color?5x@ 0000000180108838     main.obj
 0002:00021848       ??_C@_0M@LJDAENJA@two_color?5y@ 0000000180108848     main.obj
 0002:00021858       ??_C@_0M@JCBNBOFD@two_color?5z@ 0000000180108858     main.obj
 0002:00021868       ??_C@_0M@CHLDGABO@two_color?5w@ 0000000180108868     main.obj
 0002:00021878       ??_C@_0M@KJCLGFMC@belt?3?3pos?5x@ 0000000180108878     main.obj
 0002:00021884       ??_C@_03PCBNCGFH@pos@      0000000180108884     main.obj
 0002:00021888       ??_C@_0M@LADAFEID@belt?3?3pos?5y@ 0000000180108888     main.obj
 0002:00021898       ??_C@_0M@LLHEANBE@wear?3?3pos?5x@ 0000000180108898     main.obj
 0002:000218a8       ??_C@_0M@KCGPDMFF@wear?3?3pos?5y@ 00000001801088a8     main.obj
 0002:000218b8       ??_C@_0P@ONHNEPE@keybind?3?3pos?5x@ 00000001801088b8     main.obj
 0002:000218c8       ??_C@_0P@BHMMOFLF@keybind?3?3pos?5y@ 00000001801088c8     main.obj
 0002:000218d8       ??_C@_0N@DHNGNDOK@radar?3?3pos?5x@ 00000001801088d8     main.obj
 0002:000218e8       ??_C@_0N@COMNOCKL@radar?3?3pos?5y@ 00000001801088e8     main.obj
 0002:000218f8       ??_C@_0L@EMKIODJH@UI?5COLOR?50@ 00000001801088f8     main.obj
 0002:00021908       ??_C@_0L@FFLDNCNG@UI?5COLOR?51@ 0000000180108908     main.obj
 0002:00021918       ??_C@_0L@HOJOIBBF@UI?5COLOR?52@ 0000000180108918     main.obj
 0002:00021928       ??_C@_0O@IAFDKNIP@fov?5animation@ 0000000180108928     main.obj
 0002:00021938       ??_C@_0BP@PAMCEGHI@Initialization?5Sapphire?4wtf?4?4?4@ 0000000180108938     main.obj
 0002:00021958       ??_C@_0O@KMADHDOB@Good?5Playing?$CB@ 0000000180108958     main.obj
 0002:00021968       ??_C@_0BC@NDKPELAM@Creator?5?9?5Faczad?$CB@ 0000000180108968     main.obj
 0002:00021980       ??_C@_0BB@DFNGOHDJ@Creator?5?9?5Faczad@ 0000000180108980     main.obj
 0002:00021994       ??_C@_02IAAGKKDJ@On@       0000000180108994     main.obj
 0002:00021998       ??_C@_05ILKCJPO@Binds@     0000000180108998     main.obj
 0002:000219a0       ??_C@_06CODCEEEF@Desync@   00000001801089a0     main.obj
 0002:000219a8       ??_C@_0O@KHHGAHAD@Teleport?5Head@ 00000001801089a8     main.obj
 0002:000219b8       ??_C@_09LAFGNNAK@Long?5Neck@ 00000001801089b8     main.obj
 0002:000219c8       ??_C@_07BPDHDMKH@Suicide@  00000001801089c8     main.obj
 0002:000219d0       ??_C@_04LLODKBCK@Zoom@     00000001801089d0     main.obj
 0002:000219d8       ??_C@_0M@INEKDBAI@Interactive@ 00000001801089d8     main.obj
 0002:000219e8       ??_C@_0L@FCEGDDKB@Speed?5Hack@ 00000001801089e8     main.obj
 0002:000219f8       ??_C@_0L@FFOFOLKE@Fake?5Shoot@ 00000001801089f8     main.obj
 0002:00021a08       ??_C@_0M@MDLAJDME@Hammer?5Spam@ 0000000180108a08     main.obj
 0002:00021a18       ??_C@_0BM@GHBHPGJM@ManipulatorCircle?5animation@ 0000000180108a18     main.obj
 0002:00021a38       ??_C@_0CA@ILJKGHCG@ManipulatorCircleFill?5animation@ 0000000180108a38     main.obj
 0002:00021a58       ??_C@_0BJ@MJCPLFFI@ManipulatorInd?5animation@ 0000000180108a58     main.obj
 0002:00021a78       ??_C@_0CA@GNCBEGIE@ManipulatorInd?5Active?5animation@ 0000000180108a78     main.obj
 0002:00021a98       ??_C@_0BC@IGJFCDDF@Flyhack?5animation@ 0000000180108a98     main.obj
 0002:00021ab0       ??_C@_0BE@KDLAKKCD@ReloadInd?5animation@ 0000000180108ab0     main.obj
 0002:00021ac8       ??_C@_0BF@OAIDEHHH@ReloadInd1?5animation@ 0000000180108ac8     main.obj
 0002:00021ae0       ??_C@_0BF@JHBNJFIH@ReloadInd2?5animation@ 0000000180108ae0     main.obj
 0002:00021af8       ??_C@_0BE@FDLLDMPM@Crosshair?5animation@ 0000000180108af8     main.obj
 0002:00021b10       ??_C@_0BE@OJDAJFEM@?5OverFunc?5animation@ 0000000180108b10     main.obj
 0002:00021b28       ??_C@_0O@MNDPDDO@?$HOManipulated?$HO@ 0000000180108b28     main.obj
 0002:00021b38       ??_C@_0BI@HDNGJCAL@LineOfSight?5Scanning?4?4?4@ 0000000180108b38     main.obj
 0002:00021b50       ??_C@_0BH@LDAPPGNM@?$HOLow?5?9?5Velocity?5Ready?$HO@ 0000000180108b50     main.obj
 0002:00021b68       ??_C@_0O@ONFCOLDE@?$HOBullet?5?9?5TP?$HO@ 0000000180108b68     main.obj
 0002:00021b78       ??_C@_0BC@KEKPDFOF@Weapon?5Spaming?4?4?4@ 0000000180108b78     main.obj
 0002:00021b90       ??_C@_0BD@BMEKGHPG@Head?5Teleported?4?4?4@ 0000000180108b90     main.obj
 0002:00021ba8       ??_C@_0BB@JLHNILKI@Speed?5Hacking?4?4?4@ 0000000180108ba8     main.obj
 0002:00021bc0       ??_C@_0O@MKNKIMPG@Belt?5Position@ 0000000180108bc0     main.obj
 0002:00021bd0       ??_C@_0O@FONBBFFK@Wear?5Position@ 0000000180108bd0     main.obj
 0002:00021be0       ??_C@_0N@NFBCKAJB@?$CD?$CDBackbuffer@ 0000000180108be0     main.obj
 0002:00021bf0       ??_C@_04PABHPHAJ@Gold@     0000000180108bf0     main.obj
 0002:00021bf8       ??_C@_08GCBEFBLK@Gradient@ 0000000180108bf8     main.obj
 0002:00021c04       ??_C@_05MPDBFDHF@Frame@    0000000180108c04     main.obj
 0002:00021c0c       ??_C@_05ILIDNFKK@Ghost@    0000000180108c0c     main.obj
 0002:00021c18       ??_C@_07HHGMOLCK@Ghost?52@ 0000000180108c18     main.obj
 0002:00021c20       ??_C@_05CMBGCMIL@Storm@    0000000180108c20     main.obj
 0002:00021c28       ??_C@_07DPJCBDOE@Storm?52@ 0000000180108c28     main.obj
 0002:00021c30       ??_C@_06FLNAEGPE@Galaxy@   0000000180108c30     main.obj
 0002:00021c38       ??_C@_08DKFCIJFN@Galaxy?52@ 0000000180108c38     main.obj
 0002:00021c48       ??_C@_08CDEJLIBM@Galaxy?53@ 0000000180108c48     main.obj
 0002:00021c58       ??_C@_08GMAICONL@Galaxy?54@ 0000000180108c58     main.obj
 0002:00021c68       ??_C@_08HFBDBPJK@Galaxy?55@ 0000000180108c68     main.obj
 0002:00021c78       ??_C@_08FODOEMFJ@Galaxy?56@ 0000000180108c78     main.obj
 0002:00021c84       ??_C@_06EFIKBGLE@Behind@   0000000180108c84     main.obj
 0002:00021c90       ??_C@_0L@MAFDEBMF@Lightframe@ 0000000180108c90     main.obj
 0002:00021c9c       ??_C@_04LMGLIOJM@Flow@     0000000180108c9c     main.obj
 0002:00021ca4       ??_C@_06MLJCMHFN@Shaded@   0000000180108ca4     main.obj
 0002:00021cac       ??_C@_03HFJGAJFE@All@      0000000180108cac     main.obj
 0002:00021cb0       ??_C@_0L@INDEMFN@Only?5hands@ 0000000180108cb0     main.obj
 0002:00021cc0       ??_C@_0M@GDABCCIM@Only?5Weapon@ 0000000180108cc0     main.obj
 0002:00021ccc       ??_C@_04OHJIHAFH@None@     0000000180108ccc     main.obj
 0002:00021cd4       ??_C@_04MJIIEFNN@Body@     0000000180108cd4     main.obj
 0002:00021cdc       ??_C@_04BFCCBDOP@Head@     0000000180108cdc     main.obj
 0002:00021ce4       ??_C@_06BEOPDEGP@Random@   0000000180108ce4     main.obj
 0002:00021cf0       ??_C@_09CDGAPMOE@Generated@ 0000000180108cf0     main.obj
 0002:00021d00       ??_C@_08BAEGCGPO@Splinted@ 0000000180108d00     main.obj
 0002:00021d10       ??_C@_07MCAEODGB@Default@  0000000180108d10     main.obj
 0002:00021d18       ??_C@_06IFGIOHDE@Custom@   0000000180108d18     main.obj
 0002:00021d20       ??_C@_07EJMJIBAJ@Swaston@  0000000180108d20     main.obj
 0002:00021d28       ??_C@_06MLENFHBD@Circle@   0000000180108d28     main.obj
 0002:00021d30       ??_C@_07KKNODJFG@Colored@  0000000180108d30     main.obj
 0002:00021d38       ??_C@_07BLDMFIGG@Rainbow@  0000000180108d38     main.obj
 0002:00021d40       ??_C@_08NMAPBDDP@Triangle@ 0000000180108d40     main.obj
 0002:00021d50       ??_C@_08PDPDLAP@Outline?5@ 0000000180108d50     main.obj
 0002:00021d5c       ??_C@_06IAMELMP@Filled@    0000000180108d5c     main.obj
 0002:00021d64       ??_C@_04KPCPLBPL@Left@     0000000180108d64     main.obj
 0002:00021d6c       ??_C@_06DDHCBBGN@Bottom@   0000000180108d6c     main.obj
 0002:00021d74       ??_C@_05DADPALEM@Right@    0000000180108d74     main.obj
 0002:00021d7c       ??_C@_05NBJNJCJO@Glass@    0000000180108d7c     main.obj
 0002:00021d84       ??_C@_06COOEADCI@Forest@   0000000180108d84     main.obj
 0002:00021d8c       ??_C@_05MICJANKE@Metal@    0000000180108d8c     main.obj
 0002:00021d94       ??_C@_04DBFELKCB@Clap@     0000000180108d94     main.obj
 0002:00021da0       ??_C@_08DBGKMJGN@Friendly@ 0000000180108da0     main.obj
 0002:00021db0       ??_C@_0L@FLFNLLEG@Thumbsdown@ 0000000180108db0     main.obj
 0002:00021dc0       ??_C@_08NIABFLDP@Thumbsup@ 0000000180108dc0     main.obj
 0002:00021dcc       ??_C@_02PNHBFOHM@Ok@       0000000180108dcc     main.obj
 0002:00021dd0       ??_C@_05BGOFFEGG@Point@    0000000180108dd0     main.obj
 0002:00021dd8       ??_C@_05NENFCHEF@Shrug@    0000000180108dd8     main.obj
 0002:00021de0       ??_C@_07FPEFHBMO@Victory@  0000000180108de0     main.obj
 0002:00021de8       ??_C@_04HJEAGKGI@Wawe@     0000000180108de8     main.obj
 0002:00021df0       ??_C@_0N@HPFBIKCM@Water?$CIUnreg?$CJ@ 0000000180108df0     main.obj
 0002:00021e00       ??_C@_04IGCMGFBG@Sand@     0000000180108e00     main.obj
 0002:00021e08       ??_C@_05OENLLHN@Grass@     0000000180108e08     main.obj
 0002:00021e10       ??_C@_08GGFDMHDI@Concrete@ 0000000180108e10     main.obj
 0002:00021e1c       ??_C@_05GKKHKKE@Cloth@     0000000180108e1c     main.obj
 0002:00021e28       ??_C@_07MLMHLOOL@Generic@  0000000180108e28     main.obj
 0002:00021e30       ??_C@_04KHKKIIL@Null@      0000000180108e30     main.obj
 0002:00021e38       ??_C@_0L@OOBOHEP@Neverloose@ 0000000180108e38     main.obj
 0002:00021e48       ??_C@_09PAMLIGBG@Gamesense@ 0000000180108e48     main.obj
 0002:00021e58       ??_C@_09KLDNEILM@Headshoot@ 0000000180108e58     main.obj
 0002:00021e68       ??_C@_08MEFJDJMI@Fatality@ 0000000180108e68     main.obj
 0002:00021e74       ??_C@_05NKNJBAOL@Blick@    0000000180108e74     main.obj
 0002:00021e80       ??_C@_09BCPPKIPA@Minecraft@ 0000000180108e80     main.obj
 0002:00021e90       ??_C@_08DCLKBOBK@Input?4gg@ 0000000180108e90     main.obj
 0002:00021e9c       ??_C@_05BNNNCBOP@Utils@    0000000180108e9c     main.obj
 0002:00021ea4       ??_C@_06OPPMLBNM@Menage@   0000000180108ea4     main.obj
 0002:00021eb0       ??_C@_07ECEMPDJM@General@  0000000180108eb0     main.obj
 0002:00021eb8       ??_C@_06FHEBLMEF@Aimbot@   0000000180108eb8     main.obj
 0002:00021ec0       ??_C@_0L@EEIMILJF@Silent?5Aim@ 0000000180108ec0     main.obj
 0002:00021ed0       ??_C@_0N@DDNDAPNG@Closest?5Bone@ 0000000180108ed0     main.obj
 0002:00021ee0       ??_C@_09MNLEEKLC@Autoshoot@ 0000000180108ee0     main.obj
 0002:00021ef0       ??_C@_0N@BNGPJGGF@Desync?5Shoot@ 0000000180108ef0     main.obj
 0002:00021f00       ??_C@_07DGFIPDJK@test?5tp@ 0000000180108f00     main.obj
 0002:00021f08       ??_C@_0BF@PGIMMOPA@Desync?5Power?5?9?5Shoot@ 0000000180108f08     main.obj
 0002:00021f20       ??_C@_04GFJLOHHD@?$CF?43f@ 0000000180108f20     main.obj
 0002:00021f28       ??_C@_0M@FLNHGPEN@Power?5Delay@ 0000000180108f28     main.obj
 0002:00021f38       ??_C@_0BD@KEDLMMPC@Desync?5Auto?5?9?5Stop@ 0000000180108f38     main.obj
 0002:00021f50       ??_C@_0O@OLNGIOPC@Desync?5Radius@ 0000000180108f50     main.obj
 0002:00021f60       ??_C@_0BB@GAFJKBJP@Circle?5Visualize@ 0000000180108f60     main.obj
 0002:00021f78       ??_C@_0P@DJAOICHP@Rotor?5Hit?5Heli@ 0000000180108f78     main.obj
 0002:00021f88       ??_C@_0N@CKEELMEN@Silent?5Melee@ 0000000180108f88     main.obj
 0002:00021f98       ??_C@_07EHPKPKNO@Filters@  0000000180108f98     main.obj
 0002:00021fa0       ??_C@_08KELCPBH@Draw?5Fov@ 0000000180108fa0     main.obj
 0002:00021fb0       ??_C@_0M@PBOMDHJF@Fov?5?9?5Color@ 0000000180108fb0     main.obj
 0002:00021fc0       ??_C@_0BF@OBOIKPGM@Fov?5Targeted?5?9?5Color@ 0000000180108fc0     main.obj
 0002:00021fd8       ??_C@_09OMEMMHGF@Fov?5Value@ 0000000180108fd8     main.obj
 0002:00021fe8       ??_C@_0M@HEIBGHKC@Ignore?5Team@ 0000000180108fe8     main.obj
 0002:00021ff8       ??_C@_0N@IGPHKOHD@Ignore?5Sleep@ 0000000180108ff8     main.obj
 0002:00022008       ??_C@_0BD@KOKILBNM@Hit?5Effect?5?9?5Spawn@ 0000000180109008     main.obj
 0002:00022020       ??_C@_0M@IILGDCCO@Effect?5Type@ 0000000180109020     main.obj
 0002:00022030       ??_C@_0BD@EABCMKO@Hit?5Random?5?9?5Spawn@ 0000000180109030     main.obj
 0002:00022048       ??_C@_09DJEANEAC@No?5Recoil@ 0000000180109048     main.obj
 0002:00022058       ??_C@_0N@DNIKPMPJ@Recoil?5Value@ 0000000180109058     main.obj
 0002:00022068       ??_C@_09DINLMJHI@No?5Spread@ 0000000180109068     main.obj
 0002:00022078       ??_C@_07OCCLIHOF@No?5Sway@ 0000000180109078     main.obj
 0002:00022080       ??_C@_08PNFBIFO@No?5Lower@ 0000000180109080     main.obj
 0002:00022090       ??_C@_0N@JKIHBAJI@No?5Animation@ 0000000180109090     main.obj
 0002:000220a0       ??_C@_09HPGOGDJC@Automatic@ 00000001801090a0     main.obj
 0002:000220b0       ??_C@_0M@HLOIDNBB@Weapon?5Spam@ 00000001801090b0     main.obj
 0002:000220c0       ??_C@_0P@PJAKELD@Can?5Hold?5Items@ 00000001801090c0     main.obj
 0002:000220d0       ??_C@_0L@BDLPGGIB@Rapid?5Fire@ 00000001801090d0     main.obj
 0002:000220e0       ??_C@_0M@BNGAFJLE@Rapid?5Value@ 00000001801090e0     main.obj
 0002:000220f0       ??_C@_0M@FJHKFICH@Bullet?5Size@ 00000001801090f0     main.obj
 0002:00022100       ??_C@_0L@CPCIMMHB@Size?5Value@ 0000000180109100     main.obj
 0002:00022110       ??_C@_09DCKPFMLP@Fast?5Eoka@ 0000000180109110     main.obj
 0002:00022120       ??_C@_0BC@KEJLIHLG@Fast?5Compound?5Bow@ 0000000180109120     main.obj
 0002:00022138       ??_C@_0O@PAPEHDKN@Silent?5Reload@ 0000000180109138     main.obj
 0002:00022148       ??_C@_0M@MNFIJGJF@Jump?5Attack@ 0000000180109148     main.obj
 0002:00022158       ??_C@_0BC@GDHDFHMD@Bullet?5?9?5Teleport@ 0000000180109158     main.obj
 0002:00022170       ??_C@_0BC@OEFGJOME@Teleport?5?9?5Radius@ 0000000180109170     main.obj
 0002:00022188       ??_C@_0BF@EOLNFFP@Bullet?5?9?5Behind?5Wall@ 0000000180109188     main.obj
 0002:000221a0       ??_C@_0N@HPFDMLGP@LOS?5?9?5Pierce@ 00000001801091a0     main.obj
 0002:000221b0       ??_C@_0M@CDGPDDIA@Fast?5Bullet@ 00000001801091b0     main.obj
 0002:000221c0       ??_C@_0M@FPDMGOEM@Instant?5Hit@ 00000001801091c0     main.obj
 0002:000221cc       ??_C@_04FABLJDN@Name@      00000001801091cc     main.obj
 0002:000221d4       ??_C@_03ELMLMPLG@Box@      00000001801091d4     main.obj
 0002:000221d8       ??_C@_08HEGKIDKO@Skeleton@ 00000001801091d8     main.obj
 0002:000221e8       ??_C@_08DFKPLDPN@Distance@ 00000001801091e8     main.obj
 0002:000221f8       ??_C@_0L@PLBDIKHO@Health?5bar@ 00000001801091f8     main.obj
 0002:00022208       ??_C@_09CFNCAEGE@Bar?5Style@ 0000000180109208     main.obj
 0002:00022218       ??_C@_0M@DCKHDEIK@Weapon?5Icon@ 0000000180109218     main.obj
 0002:00022228       ??_C@_0N@JDCGCODO@Target?5Lines@ 0000000180109228     main.obj
 0002:00022238       ??_C@_0O@MDDKCJLB@User?5Belt?5Bar@ 0000000180109238     main.obj
 0002:00022248       ??_C@_0O@JCODKMFC@User?5Wear?5Bar@ 0000000180109248     main.obj
 0002:00022258       ??_C@_0O@FBKPEEAO@OFF?5Indicator@ 0000000180109258     main.obj
 0002:00022268       ??_C@_09JLJIILGC@OOF?5Style@ 0000000180109268     main.obj
 0002:00022278       ??_C@_0O@KGLINKJB@Color?1Filters@ 0000000180109278     main.obj
 0002:00022288       ??_C@_0P@CLMHFKHL@Player?5?9?5Color@ 0000000180109288     main.obj
 0002:00022298       ??_C@_0BA@JKDPMGDO@Tracers?5?9?5Color@ 0000000180109298     main.obj
 0002:000222a8       ??_C@_0N@KBIIHMKM@OOF?5?9?5?5Color@ 00000001801092a8     main.obj
 0002:000222b8       ??_C@_0BC@LDIGBFIN@ESP?5?9?5World?5Color@ 00000001801092b8     main.obj
 0002:000222d0       ??_C@_0BA@BKHFLBGN@Ignore?5Sleepers@ 00000001801092d0     main.obj
 0002:000222e0       ??_C@_0O@PCMKAPNI@Chams?1Filters@ 00000001801092e0     main.obj
 0002:000222f0       ??_C@_0L@COGCLCHC@Hand?5Chams@ 00000001801092f0     main.obj
 0002:00022300       ??_C@_09PAOLOLNM@Hand?5Type@ 0000000180109300     main.obj
 0002:00022310       ??_C@_0M@MLGKMOEK@Render?5Mode@ 0000000180109310     main.obj
 0002:00022320       ??_C@_0N@JPGKIFNL@Player?5Chams@ 0000000180109320     main.obj
 0002:00022330       ??_C@_0M@PDDFGGOH@Player?5Type@ 0000000180109330     main.obj
 0002:00022340       ??_C@_0O@IFIJFLCO@Visible?5Color@ 0000000180109340     main.obj
 0002:00022350       ??_C@_0BA@OEMBMMAO@InVisible?5Color@ 0000000180109350     main.obj
 0002:00022360       ??_C@_0L@OJDNABFO@Frame?5RGB?$DP@ 0000000180109360     main.obj
 0002:00022370       ??_C@_0M@IEFJBJMA@Frame?5Color@ 0000000180109370     main.obj
 0002:00022380       ??_C@_0O@HKOFLOID@World?5Visuals@ 0000000180109380     main.obj
 0002:00022390       ??_C@_0BE@EDJJBAEH@Bullet?5Line?5Colored@ 0000000180109390     main.obj
 0002:000223a8       ??_C@_0BG@IAHHBNNG@Movement?5Line?5Colored@ 00000001801093a8     main.obj
 0002:000223c0       ??_C@_0BE@PCHLHBHH@Bullet?5Line?5Rainbow@ 00000001801093c0     main.obj
 0002:000223d8       ??_C@_0BG@DBJFHMOG@Movement?5Line?5Rainbow@ 00000001801093d8     main.obj
 0002:000223f0       ??_C@_0P@FGALGOBG@Raycast?5Sphere@ 00000001801093f0     main.obj
 0002:00022400       ??_C@_0BA@OFEKGLNJ@Colored?5Ambient@ 0000000180109400     main.obj
 0002:00022410       ??_C@_0M@EOGCEFDA@Colored?5Sky@ 0000000180109410     main.obj
 0002:00022420       ??_C@_0BC@KPBPEJMO@Custom?5Brightness@ 0000000180109420     main.obj
 0002:00022434       ??_C@_04GHNNFJCK@?$CF?40f@ 0000000180109434     main.obj
 0002:00022440       ??_C@_0BC@LKLAJFFK@Brightness?5Amount@ 0000000180109440     main.obj
 0002:00022458       ??_C@_0BA@PCNCNGCN@Custom?5Rayleigh@ 0000000180109458     main.obj
 0002:00022468       ??_C@_0BA@NJBJINOD@Rayleigh?5Amount@ 0000000180109468     main.obj
 0002:00022478       ??_C@_0L@BECBPPHK@Custom?5Mie@ 0000000180109478     main.obj
 0002:00022488       ??_C@_0L@FDFLBLFP@Mie?5Amount@ 0000000180109488     main.obj
 0002:00022498       ??_C@_0N@IFHLFLFE@Custom?5Stars@ 0000000180109498     main.obj
 0002:000224a8       ??_C@_0M@MLKNICHE@Custom?5Time@ 00000001801094a8     main.obj
 0002:000224b8       ??_C@_0L@MOLCPGEK@Time?5Value@ 00000001801094b8     main.obj
 0002:000224c8       ??_C@_0BB@DFOHEGHP@Crates?5and?5Tools@ 00000001801094c8     main.obj
 0002:000224e0       ??_C@_0O@OHIKJCAF@ChinookCrates@ 00000001801094e0     main.obj
 0002:000224f0       ??_C@_08EHJNNNFE@Airdrops@ 00000001801094f0     main.obj
 0002:00022500       ??_C@_0M@GIKDPKFF@Heli?5Crates@ 0000000180109500     main.obj
 0002:00022510       ??_C@_0P@EIBPEAEF@Bradley?5Crates@ 0000000180109510     main.obj
 0002:00022520       ??_C@_0BA@PHKGKENP@Military?5Crates@ 0000000180109520     main.obj
 0002:00022530       ??_C@_0N@HPMABIEI@Elite?5Crates@ 0000000180109530     main.obj
 0002:00022540       ??_C@_0BD@LECBGPKF@Crate?5ESP?5Distance@ 0000000180109540     main.obj
 0002:00022558       ??_C@_0P@LNEJJJLC@Show?5Distance?5@ 0000000180109558     main.obj
 0002:00022568       ??_C@_0P@NMANNDGK@Tool?5Cupboards@ 0000000180109568     main.obj
 0002:00022578       ??_C@_0O@BCGDDBNF@Sleeping?5Bags@ 0000000180109578     main.obj
 0002:00022588       ??_C@_04FMNKENDD@Beds@     0000000180109588     main.obj
 0002:00022590       ??_C@_05PDEKLOCK@Boxes@    0000000180109590     main.obj
 0002:00022598       ??_C@_0BC@GJHABPFL@Base?5ESP?5Distance@ 0000000180109598     main.obj
 0002:000225b0       ??_C@_0BD@BNOINMGL@Show?5Distance?5?5?5?5?5@ 00000001801095b0     main.obj
 0002:000225c8       ??_C@_0BF@DJHHEICN@Vehicles?5and?5Animals@ 00000001801095c8     main.obj
 0002:000225e0       ??_C@_0M@NLAEIDHG@Patrol?5Heli@ 00000001801095e0     main.obj
 0002:000225f0       ??_C@_0M@EFOEGFKP@Minicopters@ 00000001801095f0     main.obj
 0002:00022600       ??_C@_0M@FMINMLAG@Scrap?5Helis@ 0000000180109600     main.obj
 0002:0002260c       ??_C@_05MDLPGPHI@Boats@    000000018010960c     main.obj
 0002:00022614       ??_C@_06GIDMIAMA@RHIB?8s@  0000000180109614     main.obj
 0002:00022620       ??_C@_0BF@HMJEOKMA@Vehicle?5ESP?5Distance@ 0000000180109620     main.obj
 0002:00022638       ??_C@_0BA@LAFGLPJL@Show?5Distance?5?5@ 0000000180109638     main.obj
 0002:00022648       ??_C@_05INICALGL@Bears@    0000000180109648     main.obj
 0002:00022650       ??_C@_04OGKIIDA@Pigs@      0000000180109650     main.obj
 0002:00022658       ??_C@_05HNGMFDJD@Wolfs@    0000000180109658     main.obj
 0002:00022660       ??_C@_06FMEDDJDD@Horses@   0000000180109660     main.obj
 0002:00022668       ??_C@_08MJOIJGCN@Chickens@ 0000000180109668     main.obj
 0002:00022678       ??_C@_0BE@IMKMPDPM@Animal?5ESP?5Distance@ 0000000180109678     main.obj
 0002:00022690       ??_C@_0O@MPAFIODI@Show?5Distance@ 0000000180109690     main.obj
 0002:000226a0       ??_C@_0BA@JLJOHNJI@Ores?5and?5World?5@ 00000001801096a0     main.obj
 0002:000226b0       ??_C@_05PBPDPMJH@Stone@    00000001801096b0     main.obj
 0002:000226b8       ??_C@_06CGPNMMIF@Sulfur@   00000001801096b8     main.obj
 0002:000226c0       ??_C@_0BB@LJDCGBLF@Ore?5ESP?5Distance@ 00000001801096c0     main.obj
 0002:000226d8       ??_C@_0BC@BEKMHEOK@Show?5Collectables@ 00000001801096d8     main.obj
 0002:000226ec       ??_C@_04DCJGDNNO@Hemp@     00000001801096ec     main.obj
 0002:000226f8       ??_C@_07MMINLJBN@Corpses@  00000001801096f8     main.obj
 0002:00022700       ??_C@_0M@LAPCDAPJ@World?5Items@ 0000000180109700     main.obj
 0002:00022710       ??_C@_07JABFJKHJ@Stashes@  0000000180109710     main.obj
 0002:00022718       ??_C@_0BD@PLAHHCHO@World?5ESP?5Distance@ 0000000180109718     main.obj
 0002:0002272c       ??_C@_06DGOGCPHA@Turets@   000000018010972c     main.obj
 0002:00022738       ??_C@_0N@DBEJALMF@Auto?5Turrets@ 0000000180109738     main.obj
 0002:00022748       ??_C@_0O@GPCIBPEI@Flame?5Turrets@ 0000000180109748     main.obj
 0002:00022758       ??_C@_0O@HBEEIKIO@Shotgun?5Traps@ 0000000180109758     main.obj
 0002:00022768       ??_C@_09EKPBCIHG@SAM?5Sites@ 0000000180109768     main.obj
 0002:00022778       ??_C@_09NIMMJFEJ@Landmines@ 0000000180109778     main.obj
 0002:00022788       ??_C@_09DHKAMLKD@Beartraps@ 0000000180109788     main.obj
 0002:00022798       ??_C@_0BC@BLAGAHAG@Trap?5ESP?5Distance@ 0000000180109798     main.obj
 0002:000227ac       ??_C@_06NPAAKFED@Player@   00000001801097ac     main.obj
 0002:000227b4       ??_C@_06CGNGJFJO@Modify@   00000001801097b4     main.obj
 0002:000227c0       ??_C@_08OKLOKHPE@Fov?5View@ 00000001801097c0     main.obj
 0002:000227d0       ??_C@_0L@GMMJJODI@Zoom?5Value@ 00000001801097d0     main.obj
 0002:000227e0       ??_C@_0N@CMMLGDAK@Aspect?5Ratio@ 00000001801097e0     main.obj
 0002:000227f0       ??_C@_0M@EJOBOFJI@Ratio?5Value@ 00000001801097f0     main.obj
 0002:00022800       ??_C@_0N@HCLOKHCD@Emotion?5Spam@ 0000000180109800     main.obj
 0002:00022810       ??_C@_07BKOKEIAH@Emotion@  0000000180109810     main.obj
 0002:00022818       ??_C@_08DCBICCNK@Auto?5Med@ 0000000180109818     main.obj
 0002:00022828       ??_C@_0O@JBHCAEGJ@Infinity?5Jump@ 0000000180109828     main.obj
 0002:00022838       ??_C@_09KOKEFPNH@Spiderman@ 0000000180109838     main.obj
 0002:00022848       ??_C@_0P@GEKLKMIC@No?5Fall?5Damage@ 0000000180109848     main.obj
 0002:00022858       ??_C@_0BD@KLGKBDEL@No?5Sprint?5Colision@ 0000000180109858     main.obj
 0002:00022870       ??_C@_09ELJEKNDN@SpeedHack@ 0000000180109870     main.obj
 0002:00022880       ??_C@_0M@MOAOLHGI@Speed?5Value@ 0000000180109880     main.obj
 0002:00022890       ??_C@_09IDOMDDG@Hit?5Sound@ 0000000180109890     main.obj
 0002:000228a0       ??_C@_0L@MFBHICLH@Sound?5Type@ 00000001801098a0     main.obj
 0002:000228b0       ??_C@_09PADHAAG@Fast?5Loot@ 00000001801098b0     main.obj
 0002:000228c0       ??_C@_0N@OGPAAFD@Auto?5Pick?5Up@ 00000001801098c0     main.obj
 0002:000228d0       ??_C@_0L@CAPFHKPO@Admin?5Flag@ 00000001801098d0     main.obj
 0002:000228e0       ??_C@_0N@BBHHBIMG@Silent?5Stash@ 00000001801098e0     main.obj
 0002:000228f0       ??_C@_09IKABOKCP@Cam?5Debug@ 00000001801098f0     main.obj
 0002:00022900       ??_C@_09PIAIFBON@Rendering@ 0000000180109900     main.obj
 0002:00022910       ??_C@_0BC@BEJJDKDF@Flyhack?5Indicator@ 0000000180109910     main.obj
 0002:00022928       ??_C@_0BB@GEGAGMLO@Reload?5Indicator@ 0000000180109928     main.obj
 0002:00022940       ??_C@_0BB@JHHFFHJ@Desync?5Indicator@ 0000000180109940     main.obj
 0002:00022958       ??_C@_0BA@BAHELFHM@Radar?5On?5Player@ 0000000180109958     main.obj
 0002:00022968       ??_C@_0M@BMBDBPBB@Radar?5Range@ 0000000180109968     main.obj
 0002:00022978       ??_C@_0L@JDGLIOPH@Radar?5Size@ 0000000180109978     main.obj
 0002:00022988       ??_C@_0BA@MKDBJOFE@Damage?5Hit?5Logs@ 0000000180109988     main.obj
 0002:00022998       ??_C@_09NAHMPJI@Bind?5List@ 0000000180109998     main.obj
 0002:000229a8       ??_C@_09JOIHIAIG@Crosshair@ 00000001801099a8     main.obj
 0002:000229b8       ??_C@_0BA@PIIJBLFF@Crosshair?5Style@ 00000001801099b8     main.obj
 0002:000229c8       ??_C@_0BA@IMGNCCDP@Crosshair?5Color@ 00000001801099c8     main.obj
 0002:000229d8       ??_C@_0N@IPLBKLLG@Color?5Line?51@ 00000001801099d8     main.obj
 0002:000229e8       ??_C@_0N@KEJMPIHF@Color?5Line?52@ 00000001801099e8     main.obj
 0002:000229f8       ??_C@_0M@MKEOLDNG@Crosshair?5X@ 00000001801099f8     main.obj
 0002:00022a08       ??_C@_0M@NDFFICJH@Crosshair?5Y@ 0000000180109a08     main.obj
 0002:00022a18       ??_C@_0O@KNOGKBDJ@Swaston?5Color@ 0000000180109a18     main.obj
 0002:00022a28       ??_C@_0P@KLICCEPO@Swaston?5Height@ 0000000180109a28     main.obj
 0002:00022a38       ??_C@_0O@CAIHNMHK@Swaston?5Speed@ 0000000180109a38     main.obj
 0002:00022a48       ??_C@_0N@IJJEOELP@Circle?5Color@ 0000000180109a48     main.obj
 0002:00022a58       ??_C@_0M@KAHMFJHE@Config?5List@ 0000000180109a58     main.obj
 0002:00022a68       ??_C@_08PHHGOFOC@List?5Box@ 0000000180109a68     main.obj
 0002:00022a78       ??_C@_07KHIHFBFN@Options@  0000000180109a78     main.obj
 0002:00022a80       ??_C@_0BF@CEICDGEE@Enter?5name?5ur?5config@ 0000000180109a80     main.obj
 0002:00022a98       ??_C@_09NMGLGMNG@TextField@ 0000000180109a98     main.obj
 0002:00022aa8       ??_C@_0M@GNAHMCPI@Load?5Config@ 0000000180109aa8     main.obj
 0002:00022ab8       ??_C@_0BK@EBDPBLPA@Config?5Successful?5Loaded?$CB@ 0000000180109ab8     main.obj
 0002:00022ad8       ??_C@_0M@HAMKBNN@Open?5Folder@ 0000000180109ad8     main.obj
 0002:00022ae8       ??_C@_0P@PNDALLMJ@start?5Input?4gg@ 0000000180109ae8     main.obj
 0002:00022af8       ??_C@_0M@JDPEBFKB@Save?5Config@ 0000000180109af8     main.obj
 0002:00022b08       ??_C@_0BJ@DKCEPACC@Config?5Successful?5Saved?$CB@ 0000000180109b08     main.obj
 0002:00022b28       ??_C@_0O@CBALPCDF@Create?5Config@ 0000000180109b28     main.obj
 0002:00022b38       ??_C@_0BL@DOILBABD@Config?5Successful?5Created?$CB@ 0000000180109b38     main.obj
 0002:00022b58       ??_C@_0O@EDENACGI@Remove?5Config@ 0000000180109b58     main.obj
 0002:00022b68       ??_C@_0BK@MPACAEIL@Config?5Successful?5Remove?$CB@ 0000000180109b68     main.obj
 0002:00022b88       ??_C@_0N@KBFLIFKL@Unload?5Cheat@ 0000000180109b88     main.obj
 0002:00022b98       ??_C@_08GFIAEILO@UI?5Color@ 0000000180109b98     main.obj
 0002:00022ba8       ??_C@_0BI@BFBGKEPL@C?3?2System?5Volume?5Notify@ 0000000180109ba8     main.obj
 0002:00022bc0       ??_C@_1BA@KPPLMDID@?$AAF?$AAa?$AAi?$AAl?$AAu?$AAr?$AAe@ 0000000180109bc0     main.obj
 0002:00022bd0       ??_C@_1FK@LADNDOCE@?$AAF?$AAa?$AAi?$AAl?$AAe?$AAd?$AA?5?$AAt?$AAo?$AA?5?$AAc?$AAr?$AAe?$AAa?$AAt@ 0000000180109bd0     main.obj
 0002:00022c30       ??_C@_0FB@NJJHAHAJ@https?3?1?1drive?4google?4com?1uc?$DPexp@ 0000000180109c30     main.obj
 0002:00022c90       ??_C@_0FB@LHIEFEOB@https?3?1?1drive?4google?4com?1uc?$DPexp@ 0000000180109c90     main.obj
 0002:00022ce8       ??_C@_0BC@KBDMBKEH@deque?$DMT?$DO?5too?5long@ 0000000180109ce8     main.obj
 0002:00022d08       ??_7CWin32Heap@ATL@@6B@    0000000180109d08     main.obj
 0002:00022d30       _GUID_db6f6ddb_ac77_4e88_8253_819df9bbf140 0000000180109d30     main.obj
 0002:00022d48       ??_7filesystem_error@filesystem@std@@6B@ 0000000180109d48     main.obj
 0002:00022d60       ??_7_Generic_error_category@std@@6B@ 0000000180109d60     main.obj
 0002:00022d98       _GUID_6f15aaf2_d208_4e89_9ab4_489535d34f9c 0000000180109d98     main.obj
 0002:00022da8       ?_Unknown_error@?4??message@_System_error_category@std@@UEBA?AV?$basic_string@DU?$char_traits@D@std@@V?$allocator@D@2@@3@H@Z@4QBDB 0000000180109da8     main.obj
 0002:0005c110       ?team_color@colors@VarSs@@3PAMA 0000000180143110     main.obj
 0002:001eb260       ?keys@@3PAPEBDA            00000001802d2260     imgui_widgets.obj
 0002:001eb798       ?color@name_@players@VarSs@@3UImColor@@A 00000001802d2798     main.obj
 0002:001eb7a8       ?color@weapon_@players@VarSs@@3UImColor@@A 00000001802d27a8     main.obj
 0002:001eb7b8       ?color@distance_@players@VarSs@@3UImColor@@A 00000001802d27b8     main.obj
 0002:001eb7c8       ?pos@desync@@3VVector2@@A  00000001802d27c8     main.obj
 0002:001eb7d0       ?pos@fly@@3VVector2@@A     00000001802d27d0     main.obj
 0002:001eb7d8       ?pos@flist@@3VVector2@@A   00000001802d27d8     main.obj
 0002:001eb7e0       ?pos@main@@3VVector2@@A    00000001802d27e0     main.obj
 0002:001eb7f0       ??_7?$_Ref_count_obj2@U_Recursive_dir_enum_impl@filesystem@std@@@std@@6B@ 00000001802d27f0     main.obj
 0002:001eb818       ??_7CAtlStringMgr@ATL@@6B@ 00000001802d2818     main.obj
 0002:001eb858       ??_7runtime_error@std@@6B@ 00000001802d2858     main.obj
 0002:001eb870       ??_7_System_error@std@@6B@ 00000001802d2870     main.obj
 0002:001eb888       ??_7_System_error_category@std@@6B@ 00000001802d2888     main.obj
 0002:001eb8c0       ??_7system_error@std@@6B@  00000001802d28c0     main.obj
 0002:001eb950       ??_C@_0P@HEMCFMMD@?$CKMissing?5Text?$CK@ 00000001802d2950     imgui.obj
 0002:001eb960       ??_C@_03IEAKBACE@Tab@      00000001802d2960     imgui.obj
 0002:001eb968       ??_C@_07NBCGADJA@Unknown@  00000001802d2968     imgui.obj
 0002:001eb970       ??_C@_0BN@CNPDCOK@Size?5column?5to?5fit?$CD?$CD?$CDSizeOne@ 00000001802d2970     imgui.obj
 0002:001eb990       ??_C@_0CC@MJIBPDCL@Size?5all?5columns?5to?5fit?$CD?$CD?$CDSizeA@ 00000001802d2990     imgui.obj
 0002:001eb9b8       ??_C@_0CG@CFICKNDA@Size?5all?5columns?5to?5default?$CD?$CD?$CDS@ 00000001802d29b8     imgui.obj
 0002:001eb9e0       ??_C@_0BJ@BBKAOKNK@Reset?5order?$CD?$CD?$CDResetOrder@ 00000001802d29e0     imgui.obj
 0002:001eba00       ??_C@_0BA@KDPNEDEH@?$CIMain?5menu?5bar?$CJ@ 00000001802d2a00     imgui.obj
 0002:001eba10       ??_C@_07NPLNEKJH@?$CIPopup?$CJ@ 00000001802d2a10     imgui.obj
 0002:001eba18       ??_C@_0L@JOJOIPFK@?$CIUntitled?$CJ@ 00000001802d2a18     imgui.obj
 0002:001eba24       ??_C@_06BKKJGDHO@Window@   00000001802d2a24     imgui.obj
 0002:001eba2c       ??_C@_05EJCOBEBF@?$CDMOVE@ 00000001802d2a2c     imgui.obj
 0002:001eba38       ??_C@_0CD@PNHNJJBD@SetActiveID?$CI?$CJ?5cancel?5MovingWind@ 00000001802d2a38     imgui.obj
 0002:001eba60       ??_C@_0EE@BGNDHHFI@SetActiveID?$CI?$CJ?5old?30x?$CF08X?5?$CIwindo@ 00000001802d2a60     imgui.obj
 0002:001ebaa8       ??_C@_0N@MFFOHPLI@?$CD?$CDBackground@ 00000001802d2aa8     imgui.obj
 0002:001ebab8       ??_C@_0N@MFHPHIIJ@?$CD?$CDForeground@ 00000001802d2ab8     imgui.obj
 0002:001ebad0       ??_C@_0EE@CAHEIKBO@NewFrame?$CI?$CJ?3?5ClearActiveID?$CI?$CJ?5bec@ 00000001802d2ad0     imgui.obj
 0002:001ebb20       ??_C@_0ED@PPLKHLIC@?$CIAuto?9disabled?5ImGuiDebugLogFla@ 00000001802d2b20     imgui.obj
 0002:001ebb68       ??_C@_0P@IMLDNMEK@Debug?$CD?$CDDefault@ 00000001802d2b68     imgui.obj
 0002:001ebb80       ??_C@_0EK@BBMFBIKJ@Calling?5io?4SetPlatformImeDataFn@ 00000001802d2b80     imgui.obj
 0002:001ebbcc       ??_C@_03KHICJKCI@?4?4?4@   00000001802d2bcc     imgui.obj
 0002:001ebbd0       ??_C@_0L@BDFLDJGI@?$CFs?1?$CFs_?$CF08X@ 00000001802d2bd0     imgui.obj
 0002:001ebbe0       ??_C@_07KBCBAKFA@?$CFs?1?$CF08X@ 00000001802d2be0     imgui.obj
 0002:001ebbe8       ??_C@_07HDHBJEOI@?$CDRESIZE@ 00000001802d2be8     imgui.obj
 0002:001ebbf0       ??_C@_09BJOGEADB@?$CDCOLLAPSE@ 00000001802d2bf0     imgui.obj
 0002:001ebc00       ??_C@_09CFHBIIBF@LeftArrow@ 00000001802d2c00     imgui.obj
 0002:001ebc10       ??_C@_0L@BPKGMHEK@RightArrow@ 00000001802d2c10     imgui.obj
 0002:001ebc20       ??_C@_07MOKGGMEC@UpArrow@  00000001802d2c20     imgui.obj
 0002:001ebc28       ??_C@_09NADHLAEK@DownArrow@ 00000001802d2c28     imgui.obj
 0002:001ebc34       ??_C@_06OAEMCMAI@PageUp@   00000001802d2c34     imgui.obj
 0002:001ebc40       ??_C@_08FDLMHKA@PageDown@  00000001802d2c40     imgui.obj
 0002:001ebc4c       ??_C@_04GKJODLKO@Home@     00000001802d2c4c     imgui.obj
 0002:001ebc54       ??_C@_03DBKJMAGF@End@      00000001802d2c54     imgui.obj
 0002:001ebc58       ??_C@_06CPFCODOD@Insert@   00000001802d2c58     imgui.obj
 0002:001ebc60       ??_C@_06JBKGCNBB@Delete@   00000001802d2c60     imgui.obj
 0002:001ebc68       ??_C@_09LPBCIPOJ@Backspace@ 00000001802d2c68     imgui.obj
 0002:001ebc74       ??_C@_05OMHELODH@Space@    00000001802d2c74     imgui.obj
 0002:001ebc7c       ??_C@_05IAOCCJNL@Enter@    00000001802d2c7c     imgui.obj
 0002:001ebc84       ??_C@_06OIGFGPHJ@Escape@   00000001802d2c84     imgui.obj
 0002:001ebc90       ??_C@_08KELNAOFC@LeftCtrl@ 00000001802d2c90     imgui.obj
 0002:001ebca0       ??_C@_09OCNLBMHE@LeftShift@ 00000001802d2ca0     imgui.obj
 0002:001ebcb0       ??_C@_07MGKIIPNA@LeftAlt@  00000001802d2cb0     imgui.obj
 0002:001ebcb8       ??_C@_09DKGEOIN@LeftSuper@ 00000001802d2cb8     imgui.obj
 0002:001ebcc8       ??_C@_09MGKDJPDD@RightCtrl@ 00000001802d2cc8     imgui.obj
 0002:001ebcd8       ??_C@_0L@NIAMFDCL@RightShift@ 00000001802d2cd8     imgui.obj
 0002:001ebce8       ??_C@_08FCEDBIM@RightAlt@  00000001802d2ce8     imgui.obj
 0002:001ebcf8       ??_C@_0L@DJHBABNC@RightSuper@ 00000001802d2cf8     imgui.obj
 0002:001ebd04       ??_C@_04IFEHPILC@Menu@     00000001802d2d04     imgui.obj
 0002:001ebd0c       ??_C@_01EKENIIDA@3@        00000001802d2d0c     imgui.obj
 0002:001ebd10       ??_C@_01FAMBOPH@4@         00000001802d2d10     imgui.obj
 0002:001ebd14       ??_C@_01BMBHCPLG@5@        00000001802d2d14     imgui.obj
 0002:001ebd18       ??_C@_01DHDKHMHF@6@        00000001802d2d18     imgui.obj
 0002:001ebd1c       ??_C@_01COCBENDE@7@        00000001802d2d1c     imgui.obj
 0002:001ebd20       ??_C@_01KJLJFBPL@8@        00000001802d2d20     imgui.obj
 0002:001ebd24       ??_C@_01LAKCGALK@9@        00000001802d2d24     imgui.obj
 0002:001ebd28       ??_C@_01FHEEJDEE@A@        00000001802d2d28     imgui.obj
 0002:001ebd2c       ??_C@_01HMGJMAIH@B@        00000001802d2d2c     imgui.obj
 0002:001ebd30       ??_C@_01GFHCPBMG@C@        00000001802d2d30     imgui.obj
 0002:001ebd34       ??_C@_01CKDDGHAB@D@        00000001802d2d34     imgui.obj
 0002:001ebd38       ??_C@_01DDCIFGEA@E@        00000001802d2d38     imgui.obj
 0002:001ebd3c       ??_C@_01BIAFAFID@F@        00000001802d2d3c     imgui.obj
 0002:001ebd40       ??_C@_01BBODEMC@G@         00000001802d2d40     imgui.obj
 0002:001ebd44       ??_C@_01IGIGCIAN@H@        00000001802d2d44     imgui.obj
 0002:001ebd48       ??_C@_01JPJNBJEM@I@        00000001802d2d48     imgui.obj
 0002:001ebd4c       ??_C@_01LELAEKIP@J@        00000001802d2d4c     imgui.obj
 0002:001ebd50       ??_C@_01KNKLHLMO@K@        00000001802d2d50     imgui.obj
 0002:001ebd54       ??_C@_01OCOKONAJ@L@        00000001802d2d54     imgui.obj
 0002:001ebd58       ??_C@_01PLPBNMEI@M@        00000001802d2d58     imgui.obj
 0002:001ebd5c       ??_C@_01NANMIPIL@N@        00000001802d2d5c     imgui.obj
 0002:001ebd60       ??_C@_01MJMHLOMK@O@        00000001802d2d60     imgui.obj
 0002:001ebd64       ??_C@_01EJNLAFE@P@         00000001802d2d64     imgui.obj
 0002:001ebd68       ??_C@_01BNIGIBBF@Q@        00000001802d2d68     imgui.obj
 0002:001ebd6c       ??_C@_01DGKLNCNG@R@        00000001802d2d6c     imgui.obj
 0002:001ebd70       ??_C@_01CPLAODJH@S@        00000001802d2d70     imgui.obj
 0002:001ebd74       ??_C@_01GAPBHFFA@T@        00000001802d2d74     imgui.obj
 0002:001ebd78       ??_C@_01HJOKEEBB@U@        00000001802d2d78     imgui.obj
 0002:001ebd7c       ??_C@_01FCMHBHNC@V@        00000001802d2d7c     imgui.obj
 0002:001ebd80       ??_C@_01ELNMCGJD@W@        00000001802d2d80     imgui.obj
 0002:001ebd84       ??_C@_01MMEEDKFM@X@        00000001802d2d84     imgui.obj
 0002:001ebd88       ??_C@_01NFFPALBN@Y@        00000001802d2d88     imgui.obj
 0002:001ebd8c       ??_C@_01POHCFINO@Z@        00000001802d2d8c     imgui.obj
 0002:001ebd90       ??_C@_02LCPENACN@F1@       00000001802d2d90     imgui.obj
 0002:001ebd94       ??_C@_02JJNJIDOO@F2@       00000001802d2d94     imgui.obj
 0002:001ebd98       ??_C@_02IAMCLCKP@F3@       00000001802d2d98     imgui.obj
 0002:001ebd9c       ??_C@_02MPIDCEGI@F4@       00000001802d2d9c     imgui.obj
 0002:001ebda0       ??_C@_02NGJIBFCJ@F5@       00000001802d2da0     imgui.obj
 0002:001ebda4       ??_C@_02PNLFEGOK@F6@       00000001802d2da4     imgui.obj
 0002:001ebda8       ??_C@_02OEKOHHKL@F7@       00000001802d2da8     imgui.obj
 0002:001ebdac       ??_C@_02GDDGGLGE@F8@       00000001802d2dac     imgui.obj
 0002:001ebdb0       ??_C@_02HKCNFKCF@F9@       00000001802d2db0     imgui.obj
 0002:001ebdb4       ??_C@_03JKCLJOFG@F10@      00000001802d2db4     imgui.obj
 0002:001ebdb8       ??_C@_03IDDAKPBH@F11@      00000001802d2db8     imgui.obj
 0002:001ebdbc       ??_C@_03KIBNPMNE@F12@      00000001802d2dbc     imgui.obj
 0002:001ebdc0       ??_C@_0L@KECMMICK@Apostrophe@ 00000001802d2dc0     imgui.obj
 0002:001ebdcc       ??_C@_05CJDGOLEJ@Comma@    00000001802d2dcc     imgui.obj
 0002:001ebdd4       ??_C@_05OEAIFCGM@Minus@    00000001802d2dd4     imgui.obj
 0002:001ebddc       ??_C@_06JOFJHOEH@Period@   00000001802d2ddc     imgui.obj
 0002:001ebde4       ??_C@_05OAOMBJIJ@Slash@    00000001802d2de4     imgui.obj
 0002:001ebdf0       ??_C@_09FBGFMNJC@Semicolon@ 00000001802d2df0     imgui.obj
 0002:001ebdfc       ??_C@_05JKGNJOO@Equal@     00000001802d2dfc     imgui.obj
 0002:001ebe08       ??_C@_0M@FGLAPLO@LeftBracket@ 00000001802d2e08     imgui.obj
 0002:001ebe18       ??_C@_09LDIKCIFH@Backslash@ 00000001802d2e18     imgui.obj
 0002:001ebe28       ??_C@_0N@NOCLCIPD@RightBracket@ 00000001802d2e28     imgui.obj
 0002:001ebe38       ??_C@_0M@PEGEKEFO@GraveAccent@ 00000001802d2e38     imgui.obj
 0002:001ebe48       ??_C@_08LBKIEOPK@CapsLock@ 00000001802d2e48     imgui.obj
 0002:001ebe58       ??_C@_0L@JJJEGPLJ@ScrollLock@ 00000001802d2e58     imgui.obj
 0002:001ebe68       ??_C@_07JOCOIGEJ@NumLock@  00000001802d2e68     imgui.obj
 0002:001ebe70       ??_C@_0M@CJIDBHOK@PrintScreen@ 00000001802d2e70     imgui.obj
 0002:001ebe7c       ??_C@_05PEDNBBBD@Pause@    00000001802d2e7c     imgui.obj
 0002:001ebe88       ??_C@_07PBFJOEMA@Keypad0@  00000001802d2e88     imgui.obj
 0002:001ebe90       ??_C@_07OIECNFIB@Keypad1@  00000001802d2e90     imgui.obj
 0002:001ebe98       ??_C@_07MDGPIGEC@Keypad2@  00000001802d2e98     imgui.obj
 0002:001ebea0       ??_C@_07NKHELHAD@Keypad3@  00000001802d2ea0     imgui.obj
 0002:001ebea8       ??_C@_07JFDFCBME@Keypad4@  00000001802d2ea8     imgui.obj
 0002:001ebeb0       ??_C@_07IMCOBAIF@Keypad5@  00000001802d2eb0     imgui.obj
 0002:001ebeb8       ??_C@_07KHADEDEG@Keypad6@  00000001802d2eb8     imgui.obj
 0002:001ebec0       ??_C@_07LOBIHCAH@Keypad7@  00000001802d2ec0     imgui.obj
 0002:001ebec8       ??_C@_07DJIAGOMI@Keypad8@  00000001802d2ec8     imgui.obj
 0002:001ebed0       ??_C@_07CAJLFPIJ@Keypad9@  00000001802d2ed0     imgui.obj
 0002:001ebed8       ??_C@_0O@GMHIBIOG@KeypadDecimal@ 00000001802d2ed8     imgui.obj
 0002:001ebee8       ??_C@_0N@IOPGAACF@KeypadDivide@ 00000001802d2ee8     imgui.obj
 0002:001ebef8       ??_C@_0P@DDMFINAM@KeypadMultiply@ 00000001802d2ef8     imgui.obj
 0002:001ebf08       ??_C@_0P@EGJPMAKL@KeypadSubtract@ 00000001802d2f08     imgui.obj
 0002:001ebf18       ??_C@_09PBFBAKNA@KeypadAdd@ 00000001802d2f18     imgui.obj
 0002:001ebf28       ??_C@_0M@LDMAMCMH@KeypadEnter@ 00000001802d2f28     imgui.obj
 0002:001ebf38       ??_C@_0M@DKIEDCPC@KeypadEqual@ 00000001802d2f38     imgui.obj
 0002:001ebf48       ??_C@_0N@KFODLNBI@GamepadStart@ 00000001802d2f48     imgui.obj
 0002:001ebf58       ??_C@_0M@BMKDKCOL@GamepadBack@ 00000001802d2f58     imgui.obj
 0002:001ebf68       ??_C@_0BA@LLLNHFDH@GamepadFaceLeft@ 00000001802d2f68     imgui.obj
 0002:001ebf78       ??_C@_0BB@KCPJBHBD@GamepadFaceRight@ 00000001802d2f78     imgui.obj
 0002:001ebf90       ??_C@_0O@NEIKDCMN@GamepadFaceUp@ 00000001802d2f90     imgui.obj
 0002:001ebfa0       ??_C@_0BA@EJLJONAO@GamepadFaceDown@ 00000001802d2fa0     imgui.obj
 0002:001ebfb0       ??_C@_0BA@HJJJKOII@GamepadDpadLeft@ 00000001802d2fb0     imgui.obj
 0002:001ebfc0       ??_C@_0BB@PJOFJNNF@GamepadDpadRight@ 00000001802d2fc0     imgui.obj
 0002:001ebfd8       ??_C@_0O@EJODMGNP@GamepadDpadUp@ 00000001802d2fd8     imgui.obj
 0002:001ebfe8       ??_C@_0BA@ILJNDGLB@GamepadDpadDown@ 00000001802d2fe8     imgui.obj
 0002:001ebff8       ??_C@_09BNICIIOB@GamepadL1@ 00000001802d2ff8     imgui.obj
 0002:001ec008       ??_C@_09LDKAGJL@GamepadR1@ 00000001802d3008     imgui.obj
 0002:001ec018       ??_C@_09DGKPNLCC@GamepadL2@ 00000001802d3018     imgui.obj
 0002:001ec028       ??_C@_09CABHFFFI@GamepadR2@ 00000001802d3028     imgui.obj
 0002:001ec038       ??_C@_09CPLEOKGD@GamepadL3@ 00000001802d3038     imgui.obj
 0002:001ec048       ??_C@_09DJAMGEBJ@GamepadR3@ 00000001802d3048     imgui.obj
 0002:001ec058       ??_C@_0BC@MGONIKHG@GamepadLStickLeft@ 00000001802d3058     imgui.obj
 0002:001ec070       ??_C@_0BD@KDFPDGOK@GamepadLStickRight@ 00000001802d3070     imgui.obj
 0002:001ec088       ??_C@_0BA@NNMPJILJ@GamepadLStickUp@ 00000001802d3088     imgui.obj
 0002:001ec098       ??_C@_0BC@DEOJBCEP@GamepadLStickDown@ 00000001802d3098     imgui.obj
 0002:001ec0b0       ??_C@_0BC@DKGNGFLL@GamepadRStickLeft@ 00000001802d30b0     imgui.obj
 0002:001ec0c8       ??_C@_0BD@EGHGAIAI@GamepadRStickRight@ 00000001802d30c8     imgui.obj
 0002:001ec0e0       ??_C@_0BA@LJMNABFK@GamepadRStickUp@ 00000001802d30e0     imgui.obj
 0002:001ec0f0       ??_C@_0BC@MIGJPNIC@GamepadRStickDown@ 00000001802d30f0     imgui.obj
 0002:001ec108       ??_C@_09DBACHFO@MouseLeft@ 00000001802d3108     imgui.obj
 0002:001ec118       ??_C@_0L@JGCPGDLN@MouseRight@ 00000001802d3118     imgui.obj
 0002:001ec128       ??_C@_0M@CDBJKEDH@MouseMiddle@ 00000001802d3128     imgui.obj
 0002:001ec138       ??_C@_07BICMLCEA@MouseX1@  00000001802d3138     imgui.obj
 0002:001ec140       ??_C@_07DDABOBID@MouseX2@  00000001802d3140     imgui.obj
 0002:001ec148       ??_C@_0M@MENPLCHJ@MouseWheelX@ 00000001802d3148     imgui.obj
 0002:001ec158       ??_C@_0M@NNMEIDDI@MouseWheelY@ 00000001802d3158     imgui.obj
 0002:001ec168       ??_C@_07KDONALCN@ModCtrl@  00000001802d3168     imgui.obj
 0002:001ec170       ??_C@_08CCGGCANM@ModShift@ 00000001802d3170     imgui.obj
 0002:001ec17c       ??_C@_06PLGJOJNE@ModAlt@   00000001802d317c     imgui.obj
 0002:001ec188       ??_C@_08MDBLHCCF@ModSuper@ 00000001802d3188     imgui.obj
 0002:001ec194       ??_C@_03HPADHAHE@N?1A@     00000001802d3194     imgui.obj
 0002:001ec198       ??_C@_04HIBGFPH@NULL@      00000001802d3198     imgui.obj
 0002:001ec1a0       ??_C@_0BL@JLLLOAEH@LockWheelingWindow?$CI?$CJ?5?$CC?$CFs?$CC?6@ 00000001802d31a0     imgui.obj
 0002:001ec1bc       ??_C@_05PEEFLODH@Mouse@    00000001802d31bc     imgui.obj
 0002:001ec1c8       ??_C@_0M@KICOAHAM@TouchScreen@ 00000001802d31c8     imgui.obj
 0002:001ec1d4       ??_C@_03KANEGAKD@Pen@      00000001802d31d4     imgui.obj
 0002:001ec1d8       ??_C@_0CD@LELIKCBN@?$CFs?3?5MousePos?5?$CI?9FLT_MAX?0?5?9FLT_MA@ 00000001802d31d8     imgui.obj
 0002:001ec200       ??_C@_0CA@HPBHFBPG@?$CFs?3?5MousePos?5?$CI?$CF?41f?0?5?$CF?41f?$CJ?5?$CI?$CFs?$CJ?6@ 00000001802d3200     imgui.obj
 0002:001ec220       ??_C@_04FNCLCJMC@Down@     00000001802d3220     imgui.obj
 0002:001ec228       ??_C@_02EFPGLDEA@Up@       00000001802d3228     imgui.obj
 0002:001ec230       ??_C@_0BM@EELHDMIN@?$CFs?3?5MouseButton?5?$CFd?5?$CFs?5?$CI?$CFs?$CJ?6@ 00000001802d3230     imgui.obj
 0002:001ec250       ??_C@_0CC@MOCMIADD@?$CFs?3?5MouseWheel?5?$CI?$CF?43f?0?5?$CF?43f?$CJ?5?$CI?$CFs@ 00000001802d3250     imgui.obj
 0002:001ec278       ??_C@_0BB@CMPIMPGB@?$CFs?3?5Key?5?$CC?$CFs?$CC?5?$CFs?6@ 00000001802d3278     imgui.obj
 0002:001ec290       ??_C@_0BH@OGDHKMOD@?$CFs?3?5Text?3?5?$CFc?5?$CIU?$CL?$CF08X?$CJ?6@ 00000001802d3290     imgui.obj
 0002:001ec2a8       ??_C@_0BD@DGNDOOOH@?$CFs?3?5AppFocused?5?$CFd?6@ 00000001802d32a8     imgui.obj
 0002:001ec2c0       ??_C@_09BIONLCBB@Processed@ 00000001802d32c0     imgui.obj
 0002:001ec2d0       ??_C@_09PGGNMDFB@Remaining@ 00000001802d32d0     imgui.obj
 0002:001ec2e0       ??_C@_0P@DHLMFJKK@?$CD?$CDTooltip_?$CF02d@ 00000001802d32e0     imgui.obj
 0002:001ec2f0       ??_C@_0CD@LOACMKE@?$FLpopup?$FN?5OpenPopup?$CI?$CC?$CFs?$CC?5?9?$DO?50x?$CF08@ 00000001802d32f0     imgui.obj
 0002:001ec318       ??_C@_0BN@MEGOLGEO@?$FLpopup?$FN?5OpenPopupEx?$CI0x?$CF08X?$CJ?6@ 00000001802d3318     imgui.obj
 0002:001ec338       ??_C@_06CBHGEMFM@?$DMNULL?$DO@ 00000001802d3338     imgui.obj
 0002:001ec340       ??_C@_0CF@KJFMKFLJ@?$FLpopup?$FN?5ClosePopupsOverWindow?$CI?$CC@ 00000001802d3340     imgui.obj
 0002:001ec370       ??_C@_0EH@KLKAJAPF@?$FLpopup?$FN?5ClosePopupToLevel?$CI?$CFd?$CJ?0?5@ 00000001802d3370     imgui.obj
 0002:001ec3b8       ??_C@_0CE@FCCNCIKM@?$FLpopup?$FN?5CloseCurrentPopup?5?$CFd?5?9?$DO@ 00000001802d33b8     imgui.obj
 0002:001ec3e0       ??_C@_0N@PIPFDMLM@?$CD?$CDPopup_?$CF08x@ 00000001802d33e0     imgui.obj
 0002:001ec3f0       ??_C@_0BM@CFDBCOKD@?$FLfocus?$FN?5SetNavWindow?$CI?$CC?$CFs?$CC?$CJ?6@ 00000001802d33f0     imgui.obj
 0002:001ec410       ??_C@_0DK@NLPDJHKG@?$FLfocus?$FN?5NavRestoreLayer?3?5from?5?$CC@ 00000001802d3410     imgui.obj
 0002:001ec450       ??_C@_0FE@LKAOFKOF@?$FLnav?$FN?5NavInitRequest?3?5from?5NavI@ 00000001802d3450     imgui.obj
 0002:001ec4b0       ??_C@_0EJ@EKHMMIGJ@?$FLnav?$FN?5NavInitRequest?3?5ApplyResu@ 00000001802d34b0     imgui.obj
 0002:001ec500       ??_C@_0CA@BNPHEIIJ@?$FLnav?$FN?5NavMoveRequestForward?5?$CFd?6@ 00000001802d3500     imgui.obj
 0002:001ec520       ??_C@_0DI@DAIPCILO@?$FLnav?$FN?5NavInitRequest?3?5from?5move@ 00000001802d3520     imgui.obj
 0002:001ec558       ??_C@_0DJ@MAGJKKCG@?$FLnav?$FN?5NavMoveRequest?3?5clamp?5Nav@ 00000001802d3558     imgui.obj
 0002:001ec598       ??_C@_0CM@KMMAIAOD@?$FLfocus?$FN?5NavMoveRequest?3?5SetNavW@ 00000001802d3598     imgui.obj
 0002:001ec5d0       ??_C@_0ED@JMNIALPC@?$FLnav?$FN?5NavMoveRequest?3?5result?5Na@ 00000001802d35d0     imgui.obj
 0002:001ec618       ??_C@_0CA@JJLLCANH@?$FLnav?$FN?5NavUpdateCancelRequest?$CI?$CJ?6@ 00000001802d3618     imgui.obj
 0002:001ec638       ??_C@_0O@BKOLOJFE@?$CD?$CDMainMenuBar@ 00000001802d3638     imgui.obj
 0002:001ec648       ??_C@_0BE@EBHFKNCA@?$CD?$CD?$CDNavWindowingList@ 00000001802d3648     imgui.obj
 0002:001ec65c       ??_C@_02PCIJFNDE@?$AN?6@   00000001802d365c     imgui.obj
 0002:001ec660       ??_C@_07LFDEMEGD@?$CF?$CKs?$CF?4?$CKs@ 00000001802d3660     imgui.obj
 0002:001ec668       ??_C@_02JDPG@rb@           00000001802d3668     imgui.obj
 0002:001ec66c       ??_C@_02BKFDOEMK@wt@       00000001802d366c     imgui.obj
 0002:001ec670       ??_C@_03OIJOKPOL@?$CD?$CD?$CD@ 00000001802d3670     imgui.obj
 0002:001ec678       ??_C@_09GOMOMIIP@Pos?$DN?$CFi?0?$CFi@ 00000001802d3678     imgui.obj
 0002:001ec688       ??_C@_0L@MPPKDMFA@Size?$DN?$CFi?0?$CFi@ 00000001802d3688     imgui.obj
 0002:001ec698       ??_C@_0N@IAKNMBB@Collapsed?$DN?$CFd@ 00000001802d3698     imgui.obj
 0002:001ec6a8       ??_C@_09HNFDDBIF@?$FL?$CFs?$FN?$FL?$CFs?$FN?6@ 00000001802d36a8     imgui.obj
 0002:001ec6b8       ??_C@_0L@DDMADIHO@Pos?$DN?$CFd?0?$CFd?6@ 00000001802d36b8     imgui.obj
 0002:001ec6c8       ??_C@_0M@CFANMDMP@Size?$DN?$CFd?0?$CFd?6@ 00000001802d36c8     imgui.obj
 0002:001ec6d8       ??_C@_0O@JAFHMCKE@Collapsed?$DN?$CFd?6@ 00000001802d36d8     imgui.obj
 0002:001ec6e8       ??_C@_01EEMJAFIK@?6@       00000001802d36e8     imgui.obj
 0002:001ec6ec       ??_C@_02DPKJAMEF@?$CFd@    00000001802d36ec     imgui.obj
 0002:001ec6f0       ??_C@_06MNCEJPDI@?$CD?$CDText@ 00000001802d36f0     imgui.obj
 0002:001ec6f8       ??_C@_02DKCKIIND@?$CFs@    00000001802d36f8     imgui.obj
 0002:001ec700       ??_C@_07CHALBAHD@?$FL?$CF05d?$FN?5@ 00000001802d3700     imgui.obj
 0002:001ec708       ??_C@_04OPMHGHMB@Copy@     00000001802d3708     imgui.obj
 0002:001ec710       ??_C@_0BC@JHPKFIGH@HoveredId?3?50x?$CF08X@ 00000001802d3710     imgui.obj
 0002:001ec728       ??_C@_0BM@IIPBLKLJ@Press?5ESC?5to?5abort?5picking?4@ 00000001802d3728     imgui.obj
 0002:001ec744       ??_C@_06OJAFHGNF@Middle@   00000001802d3744     imgui.obj
 0002:001ec750       ??_C@_0EA@BFCGJGEN@Remap?5w?1?5Ctrl?$CLShift?3?5click?5anyw@ 00000001802d3750     imgui.obj
 0002:001ec790       ??_C@_0DM@LGIJPHCL@Click?5?$CFs?5Button?5to?5break?5in?5deb@ 00000001802d3790     imgui.obj
 0002:001ec7cc       ??_C@_04EBNJJJJI@?$CF?4?$CKs@ 00000001802d37cc     imgui.obj
 0002:001ec7d8       ??_C@_0M@FNHADFEB@?$CIvoid?$CK?$CJ0x?$CFp@ 00000001802d37d8     imgui.obj
 0002:001ec7e8       ??_C@_0BC@CHOABEME@0x?$CF08X?5?$FLoverride?$FN@ 00000001802d37e8     imgui.obj
 0002:001ec800       ??_C@_0BG@CONABPA@ProggyClean?4ttf?0?5?$CFdpx@ 00000001802d3800     imgui_draw.obj
 0002:001ec840       ??_C@_0CNO@BDFPHIBE@cbuffer?5vertexBuffer?5?3?5register@ 00000001802d3840     imgui_impl_dx11.obj
 0002:001ecb20       ??_C@_0BJC@PEIKANGF@struct?5PS_INPUT?5?5?5?5?5?5?5?5?5?5?5?5?$HL?5?5?5@ 00000001802d3b20     imgui_impl_dx11.obj
 0002:001eccb4       ??_C@_06BNDBNCGN@vs_4_0@   00000001802d3cb4     imgui_impl_dx11.obj
 0002:001eccbc       ??_C@_04GHJNJNPO@main@     00000001802d3cbc     imgui_impl_dx11.obj
 0002:001eccc8       ??_C@_08JPMAAECC@POSITION@ 00000001802d3cc8     imgui_impl_dx11.obj
 0002:001eccd8       ??_C@_08CMDKBPJM@TEXCOORD@ 00000001802d3cd8     imgui_impl_dx11.obj
 0002:001ecce4       ??_C@_05DPNLPLKI@COLOR@    00000001802d3ce4     imgui_impl_dx11.obj
 0002:001eccec       ??_C@_06HOOBOHFH@ps_4_0@   00000001802d3cec     imgui_impl_dx11.obj
 0002:001eccf8       ??_C@_0BA@OFLFAAJI@imgui_impl_dx11@ 00000001802d3cf8     imgui_impl_dx11.obj
 0002:001ecd08       _GUID_54ec77fa_1377_44e6_8c32_88fd5f44c84c 00000001802d3d08     imgui_impl_dx11.obj
 0002:001ecd18       _GUID_2411e7e1_12ac_4ccf_bd14_9798e8534dc0 00000001802d3d18     imgui_impl_dx11.obj
 0002:001ecd28       _GUID_7b7166ec_21c7_44ae_b21a_c9ae321ae369 00000001802d3d28     imgui_impl_dx11.obj
 0002:001ecd38       ??_C@_0BB@FLGJPPJK@imgui_impl_win32@ 00000001802d3d38     imgui_impl_win32.obj
 0002:001ecd50       ??_C@_0O@LNFLKCMF@xinput1_4?4dll@ 00000001802d3d50     imgui_impl_win32.obj
 0002:001ecd60       ??_C@_0O@KAFOJCHN@xinput1_3?4dll@ 00000001802d3d60     imgui_impl_win32.obj
 0002:001ecd70       ??_C@_0BA@GHGALGFD@xinput9_1_0?4dll@ 00000001802d3d70     imgui_impl_win32.obj
 0002:001ecd80       ??_C@_0O@GLACEBNI@xinput1_2?4dll@ 00000001802d3d80     imgui_impl_win32.obj
 0002:001ecd90       ??_C@_0O@ONJGDDHG@xinput1_1?4dll@ 00000001802d3d90     imgui_impl_win32.obj
 0002:001ecda0       ??_C@_0BG@ELBNFOBA@XInputGetCapabilities@ 00000001802d3da0     imgui_impl_win32.obj
 0002:001ecdb8       ??_C@_0P@FCCEJHCC@XInputGetState@ 00000001802d3db8     imgui_impl_win32.obj
 0002:001ecdc8       ??_C@_04LOAJBDKD@true@     00000001802d3dc8     imgui_widgets.obj
 0002:001ecdd0       ??_C@_08ENAFOMOP@?$CDSCROLLX@ 00000001802d3dd0     imgui_widgets.obj
 0002:001ecde0       ??_C@_08FEBONNKO@?$CDSCROLLY@ 00000001802d3de0     imgui_widgets.obj
 0002:001ecdec       ??_C@_06MAKAMBBI@picker@   00000001802d3dec     imgui_widgets.obj
 0002:001ecdf8       ??_C@_07ECMOILKI@Mouse?51@ 00000001802d3df8     imgui_widgets.obj
 0002:001ece00       ??_C@_07GJODNIGL@Mouse?52@ 00000001802d3e00     imgui_widgets.obj
 0002:001ece08       ??_C@_02BMJIHHPP@CN@       00000001802d3e08     imgui_widgets.obj
 0002:001ece10       ??_C@_07HAPIOJCK@Mouse?53@ 00000001802d3e10     imgui_widgets.obj
 0002:001ece18       ??_C@_07DPLJHPON@Mouse?54@ 00000001802d3e18     imgui_widgets.obj
 0002:001ece20       ??_C@_07CGKCEOKM@Mouse?55@ 00000001802d3e20     imgui_widgets.obj
 0002:001ece28       ??_C@_04FEOMFELI@Back@     00000001802d3e28     imgui_widgets.obj
 0002:001ece30       ??_C@_03KGBHJMEC@CLR@      00000001802d3e30     imgui_widgets.obj
 0002:001ece34       ??_C@_05CMECKLGA@Shift@    00000001802d3e34     imgui_widgets.obj
 0002:001ece3c       ??_C@_03GAGDFBFF@CTL@      00000001802d3e3c     imgui_widgets.obj
 0002:001ece40       ??_C@_09GGECHFNF@Caps?5Lock@ 00000001802d3e40     imgui_widgets.obj
 0002:001ece4c       ??_C@_03INAMHKKD@KAN@      00000001802d3e4c     imgui_widgets.obj
 0002:001ece50       ??_C@_03COJPBGGK@JUN@      00000001802d3e50     imgui_widgets.obj
 0002:001ece54       ??_C@_03HBHFPDMG@FIN@      00000001802d3e54     imgui_widgets.obj
 0002:001ece58       ??_C@_03ECCGHPEG@CON@      00000001802d3e58     imgui_widgets.obj
 0002:001ece5c       ??_C@_03KAENGPLO@NCO@      00000001802d3e5c     imgui_widgets.obj
 0002:001ece60       ??_C@_03FEJLDAOE@ACC@      00000001802d3e60     imgui_widgets.obj
 0002:001ece64       ??_C@_03FCIIMNPF@MAD@      00000001802d3e64     imgui_widgets.obj
 0002:001ece68       ??_C@_03KHKPBNBF@PGU@      00000001802d3e68     imgui_widgets.obj
 0002:001ece6c       ??_C@_03PEHGDOAF@PGD@      00000001802d3e6c     imgui_widgets.obj
 0002:001ece70       ??_C@_03CNJOMPIN@SEL@      00000001802d3e70     imgui_widgets.obj
 0002:001ece74       ??_C@_03FLDFCBND@PRI@      00000001802d3e74     imgui_widgets.obj
 0002:001ece78       ??_C@_03JNNAEMKE@EXE@      00000001802d3e78     imgui_widgets.obj
 0002:001ece7c       ??_C@_03NDDFJJAJ@INS@      00000001802d3e7c     imgui_widgets.obj
 0002:001ece80       ??_C@_03KKIGBPBD@HEL@      00000001802d3e80     imgui_widgets.obj
 0002:001ece84       ??_C@_03JJNAMDDM@WIN@      00000001802d3e84     imgui_widgets.obj
 0002:001ece88       ??_C@_03CLBEGMFP@APP@      00000001802d3e88     imgui_widgets.obj
 0002:001ece8c       ??_C@_03PDINEPEL@SLE@      00000001802d3e8c     imgui_widgets.obj
 0002:001ece90       ??_C@_08PNEIMCGO@Numpad?50@ 00000001802d3e90     imgui_widgets.obj
 0002:001ecea0       ??_C@_08OEFDPDCP@Numpad?51@ 00000001802d3ea0     imgui_widgets.obj
 0002:001eceb0       ??_C@_08MPHOKAOM@Numpad?52@ 00000001802d3eb0     imgui_widgets.obj
 0002:001ecec0       ??_C@_08NGGFJBKN@Numpad?53@ 00000001802d3ec0     imgui_widgets.obj
 0002:001eced0       ??_C@_08JJCEAHGK@Numpad?54@ 00000001802d3ed0     imgui_widgets.obj
 0002:001ecee0       ??_C@_08IADPDGCL@Numpad?55@ 00000001802d3ee0     imgui_widgets.obj
 0002:001ecef0       ??_C@_08KLBCGFOI@Numpad?56@ 00000001802d3ef0     imgui_widgets.obj
 0002:001ecf00       ??_C@_08LCAJFEKJ@Numpad?57@ 00000001802d3f00     imgui_widgets.obj
 0002:001ecf10       ??_C@_08DFJBEIGG@Numpad?58@ 00000001802d3f10     imgui_widgets.obj
 0002:001ecf20       ??_C@_08CMIKHJCH@Numpad?59@ 00000001802d3f20     imgui_widgets.obj
 0002:001ecf2c       ??_C@_03IBHOEMFB@MUL@      00000001802d3f2c     imgui_widgets.obj
 0002:001ecf30       ??_C@_03BOJFLAKG@ADD@      00000001802d3f30     imgui_widgets.obj
 0002:001ecf34       ??_C@_03MLOJJCNA@SEP@      00000001802d3f34     imgui_widgets.obj
 0002:001ecf38       ??_C@_03KGHEHEMH@MIN@      00000001802d3f38     imgui_widgets.obj
 0002:001ecf3c       ??_C@_03FJGHKDBE@DIV@      00000001802d3f3c     imgui_widgets.obj
 0002:001ecf40       ??_C@_03LBAGMNJF@F13@      00000001802d3f40     imgui_widgets.obj
 0002:001ecf44       ??_C@_03POEHFLFC@F14@      00000001802d3f44     imgui_widgets.obj
 0002:001ecf48       ??_C@_03OHFMGKBD@F15@      00000001802d3f48     imgui_widgets.obj
 0002:001ecf4c       ??_C@_03MMHBDJNA@F16@      00000001802d3f4c     imgui_widgets.obj
 0002:001ecf50       ??_C@_03NFGKAIJB@F17@      00000001802d3f50     imgui_widgets.obj
 0002:001ecf54       ??_C@_03FCPCBEFO@F18@      00000001802d3f54     imgui_widgets.obj
 0002:001ecf58       ??_C@_03ELOJCFBP@F19@      00000001802d3f58     imgui_widgets.obj
 0002:001ecf5c       ??_C@_03JIGNCAAP@F20@      00000001802d3f5c     imgui_widgets.obj
 0002:001ecf60       ??_C@_03IBHGBBEO@F21@      00000001802d3f60     imgui_widgets.obj
 0002:001ecf64       ??_C@_03KKFLECIN@F22@      00000001802d3f64     imgui_widgets.obj
 0002:001ecf68       ??_C@_03LDEAHDMM@F23@      00000001802d3f68     imgui_widgets.obj
 0002:001ecf6c       ??_C@_03PMABOFAL@F24@      00000001802d3f6c     imgui_widgets.obj
 0002:001ecf70       ??_C@_03IKNANCPO@NUM@      00000001802d3f70     imgui_widgets.obj
 0002:001ecf74       ??_C@_03PNFCIMOA@SCR@      00000001802d3f74     imgui_widgets.obj
 0002:001ecf78       ??_C@_03NIMDGFHK@EQU@      00000001802d3f78     imgui_widgets.obj
 0002:001ecf7c       ??_C@_03FHALEJGD@MAS@      00000001802d3f7c     imgui_widgets.obj
 0002:001ecf80       ??_C@_03IKGLJEPG@TOY@      00000001802d3f80     imgui_widgets.obj
 0002:001ecf84       ??_C@_03JHMDADPD@OYA@      00000001802d3f84     imgui_widgets.obj
 0002:001ecf88       ??_C@_04FMOOIFCF@Ctrl@     00000001802d3f88     imgui_widgets.obj
 0002:001ecf90       ??_C@_03PHINJBAN@Alt@      00000001802d3f90     imgui_widgets.obj
 0002:001ecf94       ??_C@_04HCEHGANI@Hold@     00000001802d3f94     imgui_widgets.obj
 0002:001ecf9c       ??_C@_06JIAPJJOL@Toggle@   00000001802d3f9c     imgui_widgets.obj
 0002:001ecfa4       ??_C@_06GIIDEEDO@Always@   00000001802d3fa4     imgui_widgets.obj
 0002:001ecfac       ??_C@_03KFJJABDB@?$CIx?$CJ@ 00000001802d3fac     imgui_widgets.obj
 0002:001ecfb0       ??_C@_03MHDGHODJ@?$CI?5?$CJ@ 00000001802d3fb0     imgui_widgets.obj
 0002:001ecfb4       ??_C@_02LLHJFGPH@?5?$HM@   00000001802d3fb4     imgui_widgets.obj
 0002:001ecfb8       ??_C@_0CC@IODDEFBI@?9?9?9?9?9?9?9?9?9?9?9?9?9?9?9?9?9?9?9?9?9?9?9?9?9?9?9?9?9?9?9@ 00000001802d3fb8     imgui_widgets.obj
 0002:001ecfe0       ??_C@_0P@HFPOEILF@?$CKUnknown?5item?$CK@ 00000001802d3fe0     imgui_widgets.obj
 0002:001ecff0       ??_C@_02HJNLAKPP@S8@       00000001802d3ff0     imgui_widgets.obj
 0002:001ecff4       ??_C@_02HNFGHGEN@U8@       00000001802d3ff4     imgui_widgets.obj
 0002:001ecff8       ??_C@_02GMHACPFF@?$CFu@    00000001802d3ff8     imgui_widgets.obj
 0002:001ecffc       ??_C@_03KLLGJOHN@S16@      00000001802d3ffc     imgui_widgets.obj
 0002:001ed000       ??_C@_03IONNMBKB@U16@      00000001802d4000     imgui_widgets.obj
 0002:001ed004       ??_C@_03MMFOIPBH@S32@      00000001802d4004     imgui_widgets.obj
 0002:001ed008       ??_C@_03OJDFNAML@U32@      00000001802d4008     imgui_widgets.obj
 0002:001ed00c       ??_C@_03JMMPOKHK@S64@      00000001802d400c     imgui_widgets.obj
 0002:001ed010       ??_C@_05LLAMLEHD@?$CFI64d@ 00000001802d4010     imgui_widgets.obj
 0002:001ed018       ??_C@_03LJKELFKG@U64@      00000001802d4018     imgui_widgets.obj
 0002:001ed01c       ??_C@_05OINFJHGD@?$CFI64u@ 00000001802d401c     imgui_widgets.obj
 0002:001ed024       ??_C@_05KNFBNCOH@float@    00000001802d4024     imgui_widgets.obj
 0002:001ed02c       ??_C@_06BNJCAIGJ@double@   00000001802d402c     imgui_widgets.obj
 0002:001ed034       ??_C@_03DLDNIBIK@?$CFlf@   00000001802d4034     imgui_widgets.obj
 0002:001ed038       ??_C@_01CELHOKLL@?$HN@     00000001802d4038     imgui_widgets.obj
 0002:001ed03c       ??_C@_01HCONENDN@?$HL@     00000001802d403c     imgui_widgets.obj
 0002:001ed040       ??_C@_03CEFFAPNG@?$CD?$CDX@ 00000001802d4040     imgui_widgets.obj
 0002:001ed044       ??_C@_03DNEODOJH@?$CD?$CDY@ 00000001802d4044     imgui_widgets.obj
 0002:001ed048       ??_C@_03BGGDGNFE@?$CD?$CDZ@ 00000001802d4048     imgui_widgets.obj
 0002:001ed04c       ??_C@_03KDMNBDBJ@?$CD?$CDW@ 00000001802d404c     imgui_widgets.obj
 0002:001ed050       ??_C@_03GOOLIKIF@?$CF3d@   00000001802d4050     imgui_widgets.obj
 0002:001ed054       ??_C@_05FELKPNOB@R?3?$CF3d@ 00000001802d4054     imgui_widgets.obj
 0002:001ed05c       ??_C@_05HKBGOMJ@G?3?$CF3d@ 00000001802d405c     imgui_widgets.obj
 0002:001ed064       ??_C@_05FHGMPPHK@B?3?$CF3d@ 00000001802d4064     imgui_widgets.obj
 0002:001ed06c       ??_C@_05NBPIINNE@A?3?$CF3d@ 00000001802d406c     imgui_widgets.obj
 0002:001ed074       ??_C@_05PGPHNMBM@H?3?$CF3d@ 00000001802d4074     imgui_widgets.obj
 0002:001ed07c       ??_C@_05JPOGCOEE@S?3?$CF3d@ 00000001802d407c     imgui_widgets.obj
 0002:001ed084       ??_C@_05MPCLLPPH@V?3?$CF3d@ 00000001802d4084     imgui_widgets.obj
 0002:001ed08c       ??_C@_05ONBKDNLK@?$CF0?43f@ 00000001802d408c     imgui_widgets.obj
 0002:001ed098       ??_C@_07CCOKENNH@R?3?$CF0?43f@ 00000001802d4098     imgui_widgets.obj
 0002:001ed0a0       ??_C@_07BGLBHCJI@G?3?$CF0?43f@ 00000001802d40a0     imgui_widgets.obj
 0002:001ed0a8       ??_C@_07FOFBHMPM@B?3?$CF0?43f@ 00000001802d40a8     imgui_widgets.obj
 0002:001ed0b0       ??_C@_07NANOHLBP@A?3?$CF0?43f@ 00000001802d40b0     imgui_widgets.obj
 0002:001ed0b8       ??_C@_07MPJBGADE@H?3?$CF0?43f@ 00000001802d40b8     imgui_widgets.obj
 0002:001ed0c0       ??_C@_07OOEAENEJ@S?3?$CF0?43f@ 00000001802d40c0     imgui_widgets.obj
 0002:001ed0c8       ??_C@_07KGKAEDCN@V?3?$CF0?43f@ 00000001802d40c8     imgui_widgets.obj
 0002:001ed0d0       ??_C@_07FFNLLALM@M?30?4000@ 00000001802d40d0     imgui_widgets.obj
 0002:001ed0d8       ??_C@_05BNGMMMAL@M?3000@   00000001802d40d8     imgui_widgets.obj
 0002:001ed0e0       ??_C@_07JKKCBBMM@context@  00000001802d40e0     imgui_widgets.obj
 0002:001ed0e8       ??_C@_0BC@CKPCOFBK@?$CD?$CF02X?$CF02X?$CF02X?$CF02X@ 00000001802d40e8     imgui_widgets.obj
 0002:001ed100       ??_C@_0O@MBPBDFLP@?$CD?$CF02X?$CF02X?$CF02X@ 00000001802d4100     imgui_widgets.obj
 0002:001ed110       ??_C@_0BB@DDMGLOLI@?$CF02X?$CF02X?$CF02X?$CF02X@ 00000001802d4110     imgui_widgets.obj
 0002:001ed128       ??_C@_0N@KODLFHPJ@?$CF02X?$CF02X?$CF02X@ 00000001802d4128     imgui_widgets.obj
 0002:001ed138       ??_C@_0O@GLNBIEEK@?$CD?$CDColorButton@ 00000001802d4138     imgui_widgets.obj
 0002:001ed148       ??_C@_08HHEANBBL@?$CD?$CDpicker@ 00000001802d4148     imgui_widgets.obj
 0002:001ed154       ??_C@_06LFKNFKEK@_COL3F@   00000001802d4154     imgui_widgets.obj
 0002:001ed15c       ??_C@_06LAOCEMMP@_COL4F@   00000001802d415c     imgui_widgets.obj
 0002:001ed164       ??_C@_02CPGMCOJE@sv@       00000001802d4164     imgui_widgets.obj
 0002:001ed168       ??_C@_03GKJJMKFG@hue@      00000001802d4168     imgui_widgets.obj
 0002:001ed16c       ??_C@_05IAEKHIAN@alpha@    00000001802d416c     imgui_widgets.obj
 0002:001ed174       ??_C@_03ICFFBAI@RGB@       00000001802d4174     imgui_widgets.obj
 0002:001ed178       ??_C@_03CAADKAK@HSV@       00000001802d4178     imgui_widgets.obj
 0002:001ed17c       ??_C@_03CJOBKKAE@Hex@      00000001802d417c     imgui_widgets.obj
 0002:001ed180       ??_C@_06FDBEKFBH@0?4?4255@ 00000001802d4180     imgui_widgets.obj
 0002:001ed188       ??_C@_0L@MDNPBJBM@0?400?4?41?400@ 00000001802d4188     imgui_widgets.obj
 0002:001ed198       ??_C@_09NMCCFHEI@Copy?5as?4?4@ 00000001802d4198     imgui_widgets.obj
 0002:001ed1a8       ??_C@_0BN@GKCJMPCH@?$CI?$CF?43ff?0?5?$CF?43ff?0?5?$CF?43ff?0?5?$CF?43ff?$CJ@ 00000001802d41a8     imgui_widgets.obj
 0002:001ed1c8       ??_C@_0O@EJHNAHBL@?$CI?$CFd?0?$CFd?0?$CFd?0?$CFd?$CJ@ 00000001802d41c8     imgui_widgets.obj
 0002:001ed1d8       ??_C@_0N@KFBFGFJL@?$CD?$CDselectable@ 00000001802d41d8     imgui_widgets.obj
 0002:001ed1e8       ??_C@_0BE@ENPGBMIC@?$CD?$CDpreviewing_picker@ 00000001802d41e8     imgui_widgets.obj
 0002:001ed200       ??_C@_09KEDLMDJL@Alpha?5Bar@ 00000001802d4200     imgui_widgets.obj
 0002:001ed318       ??_C@_09BDLBIGPI@0x?$CF08X?0?$CFd@ 00000001802d4318     imgui_tables.obj
 0002:001ed328       ??_C@_0M@LAOOHBLO@RefScale?$DN?$CFf@ 00000001802d4328     imgui_tables.obj
 0002:001ed338       ??_C@_0M@JOECNJOM@Column?5?$CFd?$CFn@ 00000001802d4338     imgui_tables.obj
 0002:001ed348       ??_C@_0BA@KAIOJKEL@UserID?$DN0x?$CF08X?$CFn@ 00000001802d4348     imgui_tables.obj
 0002:001ed358       ??_C@_0L@LJLKPCDP@Width?$DN?$CFd?$CFn@ 00000001802d4358     imgui_tables.obj
 0002:001ed368       ??_C@_0M@IJODOCHC@Weight?$DN?$CFf?$CFn@ 00000001802d4368     imgui_tables.obj
 0002:001ed378       ??_C@_0N@EKALHFOF@Visible?$DN?$CFd?$CFn@ 00000001802d4378     imgui_tables.obj
 0002:001ed388       ??_C@_0L@BHOFPJL@Order?$DN?$CFd?$CFn@ 00000001802d4388     imgui_tables.obj
 0002:001ed398       ??_C@_0M@KGHCDDIO@Sort?$DN?$CFd?$CFc?$CFn@ 00000001802d4398     imgui_tables.obj
 0002:001ed3a8       ??_C@_0BB@PGHPBJD@?$FL?$CFs?$FN?$FL0x?$CF08X?0?$CFd?$FN?6@ 00000001802d43a8     imgui_tables.obj
 0002:001ed3c0       ??_C@_0N@NHEEPCEH@RefScale?$DN?$CFg?6@ 00000001802d43c0     imgui_tables.obj
 0002:001ed3d0       ??_C@_0M@JLNIJDCE@Column?5?$CF?92d@ 00000001802d43d0     imgui_tables.obj
 0002:001ed3e0       ??_C@_0N@PGBEGIHP@?5UserID?$DN?$CF08X@ 00000001802d43e0     imgui_tables.obj
 0002:001ed3f0       ??_C@_0N@MFKBBKPH@?5Weight?$DN?$CF?44f@ 00000001802d43f0     imgui_tables.obj
 0002:001ed400       ??_C@_09PBOBBCAP@?5Width?$DN?$CFd@ 00000001802d4400     imgui_tables.obj
 0002:001ed410       ??_C@_0M@CIPDPODB@?5Visible?$DN?$CFd@ 00000001802d4410     imgui_tables.obj
 0002:001ed420       ??_C@_09CFPCIBAG@?5Order?$DN?$CFd@ 00000001802d4420     imgui_tables.obj
 0002:001ed430       ??_C@_0L@EAJILIBD@?5Sort?$DN?$CFd?$CFc@ 00000001802d4430     imgui_tables.obj
 0002:001ed43c       ??_C@_05LFBINIGO@Table@    00000001802d443c     imgui_tables.obj
 0002:001ed444       ??_C@_06ODJMJFLN@Weight@   00000001802d4444     imgui_tables.obj
 0002:001ed44c       __real@00000000            00000001802d444c     main.obj
 0002:001ed450       __real@0000000000000000    00000001802d4450     rpc_connection.obj
 0002:001ed458       __real@000730d67819e8d2    00000001802d4458     rpc_connection.obj
 0002:001ed460       __real@00800000            00000001802d4460     imgui_widgets.obj
 0002:001ed464       __real@1e3ce508            00000001802d4464     imgui.obj
 0002:001ed468       __real@358637bd            00000001802d4468     imgui_draw.obj
 0002:001ed46c       __real@3727c5ac            00000001802d446c     main.obj
 0002:001ed470       __real@38285303            00000001802d4470     imgui_impl_win32.obj
 0002:001ed474       __real@3949116d            00000001802d4474     main.obj
 0002:001ed478       __real@3a800000            00000001802d4478     main.obj
 0002:001ed47c       __real@3a83126f            00000001802d447c     imgui.obj
 0002:001ed480       __real@3a8db310            00000001802d4480     main.obj
 0002:001ed484       __real@3a8f3f83            00000001802d4484     main.obj
 0002:001ed488       __real@3a93459c            00000001802d4488     main.obj
 0002:001ed48c       __real@3b03126f            00000001802d448c     main.obj
 0002:001ed490       __real@3b808081            00000001802d4490     imgui.obj
 0002:001ed494       __real@3b83126f            00000001802d4494     main.obj
 0002:001ed498       __real@3b8efa35            00000001802d4498     main.obj
 0002:001ed49c       __real@3b91a2b4            00000001802d449c     imgui_impl_win32.obj
 0002:001ed4a0       __real@3b9d89d9            00000001802d44a0     imgui_widgets.obj
 0002:001ed4a4       __real@3ba3d70a            00000001802d44a4     main.obj
 0002:001ed4a8       __real@3bf0000000000000    00000001802d44a8     discord_rpc.obj
 0002:001ed4b0       __real@3c088889            00000001802d44b0     imgui_impl_win32.obj
 0002:001ed4b4       __real@3c23d70a            00000001802d44b4     main.obj
 0002:001ed4b8       __real@3c8efa35            00000001802d44b8     main.obj
 0002:001ed4bc       __real@3cf5c28f            00000001802d44bc     main.obj
 0002:001ed4c0       __real@3d000000            00000001802d44c0     main.obj
 0002:001ed4c4       __real@3d088889            00000001802d44c4     imgui.obj
 0002:001ed4c8       __real@3d23d70a            00000001802d44c8     imgui.obj
 0002:001ed4cc       __real@3d4ccccd            00000001802d44cc     main.obj
 0002:001ed4d0       __real@3d75c290            00000001802d44d0     main.obj
 0002:001ed4d4       __real@3d888889            00000001802d44d4     main.obj
 0002:001ed4d8       __real@3d9d89d9            00000001802d44d8     imgui_draw.obj
 0002:001ed4dc       __real@3da3d70a            00000001802d44dc     main.obj
 0002:001ed4e0       __real@3db2b8c3            00000001802d44e0     main.obj
 0002:001ed4e4       __real@3dc00000            00000001802d44e4     main.obj
 0002:001ed4e8       __real@3dcccccd            00000001802d44e8     main.obj
 0002:001ed4ec       __real@3e060a92            00000001802d44ec     imgui_draw.obj
 0002:001ed4f0       __real@3e19999a            00000001802d44f0     main.obj
 0002:001ed4f4       __real@3e22f983            00000001802d44f4     imgui_draw.obj
 0002:001ed4f8       __real@3e2aaaab            00000001802d44f8     imgui_widgets.obj
 0002:001ed4fc       __real@3e428f5c            00000001802d44fc     main.obj
 0002:001ed500       __real@3e4ccccd            00000001802d4500     imgui.obj
 0002:001ed504       __real@3e733334            00000001802d4504     main.obj
 0002:001ed508       __real@3e800000            00000001802d4508     imgui_draw.obj
 0002:001ed50c       __real@3e866666            00000001802d450c     main.obj
 0002:001ed510       __real@3e99999a            00000001802d4510     main.obj
 0002:001ed514       __real@3ea0d97c            00000001802d4514     main.obj
 0002:001ed518       __real@3eaaaaab            00000001802d4518     imgui_widgets.obj
 0002:001ed51c       __real@3eb33333            00000001802d451c     main.obj
 0002:001ed520       __real@3ecccccd            00000001802d4520     imgui_draw.obj
 0002:001ed524       __real@3ee147ae            00000001802d4524     main.obj
 0002:001ed528       __real@3ee4f8b57fffffff    00000001802d4528     main.obj
 0002:001ed530       __real@3efae148            00000001802d4530     imgui_draw.obj
 0002:001ed534       __real@3effbe77            00000001802d4534     main.obj
 0002:001ed538       __real@3f000000            00000001802d4538     main.obj
 0002:001ed53c       __real@3f0ccccd            00000001802d453c     main.obj
 0002:001ed540       __real@3f19999a            00000001802d4540     imgui_draw.obj
 0002:001ed544       __real@3f266666            00000001802d4544     main.obj
 0002:001ed548       __real@3f2b851f            00000001802d4548     imgui.obj
 0002:001ed54c       __real@3f333333            00000001802d454c     imgui.obj
 0002:001ed550       __real@3f3851ec            00000001802d4550     imgui.obj
 0002:001ed554       __real@3f400000            00000001802d4554     main.obj
 0002:001ed558       __real@3f490fd9            00000001802d4558     main.obj
 0002:001ed55c       __real@3f4ccccd            00000001802d455c     imgui.obj
 0002:001ed560       __real@3f50624dd2f1a9fc    00000001802d4560     main.obj
 0002:001ed568       __real@3f59999a            00000001802d4568     main.obj
 0002:001ed56c       __real@3f5db22d            00000001802d456c     imgui_draw.obj
 0002:001ed570       __real@3f666666            00000001802d4570     main.obj
 0002:001ed578       __real@3f747ae147ae147b    00000001802d4578     main.obj
 0002:001ed580       __real@3f7851ec            00000001802d4580     main.obj
 0002:001ed584       __real@3f7d70a4            00000001802d4584     imgui_draw.obj
 0002:001ed588       __real@3f7fff58            00000001802d4588     imgui.obj
 0002:001ed58c       __real@3f7fffef            00000001802d458c     imgui_draw.obj
 0002:001ed590       __real@3f800000            00000001802d4590     imgui_freetype.obj
 0002:001ed594       __real@3f86bca2            00000001802d4594     main.obj
 0002:001ed598       __real@3f91df46a2529d39    00000001802d4598     main.obj
 0002:001ed5a0       __real@3f9851ec            00000001802d45a0     main.obj
 0002:001ed5a4       __real@3f99999a            00000001802d45a4     imgui_widgets.obj
 0002:001ed5a8       __real@3fa00000            00000001802d45a8     main.obj
 0002:001ed5ac       __real@3faaaaab            00000001802d45ac     main.obj
 0002:001ed5b0       __real@3faccccd            00000001802d45b0     imgui.obj
 0002:001ed5b4       __real@3fb33333            00000001802d45b4     main.obj
 0002:001ed5b8       __real@3fb504f3            00000001802d45b8     main.obj
 0002:001ed5c0       __real@3fb999999999999a    00000001802d45c0     main.obj
 0002:001ed5c8       __real@3fbeb852            00000001802d45c8     main.obj
 0002:001ed5cc       __real@3fc00000            00000001802d45cc     main.obj
 0002:001ed5d0       __real@3fc999999999999a    00000001802d45d0     main.obj
 0002:001ed5d8       __real@3fd9999a            00000001802d45d8     main.obj
 0002:001ed5dc       __real@3fe66666            00000001802d45dc     main.obj
 0002:001ed5e0       __real@40000000            00000001802d45e0     main.obj
 0002:001ed5e4       __real@40066666            00000001802d45e4     main.obj
 0002:001ed5e8       __real@400999999999999a    00000001802d45e8     main.obj
 0002:001ed5f0       __real@400ccccd            00000001802d45f0     main.obj
 0002:001ed5f4       __real@40133333            00000001802d45f4     main.obj
 0002:001ed5f8       __real@40200000            00000001802d45f8     main.obj
 0002:001ed600       __real@4024000000000000    00000001802d4600     rpc_connection.obj
 0002:001ed608       __real@402ccccd            00000001802d4608     main.obj
 0002:001ed60c       __real@40400000            00000001802d460c     imgui_draw.obj
 0002:001ed610       __real@40466666            00000001802d4610     imgui_draw.obj
 0002:001ed614       __real@40490fdb            00000001802d4614     imgui_draw.obj
 0002:001ed618       __real@40600000            00000001802d4618     imgui.obj
 0002:001ed61c       __real@40800000            00000001802d461c     imgui.obj
 0002:001ed620       __real@4085c28f            00000001802d4620     imgui_widgets.obj
 0002:001ed624       __real@40900000            00000001802d4624     main.obj
 0002:001ed628       __real@4093d70a            00000001802d4628     imgui_draw.obj
 0002:001ed62c       __real@4096cbe4            00000001802d462c     main.obj
 0002:001ed630       __real@409a3d71            00000001802d4630     imgui_draw.obj
 0002:001ed634       __real@40a00000            00000001802d4634     main.obj
 0002:001ed638       __real@40b00000            00000001802d4638     main.obj
 0002:001ed63c       __real@40bf0243            00000001802d463c     main.obj
 0002:001ed640       __real@40c00000            00000001802d4640     imgui.obj
 0002:001ed644       __real@40c4090f            00000001802d4644     main.obj
 0002:001ed648       __real@40c7ae14            00000001802d4648     imgui_draw.obj
 0002:001ed64c       __real@40c90fdb            00000001802d464c     main.obj
 0002:001ed650       __real@40cae148            00000001802d4650     imgui_draw.obj
 0002:001ed654       __real@40d00000            00000001802d4654     imgui_widgets.obj
 0002:001ed658       __real@40e00000            00000001802d4658     main.obj
 0002:001ed65c       __real@40e80000            00000001802d465c     imgui_widgets.obj
 0002:001ed660       __real@40f47644            00000001802d4660     imgui_draw.obj
 0002:001ed664       __real@40f8a3d7            00000001802d4664     imgui_draw.obj
 0002:001ed668       __real@40feb852            00000001802d4668     imgui_draw.obj
 0002:001ed66c       __real@41000000            00000001802d466c     main.obj
 0002:001ed670       __real@41100000            00000001802d4670     main.obj
 0002:001ed674       __real@41180000            00000001802d4674     imgui_draw.obj
 0002:001ed678       __real@41200000            00000001802d4678     imgui_widgets.obj
 0002:001ed67c       __real@41280000            00000001802d467c     imgui_widgets.obj
 0002:001ed680       __real@41300000            00000001802d4680     imgui_widgets.obj
 0002:001ed684       __real@41400000            00000001802d4684     main.obj
 0002:001ed688       __real@41500000            00000001802d4688     imgui_draw.obj
 0002:001ed68c       __real@41600000            00000001802d468c     imgui_widgets.obj
 0002:001ed690       __real@41700000            00000001802d4690     main.obj
 0002:001ed694       __real@41800000            00000001802d4694     imgui.obj
 0002:001ed698       __real@41880000            00000001802d4698     imgui.obj
 0002:001ed69c       __real@41900000            00000001802d469c     imgui_widgets.obj
 0002:001ed6a0       __real@41980000            00000001802d46a0     imgui_widgets.obj
 0002:001ed6a4       __real@41a00000            00000001802d46a4     main.obj
 0002:001ed6a8       __real@41a80000            00000001802d46a8     imgui_widgets.obj
 0002:001ed6ac       __real@41b00000            00000001802d46ac     imgui_widgets.obj
 0002:001ed6b0       __real@41b80000            00000001802d46b0     imgui_widgets.obj
 0002:001ed6b4       __real@41c00000            00000001802d46b4     imgui.obj
 0002:001ed6b8       __real@41c80000            00000001802d46b8     imgui_widgets.obj
 0002:001ed6bc       __real@41d00000            00000001802d46bc     imgui_widgets.obj
 0002:001ed6c0       __real@41e00000            00000001802d46c0     imgui_widgets.obj
 0002:001ed6c4       __real@41e80000            00000001802d46c4     main.obj
 0002:001ed6c8       __real@41f00000            00000001802d46c8     imgui_widgets.obj
 0002:001ed6cc       __real@42040000            00000001802d46cc     imgui_widgets.obj
 0002:001ed6d0       __real@42080000            00000001802d46d0     imgui_widgets.obj
 0002:001ed6d4       __real@420b5556            00000001802d46d4     imgui_widgets.obj
 0002:001ed6d8       __real@420c0000            00000001802d46d8     imgui.obj
 0002:001ed6dc       __real@42100000            00000001802d46dc     main.obj
 0002:001ed6e0       __real@42140000            00000001802d46e0     main.obj
 0002:001ed6e4       __real@42180000            00000001802d46e4     imgui_widgets.obj
 0002:001ed6e8       __real@42200000            00000001802d46e8     imgui_widgets.obj
 0002:001ed6ec       __real@42280000            00000001802d46ec     imgui_widgets.obj
 0002:001ed6f0       __real@42340000            00000001802d46f0     main.obj
 0002:001ed6f4       __real@42480000            00000001802d46f4     main.obj
 0002:001ed6f8       __real@425c0000            00000001802d46f8     imgui_widgets.obj
 0002:001ed6fc       __real@42652ee1            00000001802d46fc     main.obj
 0002:001ed700       __real@42652ee6            00000001802d4700     main.obj
 0002:001ed704       __real@42700000            00000001802d4704     imgui.obj
 0002:001ed708       __real@42780000            00000001802d4708     main.obj
 0002:001ed70c       __real@42850000            00000001802d470c     main.obj
 0002:001ed710       __real@42940000            00000001802d4710     main.obj
 0002:001ed714       __real@42960000            00000001802d4714     main.obj
 0002:001ed718       __real@42a00000            00000001802d4718     imgui_widgets.obj
 0002:001ed71c       __real@42aa0000            00000001802d471c     imgui.obj
 0002:001ed720       __real@42ac0000            00000001802d4720     imgui_widgets.obj
 0002:001ed724       __real@42ad0000            00000001802d4724     main.obj
 0002:001ed728       __real@42b20000            00000001802d4728     main.obj
 0002:001ed72c       __real@42b40000            00000001802d472c     main.obj
 0002:001ed730       __real@42b40004            00000001802d4730     main.obj
 0002:001ed734       __real@42c60000            00000001802d4734     main.obj
 0002:001ed738       __real@42c80000            00000001802d4738     main.obj
 0002:001ed73c       __real@42e52ee6            00000001802d473c     main.obj
 0002:001ed740       __real@42f00000            00000001802d4740     main.obj
 0002:001ed744       __real@42f60000            00000001802d4744     imgui_draw.obj
 0002:001ed748       __real@43050000            00000001802d4748     imgui_widgets.obj
 0002:001ed74c       __real@43160000            00000001802d474c     main.obj
 0002:001ed750       __real@43250000            00000001802d4750     main.obj
 0002:001ed754       __real@432d0000            00000001802d4754     imgui.obj
 0002:001ed758       __real@432f0000            00000001802d4758     main.obj
 0002:001ed75c       __real@43340000            00000001802d475c     main.obj
 0002:001ed760       __real@43480000            00000001802d4760     main.obj
 0002:001ed764       __real@434c0000            00000001802d4764     imgui_widgets.obj
 0002:001ed768       __real@43510000            00000001802d4768     imgui_widgets.obj
 0002:001ed76c       __real@437a0000            00000001802d476c     imgui_widgets.obj
 0002:001ed770       __real@437b0000            00000001802d4770     imgui_widgets.obj
 0002:001ed774       __real@437f0000            00000001802d4774     main.obj
 0002:001ed778       __real@43960000            00000001802d4778     main.obj
 0002:001ed77c       __real@43af0000            00000001802d477c     main.obj
 0002:001ed780       __real@43b40000            00000001802d4780     main.obj
 0002:001ed784       __real@43c80000            00000001802d4784     main.obj
 0002:001ed788       __real@43e0000000000000    00000001802d4788     imgui_widgets.obj
 0002:001ed790       __real@43e98784            00000001802d4790     imgui_draw.obj
 0002:001ed794       __real@43fa0000            00000001802d4794     main.obj
 0002:001ed798       __real@44110000            00000001802d4798     main.obj
 0002:001ed79c       __real@44160000            00000001802d479c     main.obj
 0002:001ed7a0       __real@441b0000            00000001802d47a0     main.obj
 0002:001ed7a4       __real@44333333            00000001802d47a4     imgui_freetype.obj
 0002:001ed7a8       __real@445e8000            00000001802d47a8     main.obj
 0002:001ed7ac       __real@4464c000            00000001802d47ac     main.obj
 0002:001ed7b0       __real@44674000            00000001802d47b0     main.obj
 0002:001ed7b4       __real@447a0000            00000001802d47b4     main.obj
 0002:001ed7b8       __real@44a72000            00000001802d47b8     main.obj
 0002:001ed7bc       __real@44b33333            00000001802d47bc     imgui_freetype.obj
 0002:001ed7c0       __real@44fa0000            00000001802d47c0     main.obj
 0002:001ed7c4       __real@45034000            00000001802d47c4     main.obj
 0002:001ed7c8       __real@451c4000            00000001802d47c8     main.obj
 0002:001ed7cc       __real@45333333            00000001802d47cc     imgui_freetype.obj
 0002:001ed7d0       __real@453b8000            00000001802d47d0     main.obj
 0002:001ed7d4       __real@47ef4200            00000001802d47d4     main.obj
 0002:001ed7d8       __real@47efffffe0000000    00000001802d47d8     imgui_widgets.obj
 0002:001ed7e0       __real@49742400            00000001802d47e0     main.obj
 0002:001ed7e4       __real@5f000000            00000001802d47e4     imgui_widgets.obj
 0002:001ed7e8       __real@7f7fffff            00000001802d47e8     imgui_widgets.obj
 0002:001ed7f0       __real@7fefffffffffffff    00000001802d47f0     rpc_connection.obj
 0002:001ed7f8       __real@b8285148            00000001802d47f8     imgui_impl_win32.obj
 0002:001ed7fc       __real@bb83126f            00000001802d47fc     main.obj
 0002:001ed800       __real@bba3d70a            00000001802d4800     main.obj
 0002:001ed804       __real@bc088889            00000001802d4804     imgui_impl_win32.obj
 0002:001ed808       __real@bdcccccd            00000001802d4808     main.obj
 0002:001ed80c       __real@be4ccccd            00000001802d480c     main.obj
 0002:001ed810       __real@beaaaaab            00000001802d4810     imgui.obj
 0002:001ed814       __real@becccccd            00000001802d4814     imgui_draw.obj
 0002:001ed818       __real@beffbe77            00000001802d4818     main.obj
 0002:001ed81c       __real@bf000000            00000001802d481c     imgui_widgets.obj
 0002:001ed820       __real@bf400000            00000001802d4820     imgui_draw.obj
 0002:001ed824       __real@bf5db22d            00000001802d4824     imgui_draw.obj
 0002:001ed828       __real@bf800000            00000001802d4828     imgui.obj
 0002:001ed830       __real@c000000000000000    00000001802d4830     discord_rpc.obj
 0002:001ed838       __real@c1000000            00000001802d4838     imgui_widgets.obj
 0002:001ed83c       __real@c1700000            00000001802d483c     imgui_widgets.obj
 0002:001ed840       __real@c1f00000            00000001802d4840     imgui_widgets.obj
 0002:001ed844       __real@c2b40004            00000001802d4844     main.obj
 0002:001ed848       __real@c2c80000            00000001802d4848     imgui_widgets.obj
 0002:001ed84c       __real@c2d8000d            00000001802d484c     main.obj
 0002:001ed850       __real@c2e52ee6            00000001802d4850     main.obj
 0002:001ed854       __real@c3b40000            00000001802d4854     main.obj
 0002:001ed858       __real@c87a0000            00000001802d4858     imgui.obj
 0002:001ed85c       __real@ff7fffff            00000001802d485c     imgui.obj
 0002:001ed860       __real@ffefffffffffffff    00000001802d4860     imgui_widgets.obj
 0002:001ed870       __xmm@00000000000000020000000300000001 00000001802d4870     imgui.obj
 0002:001ed880       __xmm@00000000000000070000000000000000 00000001802d4880     main.obj
 0002:001ed890       __xmm@00000000000000080000000100000000 00000001802d4890     imgui_impl_dx11.obj
 0002:001ed8a0       __xmm@000000000000000f0000000000000000 00000001802d48a0     main.obj
 0002:001ed8b0       __xmm@00000000000001000000000000000000 00000001802d48b0     rpc_connection.obj
 0002:001ed8c0       __xmm@00000001000000010000000100000015 00000001802d48c0     imgui_impl_dx11.obj
 0002:001ed8d0       __xmm@00000006000000020000000100000006 00000001802d48d0     imgui_impl_dx11.obj
 0002:001ed8e0       __xmm@000002020000020e0000020d0000020c 00000001802d48e0     imgui.obj
 0002:001ed8f0       __xmm@0000026e0000026d0000026b0000026c 00000001802d48f0     imgui.obj
 0002:001ed900       __xmm@00000272000002710000026f00000270 00000001802d4900     imgui.obj
 0002:001ed910       __xmm@3b8080813b8080813b8080813b808081 00000001802d4910     imgui_widgets.obj
 0002:001ed920       __xmm@3b8080813f800000000000003f800000 00000001802d4920     imgui.obj
 0002:001ed930       __xmm@3f1191923d9898993d8888893d888889 00000001802d4930     imgui.obj
 0002:001ed940       __xmm@3f48c8ca3d8080813d60e0e23d60e0e2 00000001802d4940     main.obj
 0002:001ed950       __xmm@3f66e6e83d1090913ce0e0e23ce0e0e2 00000001802d4950     main.obj
 0002:001ed960       __xmm@3f66e6e83d30b0b13d1090913d109091 00000001802d4960     main.obj
 0002:001ed970       __xmm@3f800000000000000000000000000000 00000001802d4970     main.obj
 0002:001ed980       __xmm@3f80000000000000000000003f800000 00000001802d4980     main.obj
 0002:001ed990       __xmm@3f800000000000003f57d7d93f800000 00000001802d4990     main.obj
 0002:001ed9a0       __xmm@3f800000000000003f80000000000000 00000001802d49a0     main.obj
 0002:001ed9b0       __xmm@3f8000003d1090913ce0e0e23ce0e0e2 00000001802d49b0     main.obj
 0002:001ed9c0       __xmm@3f8000003d9090913da0a0a13d909091 00000001802d49c0     main.obj
 0002:001ed9d0       __xmm@3f8000003d9898993d8080813d808081 00000001802d49d0     main.obj
 0002:001ed9e0       __xmm@3f8000003d9898993d8888893d808081 00000001802d49e0     main.obj
 0002:001ed9f0       __xmm@3f8000003d9898993d8888893d888889 00000001802d49f0     main.obj
 0002:001eda00       __xmm@3f8000003d9898993e8a8a8b3f0b8b8c 00000001802d4a00     main.obj
 0002:001eda10       __xmm@3f8000003dd0d0d23dc0c0c23db0b0b1 00000001802d4a10     main.obj
 0002:001eda20       __xmm@3f8000003dd0d0d23dc0c0c23dc0c0c2 00000001802d4a20     main.obj
 0002:001eda30       __xmm@3f8000003de8e8ea3dd8d8da3dd0d0d2 00000001802d4a30     main.obj
 0002:001eda40       __xmm@3f8000003df8f8fa3dd8d8da3dd0d0d2 00000001802d4a40     main.obj
 0002:001eda50       __xmm@3f8000003e0080813e48c8ca3b808081 00000001802d4a50     main.obj
 0002:001eda60       __xmm@3f8000003e0484853e8888893b808081 00000001802d4a60     main.obj
 0002:001eda70       __xmm@3f8000003e0c8c8d3f0e8e8f3ed6d6d8 00000001802d4a70     main.obj
 0002:001eda80       __xmm@3f8000003e1090913e0888893e088889 00000001802d4a80     main.obj
 0002:001eda90       __xmm@3f8000003e3cbcbd3f8000003f2dadae 00000001802d4a90     main.obj
 0002:001edaa0       __xmm@3f8000003e48c8ca3f4dcdcf3e48c8ca 00000001802d4aa0     main.obj
 0002:001edab0       __xmm@3f8000003e9696973e8888893e848485 00000001802d4ab0     main.obj
 0002:001edac0       __xmm@3f8000003e9a9a9b3f0888893f800000 00000001802d4ac0     main.obj
 0002:001edad0       __xmm@3f8000003eaeaeaf3f0b8b8c3e38b8b9 00000001802d4ad0     main.obj
 0002:001edae0       __xmm@3f8000003ec0c0c23f24a4a53f74f4f6 00000001802d4ae0     main.obj
 0002:001edaf0       __xmm@3f8000003ee6e6e83ed8d8da3ed4d4d6 00000001802d4af0     main.obj
 0002:001edb00       __xmm@3f8000003f0080813f0080813f008081 00000001802d4b00     main.obj
 0002:001edb10       __xmm@3f8000003f0b8b8c0000000000000000 00000001802d4b10     main.obj
 0002:001edb20       __xmm@3f8000003f0b8b8c000000003f0b8b8c 00000001802d4b20     main.obj
 0002:001edb30       __xmm@3f8000003f0b8b8c3f0b8b8c00000000 00000001802d4b30     main.obj
 0002:001edb40       __xmm@3f8000003f0f8f903f0f8f903f3cbcbd 00000001802d4b40     main.obj
 0002:001edb50       __xmm@3f8000003f19999a3f0888893eeeeef0 00000001802d4b50     main.obj
 0002:001edb60       __xmm@3f8000003f1b9b9c3f1494953f129293 00000001802d4b60     main.obj
 0002:001edb70       __xmm@3f8000003f46c6c83ed2d2d43ea2a2a3 00000001802d4b70     main.obj
 0002:001edb80       __xmm@3f8000003f48c8ca3f48c8ca3f48c8ca 00000001802d4b80     main.obj
 0002:001edb90       __xmm@3f8000003f62e2e43e2cacad3f0a8a8b 00000001802d4b90     main.obj
 0002:001edba0       __xmm@3f8000003f66e6e83f58d8da3f2dadae 00000001802d4ba0     main.obj
 0002:001edbb0       __xmm@3f8000003f8000000000000000000000 00000001802d4bb0     main.obj
 0002:001edbc0       __xmm@3f8000003f8000003ea0a0a100000000 00000001802d4bc0     main.obj
 0002:001edbd0       __xmm@3f8000003f8000003f8000003f60e0e2 00000001802d4bd0     main.obj
 0002:001edbe0       __xmm@3f8000003f8000003f8000003f800000 00000001802d4be0     main.obj
 0002:001edbf0       __xmm@3ff00000000000000000000000000000 00000001802d4bf0     discord_rpc.obj
 0002:001edc00       __xmm@437f00000000000000000000437f0000 00000001802d4c00     main.obj
 0002:001edc10       __xmm@437f00000000000043370000437f0000 00000001802d4c10     main.obj
 0002:001edc20       __xmm@437f000000000000437f000000000000 00000001802d4c20     main.obj
 0002:001edc30       __xmm@437f000000000000437f0000437f0000 00000001802d4c30     main.obj
 0002:001edc40       __xmm@437f000042c800000000000042c80000 00000001802d4c40     main.obj
 0002:001edc50       __xmm@437f000042fe000042fe0000437e0000 00000001802d4c50     main.obj
 0002:001edc60       __xmm@437f00004300000043000000437f0000 00000001802d4c60     main.obj
 0002:001edc70       __xmm@437f000043000000435f0000437f0000 00000001802d4c70     main.obj
 0002:001edc80       __xmm@437f000043000000437f000043560000 00000001802d4c80     main.obj
 0002:001edc90       __xmm@437f000043180000437f000043000000 00000001802d4c90     main.obj
 0002:001edca0       __xmm@437f00004370000043000000437f0000 00000001802d4ca0     main.obj
 0002:001edcb0       __xmm@437f000043740000437f000043000000 00000001802d4cb0     main.obj
 0002:001edcc0       __xmm@437f0000437f000043000000432e0000 00000001802d4cc0     main.obj
 0002:001edcd0       __xmm@437f0000437f00004314000043000000 00000001802d4cd0     main.obj
 0002:001edce0       __xmm@437f0000437f0000431d000000000000 00000001802d4ce0     main.obj
 0002:001edcf0       __xmm@437f0000437f0000434d000043000000 00000001802d4cf0     main.obj
 0002:001edd00       __xmm@437f0000437f0000437f0000437f0000 00000001802d4d00     main.obj
 0002:001edd10       __xmm@7fffffff7fffffff7fffffff7fffffff 00000001802d4d10     main.obj
 0002:001edd20       __xmm@80000000000000008000000000000000 00000001802d4d20     rpc_connection.obj
 0002:001edd30       __xmm@80000000800000008000000080000000 00000001802d4d30     main.obj
 0002:001edd40       __xmm@ff7fffffff7fffff7f7fffff7f7fffff 00000001802d4d40     imgui.obj
 0002:001eddb0       _load_config_used          00000001802d4db0     MSVCRT:loadcfg.obj
 0002:001edf80       _tls_used                  00000001802d4f80     MSVCRT:tlssup.obj
 0002:001edfa8       ??_R4type_info@@6B@        00000001802d4fa8     MSVCRT:std_type_info_static.obj
 0002:001edfd0       ??_R3type_info@@8          00000001802d4fd0     MSVCRT:std_type_info_static.obj
 0002:001edfe8       ??_R2type_info@@8          00000001802d4fe8     MSVCRT:std_type_info_static.obj
 0002:001edff8       ??_R1A@?0A@EA@type_info@@8 00000001802d4ff8     MSVCRT:std_type_info_static.obj
 0002:001ee020       ??_R4exception@std@@6B@    00000001802d5020     Base64.obj
 0002:001ee048       ??_R2bad_array_new_length@std@@8 00000001802d5048     Base64.obj
 0002:001ee068       ??_R2bad_alloc@std@@8      00000001802d5068     Base64.obj
 0002:001ee080       ??_R1A@?0A@EA@exception@std@@8 00000001802d5080     Base64.obj
 0002:001ee0a8       ??_R1A@?0A@EA@bad_alloc@std@@8 00000001802d50a8     Base64.obj
 0002:001ee0d0       ??_R2exception@std@@8      00000001802d50d0     Base64.obj
 0002:001ee0e0       ??_R3exception@std@@8      00000001802d50e0     Base64.obj
 0002:001ee0f8       ??_R4bad_alloc@std@@6B@    00000001802d50f8     Base64.obj
 0002:001ee120       ??_R3bad_array_new_length@std@@8 00000001802d5120     Base64.obj
 0002:001ee138       ??_R3bad_alloc@std@@8      00000001802d5138     Base64.obj
 0002:001ee150       ??_R4bad_array_new_length@std@@6B@ 00000001802d5150     Base64.obj
 0002:001ee178       ??_R1A@?0A@EA@bad_array_new_length@std@@8 00000001802d5178     Base64.obj
 0002:001ee1a0       ??_R2system_error@std@@8   00000001802d51a0     main.obj
 0002:001ee1c8       ??_R1A@?0A@EA@system_error@std@@8 00000001802d51c8     main.obj
 0002:001ee1f0       ??_R2CAtlStringMgr@ATL@@8  00000001802d51f0     main.obj
 0002:001ee208       ??_R1A@?0A@EA@?$_Ref_count_obj2@U_Recursive_dir_enum_impl@filesystem@std@@@std@@8 00000001802d5208     main.obj
 0002:001ee230       ??_R3IAtlStringMgr@ATL@@8  00000001802d5230     main.obj
 0002:001ee248       ??_R4runtime_error@std@@6B@ 00000001802d5248     main.obj
 0002:001ee270       ??_R2CWin32Heap@ATL@@8     00000001802d5270     main.obj
 0002:001ee288       ??_R4_System_error_category@std@@6B@ 00000001802d5288     main.obj
 0002:001ee2b0       ??_R4_System_error@std@@6B@ 00000001802d52b0     main.obj
 0002:001ee2d8       ??_R4CAtlStringMgr@ATL@@6B@ 00000001802d52d8     main.obj
 0002:001ee300       ??_R1A@?0A@EA@_Ref_count_base@std@@8 00000001802d5300     main.obj
 0002:001ee328       ??_R4_Generic_error_category@std@@6B@ 00000001802d5328     main.obj
 0002:001ee350       ??_R1A@?0A@EA@runtime_error@std@@8 00000001802d5350     main.obj
 0002:001ee378       ??_R2_System_error@std@@8  00000001802d5378     main.obj
 0002:001ee398       ??_R2IAtlStringMgr@ATL@@8  00000001802d5398     main.obj
 0002:001ee3a8       ??_R3CWin32Heap@ATL@@8     00000001802d53a8     main.obj
 0002:001ee3c0       ??_R3?$_Ref_count_obj2@U_Recursive_dir_enum_impl@filesystem@std@@@std@@8 00000001802d53c0     main.obj
 0002:001ee3d8       ??_R3CAtlStringMgr@ATL@@8  00000001802d53d8     main.obj
 0002:001ee3f0       ??_R4system_error@std@@6B@ 00000001802d53f0     main.obj
 0002:001ee418       ??_R1A@?0A@EA@_Generic_error_category@std@@8 00000001802d5418     main.obj
 0002:001ee440       ??_R2IAtlMemMgr@ATL@@8     00000001802d5440     main.obj
 0002:001ee450       ??_R3_System_error@std@@8  00000001802d5450     main.obj
 0002:001ee468       ??_R2_System_error_category@std@@8 00000001802d5468     main.obj
 0002:001ee480       ??_R3_Generic_error_category@std@@8 00000001802d5480     main.obj
 0002:001ee498       ??_R4CWin32Heap@ATL@@6B@   00000001802d5498     main.obj
 0002:001ee4c0       ??_R2error_category@std@@8 00000001802d54c0     main.obj
 0002:001ee4d0       ??_R1A@?0A@EA@CWin32Heap@ATL@@8 00000001802d54d0     main.obj
 0002:001ee4f8       ??_R3IAtlMemMgr@ATL@@8     00000001802d54f8     main.obj
 0002:001ee510       ??_R2_Generic_error_category@std@@8 00000001802d5510     main.obj
 0002:001ee528       ??_R1A@?0A@EA@_System_error@std@@8 00000001802d5528     main.obj
 0002:001ee550       ??_R3error_category@std@@8 00000001802d5550     main.obj
 0002:001ee568       ??_R3filesystem_error@filesystem@std@@8 00000001802d5568     main.obj
 0002:001ee580       ??_R3_System_error_category@std@@8 00000001802d5580     main.obj
 0002:001ee598       ??_R1A@?0A@EA@IAtlStringMgr@ATL@@8 00000001802d5598     main.obj
 0002:001ee5c0       ??_R3_Ref_count_base@std@@8 00000001802d55c0     main.obj
 0002:001ee5d8       ??_R2filesystem_error@filesystem@std@@8 00000001802d55d8     main.obj
 0002:001ee608       ??_R2runtime_error@std@@8  00000001802d5608     main.obj
 0002:001ee620       ??_R2_Ref_count_base@std@@8 00000001802d5620     main.obj
 0002:001ee630       ??_R1A@?0A@EA@IAtlMemMgr@ATL@@8 00000001802d5630     main.obj
 0002:001ee658       ??_R3system_error@std@@8   00000001802d5658     main.obj
 0002:001ee670       ??_R1A@?0A@EA@filesystem_error@filesystem@std@@8 00000001802d5670     main.obj
 0002:001ee698       ??_R1A@?0A@EA@CAtlStringMgr@ATL@@8 00000001802d5698     main.obj
 0002:001ee6c0       ??_R1A@?0A@EA@_System_error_category@std@@8 00000001802d56c0     main.obj
 0002:001ee6e8       ??_R2?$_Ref_count_obj2@U_Recursive_dir_enum_impl@filesystem@std@@@std@@8 00000001802d56e8     main.obj
 0002:001ee700       ??_R3runtime_error@std@@8  00000001802d5700     main.obj
 0002:001ee718       ??_R4?$_Ref_count_obj2@U_Recursive_dir_enum_impl@filesystem@std@@@std@@6B@ 00000001802d5718     main.obj
 0002:001ee740       ??_R1A@?0A@EA@error_category@std@@8 00000001802d5740     main.obj
 0002:001ee768       ??_R4filesystem_error@filesystem@std@@6B@ 00000001802d5768     main.obj
 0002:001ee78c       __volatile_metadata        00000001802d578c     <linker-defined>
 0002:001eed20       __rtc_iaa                  00000001802d5d20     MSVCRT:initsect.obj
 0002:001eed28       __rtc_izz                  00000001802d5d28     MSVCRT:initsect.obj
 0002:001eed30       __rtc_taa                  00000001802d5d30     MSVCRT:initsect.obj
 0002:001eed38       __rtc_tzz                  00000001802d5d38     MSVCRT:initsect.obj
 0002:001eed40       _tls_start                 00000001802d5d40     MSVCRT:tlssup.obj
 0002:001eed44       _Init_thread_epoch         00000001802d5d44     MSVCRT:thread_safe_statics.obj
 0002:001eed48       _tls_end                   00000001802d5d48     MSVCRT:tlssup.obj
 0002:001f8fe8       _TI2?AVbad_alloc@std@@     00000001802dffe8     MSVCRT:throw_bad_alloc.obj
 0002:001f9008       _CTA2?AVbad_alloc@std@@    00000001802e0008     MSVCRT:throw_bad_alloc.obj
 0002:001f9020       _CTA3?AVbad_array_new_length@std@@ 00000001802e0020     Base64.obj
 0002:001f9040       _CT??_R0?AVbad_array_new_length@std@@@8??0bad_array_new_length@std@@QEAA@AEBV01@@Z24 00000001802e0040     Base64.obj
 0002:001f9068       _CT??_R0?AVbad_alloc@std@@@8??0bad_alloc@std@@QEAA@AEBV01@@Z24 00000001802e0068     Base64.obj
 0002:001f9090       _CT??_R0?AVexception@std@@@8??0exception@std@@QEAA@AEBV01@@Z24 00000001802e0090     Base64.obj
 0002:001f90b8       _TI3?AVbad_array_new_length@std@@ 00000001802e00b8     Base64.obj
 0002:001f90d8       _TI4?AVsystem_error@std@@  00000001802e00d8     main.obj
 0002:001f90f8       _CT??_R0?AVfilesystem_error@filesystem@std@@@8??0filesystem_error@filesystem@std@@QEAA@AEBV012@@Z136 00000001802e00f8     main.obj
 0002:001f9120       _CT??_R0?AVsystem_error@std@@@8??0system_error@std@@QEAA@AEBV01@@Z40 00000001802e0120     main.obj
 0002:001f9148       _TI5?AVfilesystem_error@filesystem@std@@ 00000001802e0148     main.obj
 0002:001f9168       _CTA4?AVsystem_error@std@@ 00000001802e0168     main.obj
 0002:001f9190       _CT??_R0?AVruntime_error@std@@@8??0runtime_error@std@@QEAA@AEBV01@@Z24 00000001802e0190     main.obj
 0002:001f91b8       _CT??_R0?AV_System_error@std@@@8??0_System_error@std@@QEAA@AEBV01@@Z40 00000001802e01b8     main.obj
 0002:001f91e0       _CTA5?AVfilesystem_error@filesystem@std@@ 00000001802e01e0     main.obj
 0002:001f9210       __IMPORT_DESCRIPTOR_KERNEL32 00000001802e0210     kernel32:KERNEL32.dll
 0002:001f9224       __IMPORT_DESCRIPTOR_USER32 00000001802e0224     user32:USER32.dll
 0002:001f9238       __IMPORT_DESCRIPTOR_ADVAPI32 00000001802e0238     advapi32:ADVAPI32.dll
 0002:001f924c       __IMPORT_DESCRIPTOR_MSVCP140 00000001802e024c     msvcprt:MSVCP140.dll
 0002:001f9260       __IMPORT_DESCRIPTOR_d3d11  00000001802e0260     d3d11:d3d11.dll
 0002:001f9274       __IMPORT_DESCRIPTOR_d3dx11_43 00000001802e0274     d3dx11:d3dx11_43.dll
 0002:001f9288       __IMPORT_DESCRIPTOR_urlmon 00000001802e0288     Urlmon:urlmon.dll
 0002:001f929c       __IMPORT_DESCRIPTOR_WINMM  00000001802e029c     winmm:WINMM.dll
 0002:001f92b0       __IMPORT_DESCRIPTOR_ntdll  00000001802e02b0     ntdll:ntdll.dll
 0002:001f92c4       __IMPORT_DESCRIPTOR_IMM32  00000001802e02c4     imm32:IMM32.dll
 0002:001f92d8       __IMPORT_DESCRIPTOR_D3DCOMPILER_43 00000001802e02d8     d3dcompiler:D3DCOMPILER_43.dll
 0002:001f92ec       __IMPORT_DESCRIPTOR_VCRUNTIME140 00000001802e02ec     vcruntime:VCRUNTIME140.dll
 0002:001f9300       __IMPORT_DESCRIPTOR_VCRUNTIME140_1 00000001802e0300     vcruntime:VCRUNTIME140_1.dll
 0002:001f9314       __IMPORT_DESCRIPTOR_api-ms-win-crt-stdio-l1-1-0 00000001802e0314     ucrt:api-ms-win-crt-stdio-l1-1-0.dll
 0002:001f9328       __IMPORT_DESCRIPTOR_api-ms-win-crt-filesystem-l1-1-0 00000001802e0328     ucrt:api-ms-win-crt-filesystem-l1-1-0.dll
 0002:001f933c       __IMPORT_DESCRIPTOR_api-ms-win-crt-runtime-l1-1-0 00000001802e033c     ucrt:api-ms-win-crt-runtime-l1-1-0.dll
 0002:001f9350       __IMPORT_DESCRIPTOR_api-ms-win-crt-time-l1-1-0 00000001802e0350     ucrt:api-ms-win-crt-time-l1-1-0.dll
 0002:001f9364       __IMPORT_DESCRIPTOR_api-ms-win-crt-heap-l1-1-0 00000001802e0364     ucrt:api-ms-win-crt-heap-l1-1-0.dll
 0002:001f9378       __IMPORT_DESCRIPTOR_api-ms-win-crt-utility-l1-1-0 00000001802e0378     ucrt:api-ms-win-crt-utility-l1-1-0.dll
 0002:001f938c       __IMPORT_DESCRIPTOR_api-ms-win-crt-convert-l1-1-0 00000001802e038c     ucrt:api-ms-win-crt-convert-l1-1-0.dll
 0002:001f93a0       __IMPORT_DESCRIPTOR_api-ms-win-crt-string-l1-1-0 00000001802e03a0     ucrt:api-ms-win-crt-string-l1-1-0.dll
 0002:001f93b4       __IMPORT_DESCRIPTOR_api-ms-win-crt-locale-l1-1-0 00000001802e03b4     ucrt:api-ms-win-crt-locale-l1-1-0.dll
 0002:001f93c8       __IMPORT_DESCRIPTOR_api-ms-win-crt-math-l1-1-0 00000001802e03c8     ucrt:api-ms-win-crt-math-l1-1-0.dll
 0002:001f93dc       __NULL_IMPORT_DESCRIPTOR   00000001802e03dc     kernel32:KERNEL32.dll
 0003:00000000       _Init_global_epoch         00000001802e2000     MSVCRT:thread_safe_statics.obj
 0003:00000004       __scrt_native_dllmain_reason 00000001802e2004     MSVCRT:utility.obj
 0003:00000040       __security_cookie          00000001802e2040     MSVCRT:gs_cookie.obj
 0003:00000080       __security_cookie_complement 00000001802e2080     MSVCRT:gs_cookie.obj
 0003:00000088       __isa_inverted             00000001802e2088     MSVCRT:cpu_disp.obj
 0003:00000090       __isa_available            00000001802e2090     MSVCRT:cpu_disp.obj
 0003:00000094       __isa_enabled              00000001802e2094     MSVCRT:cpu_disp.obj
 0003:00000098       __memset_fast_string_threshold 00000001802e2098     MSVCRT:cpu_disp.obj
 0003:000000a0       __memset_nt_threshold      00000001802e20a0     MSVCRT:cpu_disp.obj
 0003:000000a8       _fltused                   00000001802e20a8     MSVCRT:fltused.obj
 0003:000000b0       __scrt_ucrt_dll_is_in_use  00000001802e20b0     MSVCRT:ucrt_stubs.obj
 0003:000000c0       ?crossbow@@3PAEA           00000001802e20c0     main.obj
 0003:00000b4d       ?colorcheck@distance_@players@VarSs@@3_NA 00000001802e2b4d     main.obj
 0003:00000b4e       ?outline@distance_@players@VarSs@@3_NA 00000001802e2b4e     main.obj
 0003:00000b4f       ?colorcheck@weapon_@players@VarSs@@3_NA 00000001802e2b4f     main.obj
 0003:00000b50       ?waterpipe@@3PAEA          00000001802e2b50     main.obj
 0003:000013cf       ?outline@weapon_@players@VarSs@@3_NA 00000001802e33cf     main.obj
 0003:000013d0       ?Combat@@3PAEA             00000001802e33d0     main.obj
 0003:00001563       ?colorcheck@name_@players@VarSs@@3_NA 00000001802e3563     main.obj
 0003:00001564       ?outline@name_@players@VarSs@@3_NA 00000001802e3564     main.obj
 0003:00001565       ?colorcheck@box_@players@VarSs@@3_NA 00000001802e3565     main.obj
 0003:00001566       ?colorcheck@skeleton_@players@VarSs@@3_NA 00000001802e3566     main.obj
 0003:00001567       ?autoshoot_power_shoot@combat@VarSs@@3_NA 00000001802e3567     main.obj
 0003:00001568       ?ignore_npc@combat@VarSs@@3_NA 00000001802e3568     main.obj
 0003:00001569       ?visualize_fov@combat@VarSs@@3_NA 00000001802e3569     main.obj
 0003:0000156a       ?ignore_team@combat@VarSs@@3_NA 00000001802e356a     main.obj
 0003:0000156b       ?outline_font@stuff@VarSs@@3_NA 00000001802e356b     main.obj
 0003:0000156c       ?font@healthbar_@players@VarSs@@3HA 00000001802e356c     main.obj
 0003:00001570       ?nailgun@@3PAEA            00000001802e3570     main.obj
 0003:00002254       ?font@weapon_@players@VarSs@@3HA 00000001802e4254     main.obj
 0003:00002258       ?font@name_@players@VarSs@@3HA 00000001802e4258     main.obj
 0003:0000225c       ?range@radar@visuals@VarSs@@3MA 00000001802e425c     main.obj
 0003:00002260       ?huntingbow@@3PAEA         00000001802e4260     main.obj
 0003:00002c10       ?shotguntrap@@3PAEA        00000001802e4c10     main.obj
 0003:00002cf0       ?spwooden@@3PAEA           00000001802e4cf0     main.obj
 0003:000037c0       ?circle_error@@3PAEA       00000001802e57c0     main.obj
 0003:00004960       ?eoka@@3PAEA               00000001802e6960     main.obj
 0003:0000b630       ?revolver@@3PAEA           00000001802ed630     main.obj
 0003:0000c1d0       ?input_widget@@3PAEA       00000001802ee1d0     main.obj
 0003:0000c420       ?rowboat@@3PAEA            00000001802ee420     main.obj
 0003:0000c4f0       ?samsite@@3PAEA            00000001802ee4f0     main.obj
 0003:0000c5e0       ?menu_settings_icon@@3PAEA 00000001802ee5e0     main.obj
 0003:0000f8b0       ?medicalsyringe@@3PAEA     00000001802f18b0     main.obj
 0003:00016410       ?inter_bold@@3PAEA         00000001802f8410     main.obj
 0003:000636e0       ?bear@@3PAEA               00000001803456e0     main.obj
 0003:00063830       ?thompson@@3PAEA           0000000180345830     main.obj
 0003:00064240       ?m92@@3PAEA                0000000180346240     main.obj
 0003:00064b10       ?m39@@3PAEA                0000000180346b10     main.obj
 0003:000653e0       ?elitecrate@@3PAEA         00000001803473e0     main.obj
 0003:00065670       ?aimbot@@3PAEA             0000000180347670     main.obj
 0003:000658c0       ?circle_success@@3PAEA     00000001803478c0     main.obj
 0003:00066880       ?boltactionrifle@@3PAEA    0000000180348880     main.obj
 0003:000670d0       ?rock@@3PAEA               00000001803490d0     main.obj
 0003:00067f28       ?GrFillBox_Color1@visible@VarSs@@3PAMA 0000000180349f28     main.obj
 0003:00067f38       ?box_color@visible@VarSs@@3PAMA 0000000180349f38     main.obj
 0003:00067f48       ?GrFillBox_Color2@visible@VarSs@@3PAMA 0000000180349f48     main.obj
 0003:00067f58       ?vis_fl_pl@colors@VarSs@@3UImVec4@@A 0000000180349f58     main.obj
 0003:00067f68       ?DamascusGradient1_pl@colors@VarSs@@3UImVec4@@A 0000000180349f68     main.obj
 0003:00067f78       ?glow@colors@VarSs@@3UImVec4@@A 0000000180349f78     main.obj
 0003:00067f88       ?DamascusColor1@colors@VarSs@@3UImVec4@@A 0000000180349f88     main.obj
 0003:00067f98       ?glow_pl@colors@VarSs@@3UImVec4@@A 0000000180349f98     main.obj
 0003:00067fa8       ?sapphire_color2@colors@VarSs@@3PAMA 0000000180349fa8     main.obj
 0003:00067fb8       ?hitmarker@colors@VarSs@@3UImVec4@@A 0000000180349fb8     main.obj
 0003:00067fc8       ?cross2_color@colors@VarSs@@3PAMA 0000000180349fc8     main.obj
 0003:00067fd8       ?DamascusPattern1@colors@VarSs@@3UImVec4@@A 0000000180349fd8     main.obj
 0003:00067fe8       ?DamascusColor2_pl@colors@VarSs@@3UImVec4@@A 0000000180349fe8     main.obj
 0003:00067ff8       ?ambient_color@colors@VarSs@@3UImVec4@@A 0000000180349ff8     main.obj
 0003:00068008       ?angle_arrow@colors@VarSs@@3UImVec4@@A 000000018034a008     main.obj
 0003:00068018       ?marker@colors@VarSs@@3UImVec4@@A 000000018034a018     main.obj
 0003:00068028       ?holo@colors@VarSs@@3UImVec4@@A 000000018034a028     main.obj
 0003:00068038       ?plasma@colors@VarSs@@3UImVec4@@A 000000018034a038     main.obj
 0003:00068048       ?visible@colors@VarSs@@3UImVec4@@A 000000018034a048     main.obj
 0003:00068058       ?hand_chams@colors@VarSs@@3UImVec4@@A 000000018034a058     main.obj
 0003:00068068       ?vis_pl2@colors@VarSs@@3UImVec4@@A 000000018034a068     main.obj
 0003:00068078       ?beh_pl2@colors@VarSs@@3UImVec4@@A 000000018034a078     main.obj
 0003:00068088       ?light_pl@colors@VarSs@@3UImVec4@@A 000000018034a088     main.obj
 0003:00068098       ?two_color@colors@VarSs@@3UImVec4@@A 000000018034a098     main.obj
 0003:000680a8       ?vis_pl@colors@VarSs@@3UImVec4@@A 000000018034a0a8     main.obj
 0003:000680b8       ?local_bones@colors@VarSs@@3UImVec4@@A 000000018034a0b8     main.obj
 0003:000680c8       ?player_circles_color@colors@VarSs@@3UImVec4@@A 000000018034a0c8     main.obj
 0003:000680d8       ?MarkColor@colors@VarSs@@3UImVec4@@A 000000018034a0d8     main.obj
 0003:000680e8       ?LightingColor_pl@colors@VarSs@@3UImVec4@@A 000000018034a0e8     main.obj
 0003:000680f8       ?MenuColor@colors@VarSs@@3UImVec4@@A 000000018034a0f8     main.obj
 0003:00068108       ?weapon_color_player@colors@VarSs@@3PAMA 000000018034a108     main.obj
 0003:00068118       ?one_color@colors@VarSs@@3UImVec4@@A 000000018034a118     main.obj
 0003:00068128       ?DamascusColor1_pl@colors@VarSs@@3UImVec4@@A 000000018034a128     main.obj
 0003:00068138       ?DamascusGradient1@colors@VarSs@@3UImVec4@@A 000000018034a138     main.obj
 0003:00068148       ?beh_fl_pl@colors@VarSs@@3UImVec4@@A 000000018034a148     main.obj
 0003:00068158       ?Boxviscol@colors@VarSs@@3UImVec4@@A 000000018034a158     main.obj
 0003:00068168       ?colsphere@colors@VarSs@@3UImVec4@@A 000000018034a168     main.obj
 0003:00068178       ?celoutline@colors@VarSs@@3UImVec4@@A 000000018034a178     main.obj
 0003:00068188       ?fill_col@colors@VarSs@@3UImVec4@@A 000000018034a188     main.obj
 0003:00068198       ?DamascusColor2@colors@VarSs@@3UImVec4@@A 000000018034a198     main.obj
 0003:000681a8       ?sky_color@colors@VarSs@@3UImVec4@@A 000000018034a1a8     main.obj
 0003:000681b8       ?damagemarker@colors@VarSs@@3UImVec4@@A 000000018034a1b8     main.obj
 0003:000681c8       ?beh_pl@colors@VarSs@@3UImVec4@@A 000000018034a1c8     main.obj
 0003:000681d8       ?angle_vector@colors@VarSs@@3UImVec4@@A 000000018034a1d8     main.obj
 0003:000681e8       ?LightingColor@colors@VarSs@@3UImVec4@@A 000000018034a1e8     main.obj
 0003:000681f8       ?vissphere@colors@VarSs@@3UImVec4@@A 000000018034a1f8     main.obj
 0003:00068208       ?name_distance_color_player@colors@VarSs@@3PAMA 000000018034a208     main.obj
 0003:00068218       ?PlayerLine@colors@VarSs@@3UImVec4@@A 000000018034a218     main.obj
 0003:00068228       ?FillColor2@colors@VarSs@@3PAMA 000000018034a228     main.obj
 0003:00068238       ?npc_box_color@colors@VarSs@@3PAMA 000000018034a238     main.obj
 0003:00068248       ?MPRadius@colors@VarSs@@3UImVec4@@A 000000018034a248     main.obj
 0003:00068258       ?invisible@colors@VarSs@@3UImVec4@@A 000000018034a258     main.obj
 0003:00068268       ?BTspheraCol@colors@VarSs@@3UImVec4@@A 000000018034a268     main.obj
 0003:00068278       ?ghost@colors@VarSs@@3UImVec4@@A 000000018034a278     main.obj
 0003:00068288       ?BulletLine@colors@VarSs@@3UImVec4@@A 000000018034a288     main.obj
 0003:00068298       ?sapphire_color@colors@VarSs@@3PAMA 000000018034a298     main.obj
 0003:000682a8       ?off_color@colors@VarSs@@3PAMA 000000018034a2a8     main.obj
 0003:000682b8       ?FillColor@colors@VarSs@@3PAMA 000000018034a2b8     main.obj
 0003:000682c8       ?player_chams2@colors@VarSs@@3UImVec4@@A 000000018034a2c8     main.obj
 0003:000682d8       ?swaston_color@colors@VarSs@@3UImVec4@@A 000000018034a2d8     main.obj
 0003:000682e8       ?FovCol@colors@VarSs@@3UImVec4@@A 000000018034a2e8     main.obj
 0003:000682f8       ?DamascusPattern1_pl@colors@VarSs@@3UImVec4@@A 000000018034a2f8     main.obj
 0003:00068308       ?BTboxCol@colors@VarSs@@3UImVec4@@A 000000018034a308     main.obj
 0003:00068318       ?target_tracers_color@colors@VarSs@@3PAMA 000000018034a318     main.obj
 0003:00068328       ?WorldEspColor@colors@VarSs@@3UImVec4@@A 000000018034a328     main.obj
 0003:00068338       ?CrossCol@colors@VarSs@@3UImVec4@@A 000000018034a338     main.obj
 0003:00068348       ?FovCol2@colors@VarSs@@3UImVec4@@A 000000018034a348     main.obj
 0003:00068358       ?cross_color@colors@VarSs@@3PAMA 000000018034a358     main.obj
 0003:00068368       ?player_chams@colors@VarSs@@3UImVec4@@A 000000018034a368     main.obj
 0003:00068378       ?wire_pl@colors@VarSs@@3UImVec4@@A 000000018034a378     main.obj
 0003:00068388       ?hand_chams2@colors@VarSs@@3UImVec4@@A 000000018034a388     main.obj
 0003:00068398       ?size@radar@visuals@VarSs@@3MA 000000018034a398     main.obj
 0003:0006839c       ?draw_distance@base@visuals@VarSs@@3MA 000000018034a39c     main.obj
 0003:000683a0       ?GrFillBox_Color1@npc@VarSs@@3PAMA 000000018034a3a0     main.obj
 0003:000683b0       ?GrFillBox_Color2@npc@VarSs@@3PAMA 000000018034a3b0     main.obj
 0003:000683c0       ?m249@@3PAEA               000000018034a3c0     main.obj
 0003:00068b50       ?stonenode@@3PAEA          000000018034ab50     main.obj
 0003:0006a0b0       ?horse@@3PAEA              000000018034c0b0     main.obj
 0003:0006a1d0       ?hemp@@3PAEA               000000018034c1d0     main.obj
 0003:0006bf10       ?c4@@3PAEA                 000000018034df10     main.obj
 0003:0006ccb0       ?spas12@@3PAEA             000000018034ecb0     main.obj
 0003:0006d350       ?p250@@3PAEA               000000018034f350     main.obj
 0003:0006dfc0       ?heal@@3PAEA               000000018034ffc0     main.obj
 0003:0006ed00       ?visuals@@3PAEA            0000000180350d00     main.obj
 0003:0006eef0       ?valid_bones@@3V?$array@H$0BE@@std@@A 0000000180350ef0     main.obj
 0003:0006ef40       ?sulfurnode@@3PAEA         0000000180350f40     main.obj
 0003:000701c0       ?bradleycrate@@3PAEA       00000001803521c0     main.obj
 0003:00070440       ?bandage@@3PAEA            0000000180352440     main.obj
 0003:00071010       ?autoturret@@3PAEA         0000000180353010     main.obj
 0003:000710f0       ?spstone@@3PAEA            00000001803530f0     main.obj
 0003:00071b90       ?airdrop@@3PAEA            0000000180353b90     main.obj
 0003:00071e30       ?doublebarrel@@3PAEA       0000000180353e30     main.obj
 0003:00072730       ?bean@@3PAEA               0000000180354730     main.obj
 0003:00073510       ?inter_medium@@3PAEA       0000000180355510     main.obj
 0003:000bef60       ?settings@@3PAEA           00000001803a0f60     main.obj
 0003:000bf160       ?hmlmg@@3PAEA              00000001803a1160     main.obj
 0003:000bf9f0       ?icon_font@@3PAEA          00000001803a19f0     main.obj
 0003:000c0510       ?rocket_lanucher@@3PAEA    00000001803a2510     main.obj
 0003:000c10e0       ?pumpshotgun@@3PAEA        00000001803a30e0     main.obj
 0003:000c19c0       ?metalnode@@3PAEA          00000001803a39c0     main.obj
 0003:000c2f28       ?vps@@3IA                  00000001803a4f28     main.obj
 0003:000c2f30       ?f1@@3PAEA                 00000001803a4f30     main.obj
 0003:000c3d10       ?customsmg@@3PAEA          00000001803a5d10     main.obj
 0003:000c48c0       ?combo_widget@@3PAEA       00000001803a68c0     main.obj
 0003:000c49c0       ?compoundbow@@3PAEA        00000001803a69c0     main.obj
 0003:000c55a0       ?minicopter@@3PAEA         00000001803a75a0     main.obj
 0003:000c5680       ?militarycrate@@3PAEA      00000001803a7680     main.obj
 0003:000c5980       ?chicken@@3PAEA            00000001803a7980     main.obj
 0003:000c5ad0       ?satchel@@3PAEA            00000001803a7ad0     main.obj
 0003:000c66a0       ?python@@3PAEA             00000001803a86a0     main.obj
 0003:000c7180       ?rhib@@3PAEA               00000001803a9180     main.obj
 0003:000c7270       ?lr300@@3PAEA              00000001803a9270     main.obj
 0003:000c7c70       ?sar@@3PAEA                00000001803a9c70     main.obj
 0003:000c8440       ?hog@@3PAEA                00000001803aa440     main.obj
 0003:000c85e0       ?mp5@@3PAEA                00000001803aa5e0     main.obj
 0003:000c8f90       ?scrapheli@@3PAEA          00000001803aaf90     main.obj
 0003:000c9070       ?ak47@@3PAEA               00000001803ab070     main.obj
 0003:000c9990       ?hde64_table@@3PAEA        00000001803ab990     hde64.obj
 0003:000cb0b0       ?selected_cfg@stuff@VarSs@@3V?$basic_string@DU?$char_traits@D@std@@V?$allocator@D@2@@std@@A 00000001803ad0b0     main.obj
 0003:000cb120       ?color@skeleton_@players@VarSs@@3UImColor@@A 00000001803ad120     main.obj
 0003:000cb140       ?infom_t@@3PAUWeapon_M@@A  00000001803ad140     main.obj
 0003:000cb578       ?update_logs@@3V?$basic_string@DU?$char_traits@D@std@@V?$allocator@D@2@@std@@A 00000001803ad578     main.obj
 0003:000cb598       ?pos@belt@@3VVector2@@A    00000001803ad598     main.obj
 0003:000cb5a0       ?pos@wear@@3VVector2@@A    00000001803ad5a0     main.obj
 0003:000cb5a8       ?pos@radar@@3VVector2@@A   00000001803ad5a8     main.obj
 0003:000cb5b0       ?config@@3VCConfig@@A      00000001803ad5b0     main.obj
 0003:000cb620       ?Buble@@3PAEA              00000001803ad620     main.obj
 0003:000cde98       ?_Static@?1???$_Immortalize_memcpy_image@V_System_error_category@std@@@std@@YAAEBV_System_error_category@1@XZ@4U?$_Constexpr_immortalize_impl@V_System_error_category@std@@@1@A 00000001803afe98     main.obj
 0003:000cdeb0       ?_Static@?1???$_Immortalize_memcpy_image@V_Generic_error_category@std@@@std@@YAAEBV_Generic_error_category@1@XZ@4U?$_Constexpr_immortalize_impl@V_Generic_error_category@std@@@1@A 00000001803afeb0     main.obj
 0003:000cded0       ?smallestpixel7@@3PAEA     00000001803afed0     main.obj
 0003:000d42f0       ?sapphirefont@@3PAEA       00000001803b62f0     main.obj
 0003:000e0050       ?PlugTRAP@@3PAEA           00000001803c2050     main.obj
 0003:000e68b0       ?Kabanus@@3PAEA            00000001803c88b0     main.obj
 0003:001a8170       ?getitem@@3Vc_getitemicon@@A 000000018048a170     main.obj
 0003:001a81b0       ??_R0?AVbad_alloc@std@@@8  000000018048a1b0     Base64.obj
 0003:001a81d8       ??_R0?AVexception@std@@@8  000000018048a1d8     Base64.obj
 0003:001a8200       ??_R0?AVbad_array_new_length@std@@@8 000000018048a200     Base64.obj
 0003:001a8230       ??_R0?AVruntime_error@std@@@8 000000018048a230     main.obj
 0003:001a8258       ??_R0?AVsystem_error@std@@@8 000000018048a258     main.obj
 0003:001a8280       ??_R0?AVfilesystem_error@filesystem@std@@@8 000000018048a280     main.obj
 0003:001a82b8       ??_R0?AV_System_error@std@@@8 000000018048a2b8     main.obj
 0003:001a82e0       ??_R0?AVtype_info@@@8      000000018048a2e0     MSVCRT:std_type_info_static.obj
 0003:001a8300       ??_R0?AVerror_category@std@@@8 000000018048a300     main.obj
 0003:001a8330       ??_R0?AV_System_error_category@std@@@8 000000018048a330     main.obj
 0003:001a8368       ??_R0?AV_Generic_error_category@std@@@8 000000018048a368     main.obj
 0003:001a83a0       ??_R0?AUIAtlStringMgr@ATL@@@8 000000018048a3a0     main.obj
 0003:001a83c8       ??_R0?AVCAtlStringMgr@ATL@@@8 000000018048a3c8     main.obj
 0003:001a83f0       ??_R0?AV?$_Ref_count_obj2@U_Recursive_dir_enum_impl@filesystem@std@@@std@@@8 000000018048a3f0     main.obj
 0003:001a8448       ??_R0?AV_Ref_count_base@std@@@8 000000018048a448     main.obj
 0003:001a8478       ??_R0?AVCWin32Heap@ATL@@@8 000000018048a478     main.obj
 0003:001a84a0       ??_R0?AUIAtlMemMgr@ATL@@@8 000000018048a4a0     main.obj
 0003:001a84f0       __scrt_current_native_startup_state 000000018048a4f0     MSVCRT:utility.obj
 0003:001a84f8       __scrt_native_startup_lock 000000018048a4f8     MSVCRT:utility.obj
 0003:001a853c       __avx10_version            000000018048a53c     MSVCRT:cpu_disp.obj
 0003:001a8540       __favor                    000000018048a540     MSVCRT:cpu_disp.obj
 0003:001a8544       _tls_index                 000000018048a544     MSVCRT:tlssup.obj
 0003:001a8548       __scrt_debugger_hook_flag  000000018048a548     MSVCRT:utility_desktop.obj
 0003:001a8550       ?__type_info_root_node@@3U__type_info_node@@A 000000018048a550     MSVCRT:tncleanup.obj
 0003:001a8ad0       ?_AtlBaseModule@ATL@@3VCAtlBaseModule@1@A 000000018048aad0     atls:atlbase.obj
 0003:001a8b30       __@@_PchSym_@00@UzUPdlipUBUhUrmgvinvwrzgvUexHoryhUhsrkUzgonuxUhixUzgoUzgohUzgohOexckilqUlyqiPiUznwGEUhgwzucOlyq@4B2008FD98C1DD4 000000018048ab30     atls:stdafx.obj
 0003:001a8b38       ?_OptionsStorage@?1??__local_stdio_printf_options@@9@4_KA 000000018048ab38     discord_register_win.obj
 0003:001a8b50       ?closestPlayer@stor@InGame@@3_KA 000000018048ab50     main.obj
 0003:001a8b58       ?gBase@stor@InGame@@3_KA   000000018048ab58     main.obj
 0003:001a8b60       ?closestHeli@stor@InGame@@3_KA 000000018048ab60     main.obj
 0003:001a8b68       ?render_target_view@@3PEAUID3D11RenderTargetView@@EA 000000018048ab68     main.obj
 0003:001a8b70       ?cursor@main@@3UtagPOINT@@A 000000018048ab70     main.obj
 0003:001a8b78       ?originalsapphire@@3PEAUImFont@@EA 000000018048ab78     main.obj
 0003:001a8b80       ?circle_error@pic@@3PEAUID3D11ShaderResourceView@@EA 000000018048ab80     main.obj
 0003:001a8b88       ?input_widget@pic@@3PEAUID3D11ShaderResourceView@@EA 000000018048ab88     main.obj
 0003:001a8b90       ?menu_settings_icon@pic@@3PEAUID3D11ShaderResourceView@@EA 000000018048ab90     main.obj
 0003:001a8b98       ?skins@pic@@3PEAUID3D11ShaderResourceView@@EA 000000018048ab98     main.obj
 0003:001a8ba0       ?aimbot@pic@@3PEAUID3D11ShaderResourceView@@EA 000000018048aba0     main.obj
 0003:001a8ba8       ?circle_success@pic@@3PEAUID3D11ShaderResourceView@@EA 000000018048aba8     main.obj
 0003:001a8bb0       ?visuals@pic@@3PEAUID3D11ShaderResourceView@@EA 000000018048abb0     main.obj
 0003:001a8bb8       ?settings@pic@@3PEAUID3D11ShaderResourceView@@EA 000000018048abb8     main.obj
 0003:001a8bc0       ?combo_widget@pic@@3PEAUID3D11ShaderResourceView@@EA 000000018048abc0     main.obj
 0003:001a8bc8       ?should_drag@belt@@3_NA    000000018048abc8     main.obj
 0003:001a8bc9       ?should_move@belt@@3_NA    000000018048abc9     main.obj
 0003:001a8bca       ?did_reload@@3_NA          000000018048abca     main.obj
 0003:001a8bcb       ?just_shot@@3_NA           000000018048abcb     main.obj
 0003:001a8bcc       ?show@@3_NA                000000018048abcc     main.obj
 0003:001a8bcd       ?wire_rainbow@players@VarSs@@3_NA 000000018048abcd     main.obj
 0003:001a8bce       ?healthbar@players@VarSs@@3_NA 000000018048abce     main.obj
 0003:001a8bcf       ?skeleton@players@VarSs@@3_NA 000000018048abcf     main.obj
 0003:001a8bd0       ?cursor_corrected@belt@@3UtagPOINT@@A 000000018048abd0     main.obj
 0003:001a8bd8       ?cursor@belt@@3UtagPOINT@@A 000000018048abd8     main.obj
 0003:001a8be0       ?Gold@@3PEAVMaterial@@EA   000000018048abe0     main.obj
 0003:001a8be8       ?present_original@@3P6AJPEAUIDXGISwapChain@@II@ZEA 000000018048abe8     main.obj
 0003:001a8bf0       ?immediate_context@@3PEAUID3D11DeviceContext@@EA 000000018048abf0     main.obj
 0003:001a8bf8       ?viewport@@3UD3D11_VIEWPORT@@A 000000018048abf8     main.obj
 0003:001a8c10       ?Glitch@@3PEAVMaterial@@EA 000000018048ac10     main.obj
 0003:001a8c18       ?pos@keybind@@3UImVec2@@A  000000018048ac18     main.obj
 0003:001a8c20       ?cursor@desync@@3UtagPOINT@@A 000000018048ac20     main.obj
 0003:001a8c28       ?resize_original@@3P6AJPEAUIDXGISwapChain@@IIIW4DXGI_FORMAT@@I@ZEA 000000018048ac28     main.obj
 0003:001a8c30       ?Frame@@3PEAVMaterial@@EA  000000018048ac30     main.obj
 0003:001a8c38       ?GLOBAL_TIME@@3MA          000000018048ac38     main.obj
 0003:001a8c3c       ?outline@box_@players@VarSs@@3_NA 000000018048ac3c     main.obj
 0003:001a8c3d       ?DisableWeaponName@players@VarSs@@3_NA 000000018048ac3d     main.obj
 0003:001a8c3e       ?target_tracers@players@VarSs@@3_NA 000000018048ac3e     main.obj
 0003:001a8c3f       ?playerline4@players@VarSs@@3_NA 000000018048ac3f     main.obj
 0003:001a8c40       ?Galaxy4@@3PEAVMaterial@@EA 000000018048ac40     main.obj
 0003:001a8c48       ?Ghost@@3PEAVMaterial@@EA  000000018048ac48     main.obj
 0003:001a8c50       ?cursor@flist@@3UtagPOINT@@A 000000018048ac50     main.obj
 0003:001a8c58       ?boxstyle@players@VarSs@@3HA 000000018048ac58     main.obj
 0003:001a8c5c       ?out_type@players@VarSs@@3HA 000000018048ac5c     main.obj
 0003:001a8c60       ?player_chams_type2@players@VarSs@@3HA 000000018048ac60     main.obj
 0003:001a8c64       ?player_chams_type@players@VarSs@@3HA 000000018048ac64     main.obj
 0003:001a8c68       ?wire_rainbow2@players@VarSs@@3_NA 000000018048ac68     main.obj
 0003:001a8c69       ?TargetWear@players@VarSs@@3_NA 000000018048ac69     main.obj
 0003:001a8c6a       ?weapon@players@VarSs@@3_NA 000000018048ac6a     main.obj
 0003:001a8c6b       ?TargetBelt@players@VarSs@@3_NA 000000018048ac6b     main.obj
 0003:001a8c6c       ?playerline3@players@VarSs@@3_NA 000000018048ac6c     main.obj
 0003:001a8c6d       ?targetline@players@VarSs@@3_NA 000000018048ac6d     main.obj
 0003:001a8c6e       ?playerline2@players@VarSs@@3_NA 000000018048ac6e     main.obj
 0003:001a8c6f       ?oof_arrows@players@VarSs@@3_NA 000000018048ac6f     main.obj
 0003:001a8c70       ?TargetMain@players@VarSs@@3_NA 000000018048ac70     main.obj
 0003:001a8c71       ?reload_offer@players@VarSs@@3_NA 000000018048ac71     main.obj
 0003:001a8c72       ?radar@players@VarSs@@3_NA 000000018048ac72     main.obj
 0003:001a8c73       ?playerline@players@VarSs@@3_NA 000000018048ac73     main.obj
 0003:001a8c74       ?healthbarstyle@players@VarSs@@3HA 000000018048ac74     main.obj
 0003:001a8c78       ?box_rotate@players@VarSs@@3_NA 000000018048ac78     main.obj
 0003:001a8c79       ?sleeperignore@players@VarSs@@3_NA 000000018048ac79     main.obj
 0003:001a8c7a       ?WeaponIcon@players@VarSs@@3_NA 000000018048ac7a     main.obj
 0003:001a8c7b       ?rainbowfillbox@players@VarSs@@3_NA 000000018048ac7b     main.obj
 0003:001a8c7c       ?name@players@VarSs@@3_NA  000000018048ac7c     main.obj
 0003:001a8c7d       ?outline@skeleton_@players@VarSs@@3_NA 000000018048ac7d     main.obj
 0003:001a8c7e       ?fillbox@players@VarSs@@3_NA 000000018048ac7e     main.obj
 0003:001a8c7f       ?distance@players@VarSs@@3_NA 000000018048ac7f     main.obj
 0003:001a8c80       ?player_chams@players@VarSs@@3_NA 000000018048ac80     main.obj
 0003:001a8c81       ?box@players@VarSs@@3_NA   000000018048ac81     main.obj
 0003:001a8c82       ?Grfillbox@players@VarSs@@3_NA 000000018048ac82     main.obj
 0003:001a8c83       ?no_sway@weapons@VarSs@@3_NA 000000018048ac83     main.obj
 0003:001a8c84       ?automatic@weapons@VarSs@@3_NA 000000018048ac84     main.obj
 0003:001a8c85       ?fastbow@weapons@VarSs@@3_NA 000000018048ac85     main.obj
 0003:001a8c86       ?no_recoil@weapons@VarSs@@3_NA 000000018048ac86     main.obj
 0003:001a8c87       ?spoof_hitdistance@weapons@VarSs@@3_NA 000000018048ac87     main.obj
 0003:001a8c88       ?compound@weapons@VarSs@@3_NA 000000018048ac88     main.obj
 0003:001a8c89       ?hammer_spam@weapons@VarSs@@3_NA 000000018048ac89     main.obj
 0003:001a8c8a       ?rapidfire@weapons@VarSs@@3_NA 000000018048ac8a     main.obj
 0003:001a8c8b       ?weapon_spam@weapons@VarSs@@3_NA 000000018048ac8b     main.obj
 0003:001a8c8c       ?hammer_spam_type@weapons@VarSs@@3HA 000000018048ac8c     main.obj
 0003:001a8c90       ?minicopter_aim@weapons@VarSs@@3_NA 000000018048ac90     main.obj
 0003:001a8c91       ?size_bullet@weapons@VarSs@@3_NA 000000018048ac91     main.obj
 0003:001a8c92       ?thick_bullet@weapons@VarSs@@3_NA 000000018048ac92     main.obj
 0003:001a8c93       ?no_spread@weapons@VarSs@@3_NA 000000018048ac93     main.obj
 0003:001a8c94       ?fast_bullets@weapons@VarSs@@3_NA 000000018048ac94     main.obj
 0003:001a8c95       ?remove_attack_anim@weapons@VarSs@@3_NA 000000018048ac95     main.obj
 0003:001a8c96       ?penetrate@weapons@VarSs@@3_NA 000000018048ac96     main.obj
 0003:001a8c97       ?eokatap@weapons@VarSs@@3_NA 000000018048ac97     main.obj
 0003:001a8c98       ?roundfire@weapons@VarSs@@3_NA 000000018048ac98     main.obj
 0003:001a8c99       ?pierce_materials@weapons@VarSs@@3_NA 000000018048ac99     main.obj
 0003:001a8c9a       ?wall_shoot@weapons@VarSs@@3_NA 000000018048ac9a     main.obj
 0003:001a8c9b       ?fast_pvs@weapons@VarSs@@3_NA 000000018048ac9b     main.obj
 0003:001a8c9c       ?wall_ricohcet@weapons@VarSs@@3_NA 000000018048ac9c     main.obj
 0003:001a8c9d       ?silentaim@combat@VarSs@@3_NA 000000018048ac9d     main.obj
 0003:001a8c9e       ?ZOZO@combat@VarSs@@3_NA   000000018048ac9e     main.obj
 0003:001a8c9f       ?pierce@combat@VarSs@@3_NA 000000018048ac9f     main.obj
 0003:001a8ca0       ?always_heli_rotor@combat@VarSs@@3_NA 000000018048aca0     main.obj
 0003:001a8ca1       ?desync@combat@VarSs@@3_NA 000000018048aca1     main.obj
 0003:001a8ca2       ?radius@combat@VarSs@@3_NA 000000018048aca2     main.obj
 0003:001a8ca3       ?BulletTeleportGradient@combat@VarSs@@3_NA 000000018048aca3     main.obj
 0003:001a8ca4       ?bullet_tp_type@combat@VarSs@@3HA 000000018048aca4     main.obj
 0003:001a8ca8       ?manipulator@combat@VarSs@@3_NA 000000018048aca8     main.obj
 0003:001a8ca9       ?Player_Circles@combat@VarSs@@3_NA 000000018048aca9     main.obj
 0003:001a8caa       ?manipulate_angle_vectors@combat@VarSs@@3_NA 000000018048acaa     main.obj
 0003:001a8cab       ?low_hiting@combat@VarSs@@3_NA 000000018048acab     main.obj
 0003:001a8cac       ?doubletaptype@combat@VarSs@@3HA 000000018048acac     main.obj
 0003:001a8cb0       ?desync_autoshoot_type@combat@VarSs@@3HA 000000018048acb0     main.obj
 0003:001a8cb4       ?pvs@combat@VarSs@@3HA     000000018048acb4     main.obj
 0003:001a8cb8       ?manipulator_vectors_type@combat@VarSs@@3HA 000000018048acb8     main.obj
 0003:001a8cbc       ?ManipulatorRadios@combat@VarSs@@3_NA 000000018048acbc     main.obj
 0003:001a8cbd       ?instakill@combat@VarSs@@3_NA 000000018048acbd     main.obj
 0003:001a8cbe       ?doubletap@combat@VarSs@@3_NA 000000018048acbe     main.obj
 0003:001a8cbf       ?manipulator_stop@combat@VarSs@@3_NA 000000018048acbf     main.obj
 0003:001a8cc0       ?autoreload@combat@VarSs@@3_NA 000000018048acc0     main.obj
 0003:001a8cc1       ?bullet_tp_arrows@combat@VarSs@@3_NA 000000018048acc1     main.obj
 0003:001a8cc2       ?psilent@combat@VarSs@@3_NA 000000018048acc2     main.obj
 0003:001a8cc3       ?Manipulator_shot_atBt@combat@VarSs@@3_NA 000000018048acc3     main.obj
 0003:001a8cc4       ?hitscan_tp_mode@combat@VarSs@@3HA 000000018048acc4     main.obj
 0003:001a8cc8       ?hitscan_tp_type@combat@VarSs@@3HA 000000018048acc8     main.obj
 0003:001a8ccc       ?hitbox@combat@VarSs@@3HA  000000018048accc     main.obj
 0003:001a8cd0       ?burst_fire@combat@VarSs@@3_NA 000000018048acd0     main.obj
 0003:001a8cd1       ?silent_melee@combat@VarSs@@3_NA 000000018048acd1     main.obj
 0003:001a8cd2       ?psilentheli@combat@VarSs@@3_NA 000000018048acd2     main.obj
 0003:001a8cd3       ?instanthit@combat@VarSs@@3_NA 000000018048acd3     main.obj
 0003:001a8cd4       ?radius2@combat@VarSs@@3_NA 000000018048acd4     main.obj
 0003:001a8cd5       ?ExtentForMoutend@combat@VarSs@@3_NA 000000018048acd5     main.obj
 0003:001a8cd6       ?bullet_tp@combat@VarSs@@3_NA 000000018048acd6     main.obj
 0003:001a8cd7       ?autoshoot@combat@VarSs@@3_NA 000000018048acd7     main.obj
 0003:001a8cd8       ?auto_manipulator@combat@VarSs@@3_NA 000000018048acd8     main.obj
 0003:001a8cd9       ?bullet_tp_radius@combat@VarSs@@3_NA 000000018048acd9     main.obj
 0003:001a8cda       ?manipulate_angle_arrow@combat@VarSs@@3_NA 000000018048acda     main.obj
 0003:001a8cdb       ?silentfovdraw@combat@VarSs@@3_NA 000000018048acdb     main.obj
 0003:001a8cdc       ?ignore_sleepers@combat@VarSs@@3_NA 000000018048acdc     main.obj
 0003:001a8cdd       ?HitScan@combat@VarSs@@3_NA 000000018048acdd     main.obj
 0003:001a8cde       ?hide_me@stuff@VarSs@@3_NA 000000018048acde     main.obj
 0003:001a8cdf       ?Panic@stuff@VarSs@@3_NA   000000018048acdf     main.obj
 0003:001a8ce0       ?ScreenWidth@stuff@VarSs@@3HA 000000018048ace0     main.obj
 0003:001a8ce4       ?font@stuff@VarSs@@3HA     000000018048ace4     main.obj
 0003:001a8ce8       ?unload_key@stuff@VarSs@@3HA 000000018048ace8     main.obj
 0003:001a8cf0       ?OverFunc@stuff@VarSs@@3_NA 000000018048acf0     main.obj
 0003:001a8cf1       ?unload_on_key@stuff@VarSs@@3_NA 000000018048acf1     main.obj
 0003:001a8cf2       ?flame_turret@turrets@visuals@VarSs@@3_NA 000000018048acf2     main.obj
 0003:001a8cf3       ?bear_trap@turrets@visuals@VarSs@@3_NA 000000018048acf3     main.obj
 0003:001a8cf4       ?ScreenHeight@stuff@VarSs@@3HA 000000018048acf4     main.obj
 0003:001a8cf8       ?landmine@turrets@visuals@VarSs@@3_NA 000000018048acf8     main.obj
 0003:001a8cf9       ?auto_turret@turrets@visuals@VarSs@@3_NA 000000018048acf9     main.obj
 0003:001a8cfa       ?show_distance@turrets@visuals@VarSs@@3_NA 000000018048acfa     main.obj
 0003:001a8cfb       ?shotgun_turret@turrets@visuals@VarSs@@3_NA 000000018048acfb     main.obj
 0003:001a8cfc       ?sam_site@turrets@visuals@VarSs@@3_NA 000000018048acfc     main.obj
 0003:001a8cfd       ?No_bobing@visuals@VarSs@@3_NA 000000018048acfd     main.obj
 0003:001a8cfe       ?hand_chams@visuals@VarSs@@3_NA 000000018048acfe     main.obj
 0003:001a8cff       ?radar_@visuals@VarSs@@3_NA 000000018048acff     main.obj
 0003:001a8d00       ?skycolor@visuals@VarSs@@3_NA 000000018048ad00     main.obj
 0003:001a8d01       ?show_distance_bulletTp@visuals@VarSs@@3_NA 000000018048ad01     main.obj
 0003:001a8d02       ?keybinds@visuals@VarSs@@3_NA 000000018048ad02     main.obj
 0003:001a8d03       ?bradley_apc@visuals@VarSs@@3_NA 000000018048ad03     main.obj
 0003:001a8d04       ?hand_chams_type@visuals@VarSs@@3HA 000000018048ad04     main.obj
 0003:001a8d08       ?hand_chams_type2@visuals@VarSs@@3HA 000000018048ad08     main.obj
 0003:001a8d0c       ?nightmode@visuals@VarSs@@3_NA 000000018048ad0c     main.obj
 0003:001a8d0d       ?patrol_heli@visuals@VarSs@@3_NA 000000018048ad0d     main.obj
 0003:001a8d0e       ?boat@vehicles@visuals@VarSs@@3_NA 000000018048ad0e     main.obj
 0003:001a8d0f       ?show_distance@vehicles@visuals@VarSs@@3_NA 000000018048ad0f     main.obj
 0003:001a8d10       ?chams_render_mode@visuals@VarSs@@3HA 000000018048ad10     main.obj
 0003:001a8d14       ?minicopter@vehicles@visuals@VarSs@@3_NA 000000018048ad14     main.obj
 0003:001a8d15       ?rhib@vehicles@visuals@VarSs@@3_NA 000000018048ad15     main.obj
 0003:001a8d16       ?scrapheli@vehicles@visuals@VarSs@@3_NA 000000018048ad16     main.obj
 0003:001a8d17       ?supply@crates@visuals@VarSs@@3_NA 000000018048ad17     main.obj
 0003:001a8d18       ?weapon_chams_type@visuals@VarSs@@3HA 000000018048ad18     main.obj
 0003:001a8d1c       ?heli@crates@visuals@VarSs@@3_NA 000000018048ad1c     main.obj
 0003:001a8d1d       ?military@crates@visuals@VarSs@@3_NA 000000018048ad1d     main.obj
 0003:001a8d1e       ?bradley@crates@visuals@VarSs@@3_NA 000000018048ad1e     main.obj
 0003:001a8d1f       ?show_distance@crates@visuals@VarSs@@3_NA 000000018048ad1f     main.obj
 0003:001a8d20       ?elite@crates@visuals@VarSs@@3_NA 000000018048ad20     main.obj
 0003:001a8d21       ?chinook@crates@visuals@VarSs@@3_NA 000000018048ad21     main.obj
 0003:001a8d22       ?wire_u_color@visuals@VarSs@@3_NA 000000018048ad22     main.obj
 0003:001a8d23       ?weapon_chams@visuals@VarSs@@3_NA 000000018048ad23     main.obj
 0003:001a8d24       ?bear@animals@visuals@VarSs@@3_NA 000000018048ad24     main.obj
 0003:001a8d25       ?pig@animals@visuals@VarSs@@3_NA 000000018048ad25     main.obj
 0003:001a8d26       ?wolf@animals@visuals@VarSs@@3_NA 000000018048ad26     main.obj
 0003:001a8d27       ?show_distance@animals@visuals@VarSs@@3_NA 000000018048ad27     main.obj
 0003:001a8d28       ?chicken@animals@visuals@VarSs@@3_NA 000000018048ad28     main.obj
 0003:001a8d29       ?deer@animals@visuals@VarSs@@3_NA 000000018048ad29     main.obj
 0003:001a8d2a       ?sleeping_bag@base@visuals@VarSs@@3_NA 000000018048ad2a     main.obj
 0003:001a8d2b       ?tc@base@visuals@VarSs@@3_NA 000000018048ad2b     main.obj
 0003:001a8d2c       ?show_distance@base@visuals@VarSs@@3_NA 000000018048ad2c     main.obj
 0003:001a8d2d       ?bed@base@visuals@VarSs@@3_NA 000000018048ad2d     main.obj
 0003:001a8d2e       ?boxes@base@visuals@VarSs@@3_NA 000000018048ad2e     main.obj
 0003:001a8d2f       ?dropped_items@other@visuals@VarSs@@3_NA 000000018048ad2f     main.obj
 0003:001a8d30       ?hemp@other@visuals@VarSs@@3_NA 000000018048ad30     main.obj
 0003:001a8d31       ?stash@other@visuals@VarSs@@3_NA 000000018048ad31     main.obj
 0003:001a8d32       ?show_distance@other@visuals@VarSs@@3_NA 000000018048ad32     main.obj
 0003:001a8d33       ?bodybag@other@visuals@VarSs@@3_NA 000000018048ad33     main.obj
 0003:001a8d34       ?corpse@other@visuals@VarSs@@3_NA 000000018048ad34     main.obj
 0003:001a8d35       ?healthbar@npc@VarSs@@3_NA 000000018048ad35     main.obj
 0003:001a8d36       ?skeleton@npc@VarSs@@3_NA  000000018048ad36     main.obj
 0003:001a8d37       ?DisableWeaponName@npc@VarSs@@3_NA 000000018048ad37     main.obj
 0003:001a8d38       ?weapon@npc@VarSs@@3_NA    000000018048ad38     main.obj
 0003:001a8d39       ?oof_arrows@npc@VarSs@@3_NA 000000018048ad39     main.obj
 0003:001a8d3a       ?WeaponIcon@npc@VarSs@@3_NA 000000018048ad3a     main.obj
 0003:001a8d3b       ?rainbowfillbox@npc@VarSs@@3_NA 000000018048ad3b     main.obj
 0003:001a8d3c       ?name@npc@VarSs@@3_NA      000000018048ad3c     main.obj
 0003:001a8d3d       ?fillbox@npc@VarSs@@3_NA   000000018048ad3d     main.obj
 0003:001a8d3e       ?distance@npc@VarSs@@3_NA  000000018048ad3e     main.obj
 0003:001a8d3f       ?box@npc@VarSs@@3_NA       000000018048ad3f     main.obj
 0003:001a8d40       ?Grfillbox@npc@VarSs@@3_NA 000000018048ad40     main.obj
 0003:001a8d41       ?night_mode@misc@VarSs@@3_NA 000000018048ad41     main.obj
 0003:001a8d42       ?hitmarker@misc@VarSs@@3_NA 000000018048ad42     main.obj
 0003:001a8d43       ?recycler@misc@VarSs@@3_NA 000000018048ad43     main.obj
 0003:001a8d44       ?gesture@misc@VarSs@@3HA   000000018048ad44     main.obj
 0003:001a8d48       ?auto_farm@misc@VarSs@@3_NA 000000018048ad48     main.obj
 0003:001a8d49       ?better_jump@misc@VarSs@@3_NA 000000018048ad49     main.obj
 0003:001a8d4a       ?anti_aim@misc@VarSs@@3_NA 000000018048ad4a     main.obj
 0003:001a8d4b       ?suicide@misc@VarSs@@3_NA  000000018048ad4b     main.obj
 0003:001a8d4c       ?HitEffect@misc@VarSs@@3_NA 000000018048ad4c     main.obj
 0003:001a8d4d       ?brightness_changer@misc@VarSs@@3_NA 000000018048ad4d     main.obj
 0003:001a8d4e       ?rain_changer@misc@VarSs@@3_NA 000000018048ad4e     main.obj
 0003:001a8d4f       ?auto_pickup@misc@VarSs@@3_NA 000000018048ad4f     main.obj
 0003:001a8d50       ?custom_hitsound_type@misc@VarSs@@3HA 000000018048ad50     main.obj
 0003:001a8d54       ?zoom@misc@VarSs@@3_NA     000000018048ad54     main.obj
 0003:001a8d55       ?fldview@misc@VarSs@@3_NA  000000018048ad55     main.obj
 0003:001a8d56       ?circle_hat@misc@VarSs@@3_NA 000000018048ad56     main.obj
 0003:001a8d57       ?flyhack_indicator@misc@VarSs@@3_NA 000000018048ad57     main.obj
 0003:001a8d58       ?local_bones@misc@VarSs@@3_NA 000000018048ad58     main.obj
 0003:001a8d59       ?annoyer@misc@VarSs@@3_NA  000000018048ad59     main.obj
 0003:001a8d5a       ?hit_notification@misc@VarSs@@3_NA 000000018048ad5a     main.obj
 0003:001a8d5b       ?HitSpawnNearest@misc@VarSs@@3_NA 000000018048ad5b     main.obj
 0003:001a8d5c       ?anti_aim_type@misc@VarSs@@3HA 000000018048ad5c     main.obj
 0003:001a8d60       ?weapon_spam@misc@VarSs@@3_NA 000000018048ad60     main.obj
 0003:001a8d61       ?fog_changer@misc@VarSs@@3_NA 000000018048ad61     main.obj
 0003:001a8d62       ?fly_auto_stopper@misc@VarSs@@3_NA 000000018048ad62     main.obj
 0003:001a8d63       ?player_tp_head@misc@VarSs@@3_NA 000000018048ad63     main.obj
 0003:001a8d64       ?longneck@misc@VarSs@@3_NA 000000018048ad64     main.obj
 0003:001a8d65       ?damagemarker@misc@VarSs@@3_NA 000000018048ad65     main.obj
 0003:001a8d66       ?custom_time@misc@VarSs@@3_NA 000000018048ad66     main.obj
 0003:001a8d67       ?faster_healing@misc@VarSs@@3_NA 000000018048ad67     main.obj
 0003:001a8d68       ?modelstate@misc@VarSs@@3HA 000000018048ad68     main.obj
 0003:001a8d6c       ?interactive_debug@misc@VarSs@@3_NA 000000018048ad6c     main.obj
 0003:001a8d6d       ?auto_farm_tree@misc@VarSs@@3_NA 000000018048ad6d     main.obj
 0003:001a8d6e       ?jesus@misc@VarSs@@3_NA    000000018048ad6e     main.obj
 0003:001a8d6f       ?emotion_spamm@misc@VarSs@@3_NA 000000018048ad6f     main.obj
 0003:001a8d70       ?rayleigh_changer@misc@VarSs@@3_NA 000000018048ad70     main.obj
 0003:001a8d71       ?fast_loot@misc@VarSs@@3_NA 000000018048ad71     main.obj
 0003:001a8d72       ?spiderman@misc@VarSs@@3_NA 000000018048ad72     main.obj
 0003:001a8d73       ?manipulator_indicator@misc@VarSs@@3_NA 000000018048ad73     main.obj
 0003:001a8d74       ?TargetInfo@misc@VarSs@@3_NA 000000018048ad74     main.obj
 0003:001a8d75       ?Atom@misc@VarSs@@3_NA     000000018048ad75     main.obj
 0003:001a8d76       ?TeloportTopPlayer@misc@VarSs@@3_NA 000000018048ad76     main.obj
 0003:001a8d77       ?AspectRatio@misc@VarSs@@3_NA 000000018048ad77     main.obj
 0003:001a8d78       ?fakelag@misc@VarSs@@3HA   000000018048ad78     main.obj
 0003:001a8d7c       ?fakeadmin@misc@VarSs@@3_NA 000000018048ad7c     main.obj
 0003:001a8d7d       ?bright_ambient@misc@VarSs@@3_NA 000000018048ad7d     main.obj
 0003:001a8d7e       ?omnidirectional_sprinting@misc@VarSs@@3_NA 000000018048ad7e     main.obj
 0003:001a8d7f       ?gravity@misc@VarSs@@3_NA  000000018048ad7f     main.obj
 0003:001a8d80       ?can_attack@misc@VarSs@@3_NA 000000018048ad80     main.obj
 0003:001a8d81       ?insta_indicator@misc@VarSs@@3_NA 000000018048ad81     main.obj
 0003:001a8d82       ?speed_indicator@misc@VarSs@@3_NA 000000018048ad82     main.obj
 0003:001a8d83       ?sapphire_spammer@misc@VarSs@@3_NA 000000018048ad83     main.obj
 0003:001a8d84       ?mie_changer@misc@VarSs@@3_NA 000000018048ad84     main.obj
 0003:001a8d85       ?thunder_changer@misc@VarSs@@3_NA 000000018048ad85     main.obj
 0003:001a8d86       ?auto_farm_ore@misc@VarSs@@3_NA 000000018048ad86     main.obj
 0003:001a8d87       ?custom_hitsound@misc@VarSs@@3_NA 000000018048ad87     main.obj
 0003:001a8d88       ?hitmaterial@misc@VarSs@@3HA 000000018048ad88     main.obj
 0003:001a8d8c       ?block_commands@misc@VarSs@@3_NA 000000018048ad8c     main.obj
 0003:001a8d8d       ?reload_indicator@misc@VarSs@@3_NA 000000018048ad8d     main.obj
 0003:001a8d8e       ?no_fall@misc@VarSs@@3_NA  000000018048ad8e     main.obj
 0003:001a8d8f       ?spider_colider@misc@VarSs@@3_NA 000000018048ad8f     main.obj
 0003:001a8d90       ?Sphera@misc@VarSs@@3_NA   000000018048ad90     main.obj
 0003:001a8d91       ?speedhack@misc@VarSs@@3_NA 000000018048ad91     main.obj
 0003:001a8d92       ?silentstash@misc@VarSs@@3_NA 000000018048ad92     main.obj
 0003:001a8d93       ?night_stars@misc@VarSs@@3_NA 000000018048ad93     main.obj
 0003:001a8d94       ?indiacators_type@misc@VarSs@@3HA 000000018048ad94     main.obj
 0003:001a8d98       ?AtomOutline@misc@VarSs@@3_NA 000000018048ad98     main.obj
 0003:001a8d99       ?crosshair@misc@VarSs@@3_NA 000000018048ad99     main.obj
 0003:001a8d9a       ?bulletline@debug@VarSs@@3_NA 000000018048ad9a     main.obj
 0003:001a8d9b       ?bulletline4@debug@VarSs@@3_NA 000000018048ad9b     main.obj
 0003:001a8d9c       ?esp_type@esp@VarSs@@3HA   000000018048ad9c     main.obj
 0003:001a8da0       ?bulletline3@debug@VarSs@@3_NA 000000018048ada0     main.obj
 0003:001a8da1       ?bulletline6@debug@VarSs@@3_NA 000000018048ada1     main.obj
 0003:001a8da2       ?bulletline2@debug@VarSs@@3_NA 000000018048ada2     main.obj
 0003:001a8da3       ?bulletline5@debug@VarSs@@3_NA 000000018048ada3     main.obj
 0003:001a8da4       ?ZOZO@keys@VarSs@@3HA      000000018048ada4     main.obj
 0003:001a8da8       ?suicide@keys@VarSs@@3HA   000000018048ada8     main.obj
 0003:001a8dac       ?speedkey@keys@VarSs@@3HA  000000018048adac     main.obj
 0003:001a8db0       ?fast_key@keys@VarSs@@3HA  000000018048adb0     main.obj
 0003:001a8db4       ?ignore_stopper@keys@VarSs@@3HA 000000018048adb4     main.obj
 0003:001a8db8       ?desync@keys@VarSs@@3HA    000000018048adb8     main.obj
 0003:001a8dbc       ?zoom@keys@VarSs@@3HA      000000018048adbc     main.obj
 0003:001a8dc0       ?weaponspam@keys@VarSs@@3HA 000000018048adc0     main.obj
 0003:001a8dc4       ?TeleportTopPlayer@keys@VarSs@@3HA 000000018048adc4     main.obj
 0003:001a8dc8       ?instakill@keys@VarSs@@3HA 000000018048adc8     main.obj
 0003:001a8dcc       ?tp_head_key@keys@VarSs@@3HA 000000018048adcc     main.obj
 0003:001a8dd0       ?low_velocity@keys@VarSs@@3HA 000000018048add0     main.obj
 0003:001a8dd4       ?hammer_spamm@keys@VarSs@@3HA 000000018048add4     main.obj
 0003:001a8dd8       ?manipulated_key@keys@VarSs@@3HA 000000018048add8     main.obj
 0003:001a8ddc       ?debugging@keys@VarSs@@3HA 000000018048addc     main.obj
 0003:001a8de0       ?stasher@keys@VarSs@@3HA   000000018048ade0     main.obj
 0003:001a8de4       ?longnecking@keys@VarSs@@3HA 000000018048ade4     main.obj
 0003:001a8de8       ?psilentkey@keys@VarSs@@3HA 000000018048ade8     main.obj
 0003:001a8dec       ?stashopen@keys@VarSs@@3HA 000000018048adec     main.obj
 0003:001a8df0       ?sulfur@ores@VarSs@@3_NA   000000018048adf0     main.obj
 0003:001a8df1       ?show_collectables@ores@VarSs@@3_NA 000000018048adf1     main.obj
 0003:001a8df2       ?metal@ores@VarSs@@3_NA    000000018048adf2     main.obj
 0003:001a8df3       ?stone@ores@VarSs@@3_NA    000000018048adf3     main.obj
 0003:001a8df4       ?show_distance@ores@VarSs@@3_NA 000000018048adf4     main.obj
 0003:001a8df5       ?quad@crosshair@VarSs@@3_NA 000000018048adf5     main.obj
 0003:001a8df6       ?sapphire_cross@crosshair@VarSs@@3_NA 000000018048adf6     main.obj
 0003:001a8df7       ?crosshair@0VarSs@@3_NA    000000018048adf7     main.obj
 0003:001a8df8       ?cross_type@crosshair@VarSs@@3HA 000000018048adf8     main.obj
 0003:001a8dfc       ?cross_type_color@crosshair@VarSs@@3HA 000000018048adfc     main.obj
 0003:001a8e00       ?inter_bold@font@@3PEAUImFont@@EA 000000018048ae00     main.obj
 0003:001a8e08       ?load_anim_inter_bold@font@@3PEAUImFont@@EA 000000018048ae08     main.obj
 0003:001a8e10       ?inter_bold_esp_only@font@@3PEAUImFont@@EA 000000018048ae10     main.obj
 0003:001a8e18       ?icon@font@@3PEAUImFont@@EA 000000018048ae18     main.obj
 0003:001a8e20       ?Glitch4@@3PEAVMaterial@@EA 000000018048ae20     main.obj
 0003:001a8e28       ?cursor@fly@@3UtagPOINT@@A 000000018048ae28     main.obj
 0003:001a8e30       ?g_Discord@@3PEAVDiscord@@EA 000000018048ae30     main.obj
 0003:001a8e38       ?Galaxy2@@3PEAVMaterial@@EA 000000018048ae38     main.obj
 0003:001a8e40       ?device@@3PEAUID3D11Device@@EA 000000018048ae40     main.obj
 0003:001a8e49       ?should_drag@wear@@3_NA    000000018048ae49     main.obj
 0003:001a8e4a       ?should_move@wear@@3_NA    000000018048ae4a     main.obj
 0003:001a8e4b       ?EmptyString@ImGuiTextBuffer@@2PADA 000000018048ae4b     imgui.obj
 0003:001a8e4c       ?loadanim@@3HA             000000018048ae4c     main.obj
 0003:001a8e50       ?game_window@@3PEAUHWND__@@EA 000000018048ae50     main.obj
 0003:001a8e58       ?target_player@@3PEAVBasePlayer@@EA 000000018048ae58     main.obj
 0003:001a8e60       ?cursor@radar@@3UtagPOINT@@A 000000018048ae60     main.obj
 0003:001a8e68       ?Glitch2@@3PEAVMaterial@@EA 000000018048ae68     main.obj
 0003:001a8e70       ?cursor_corrected@wear@@3UtagPOINT@@A 000000018048ae70     main.obj
 0003:001a8e78       ?cursor@wear@@3UtagPOINT@@A 000000018048ae78     main.obj
 0003:001a8e80       ?Small_fonts@@3PEAUImFont@@EA 000000018048ae80     main.obj
 0003:001a8e88       ?original_windowproc@@3P6A_JPEAUHWND__@@I_K_J@ZEA 000000018048ae88     main.obj
 0003:001a8e90       ?Glitch3@@3PEAVMaterial@@EA 000000018048ae90     main.obj
 0003:001a8e98       ?Rainbow@@3PEAVMaterial@@EA 000000018048ae98     main.obj
 0003:001a8ea0       ?Fade@@3PEAVMaterial@@EA   000000018048aea0     main.obj
 0003:001a8ea8       ?w_last_syringe@@3MA       000000018048aea8     main.obj
 0003:001a8eac       ?g_isLocked@@3JC           000000018048aeac     hook.obj
 0003:001a8eb0       ?Galaxy@@3PEAVMaterial@@EA 000000018048aeb0     main.obj
 0003:001a8eb8       ?Galaxy3@@3PEAVMaterial@@EA 000000018048aeb8     main.obj
 0003:001a8ec8       ?GImGui@@3PEAUImGuiContext@@EA 000000018048aec8     imgui.obj
 0003:001a8ed0       ?g_pMemoryBlocks@@3PEAU_MEMORY_BLOCK@@EA 000000018048aed0     buffer.obj
 0003:001a8ed8       ?g_hooks@@3U<unnamed-type-g_hooks>@@A 000000018048aed8     hook.obj
 0003:001a8ee8       ?g_hHeap@@3PEAXEA          000000018048aee8     hook.obj
 0003:001a8ef8       ?notifies@NotifyManager@ImTricks@@3V?$vector@UNotifyStruct@NotifyManager@ImTricks@@V?$allocator@UNotifyStruct@NotifyManager@ImTricks@@@std@@@std@@A 000000018048aef8     imgui_tricks.obj
 0003:001c9f80       ?gameAssembly@il2cpp@@3PEAUHINSTANCE__@@EA 00000001804abf80     main.obj
 0003:001c9fe0       ?playerFlags123@@3_KA      00000001804abfe0     main.obj
 0003:001c9ff0       ?m_keybinds@@3V?$vector@Um_keybind@@V?$allocator@Um_keybind@@@std@@@std@@A 00000001804abff0     main.obj
 0003:001ca008       ?cachedBones@@3V?$map@_KPEAVBoneCache@@U?$less@_K@std@@V?$allocator@U?$pair@$$CB_KPEAVBoneCache@@@std@@@3@@std@@A 00000001804ac008     main.obj
 0003:001ca018       ?accent@font@@3UImVec4@@A  00000001804ac018     imgui.obj
 0003:001de828       ?cLastTickPos@@3VVector3@@A 00000001804c0828     main.obj
 0003:001de838       ?m_manipulate@other@@3VVector3@@A 00000001804c0838     main.obj
 0003:001de850       ?best_target@stuff@VarSs@@3VVector3@@A 00000001804c0850     main.obj
 0003:001de860       ?screen_size@@3VVector2@@A 00000001804c0860     main.obj
 0003:001de870       ?fat_target@@3VVector3@@A  00000001804c0870     main.obj
 0003:001de880       ?last_penis_pos@@3VVector3@@A 00000001804c0880     main.obj
 0003:001de890       ?eyemani@stuff@VarSs@@3VVector3@@A 00000001804c0890     main.obj
 0003:001de8a0       ?screen_center@@3VVector2@@A 00000001804c08a0     main.obj
 0003:001de8a8       ?m_manipulate@manipulator@variables@@3VVector3@@A 00000001804c08a8     main.obj
 0003:001de8b8       ?eye_pos@stor@InGame@@3VVector3@@A 00000001804c08b8     main.obj
 0003:001de8f0       ?GetRandomVelocity_@ItemModProjectile@@2P6AMPEAV1@@ZEA 00000001804c08f0     main.obj
 0003:001de908       ?original_jumpup@hk_defs@@3P6AXPEAVPlayerWalkMovement@@PEAVModelState@@_N2@ZEA 00000001804c0908     main.obj
 0003:001de910       ?Original_BodyLeanOffset@hk_defs@@3P6A?AVVector3@@PEAVPlayerEyes@@@ZEA 00000001804c0910     main.obj
 0003:001de918       ?original_clientinput@hk_defs@@3P6AXPEAVBasePlayer@@PEAVModelState@@@ZEA 00000001804c0918     main.obj
 0003:001de920       ?original_domovement@hk_defs@@3P6AXPEAVProjectile@@M@ZEA 00000001804c0920     main.obj
 0003:001de928       ?original_dohitnotify@hk_defs@@3P6AXPEAVBaseCombatEntity@@PEAVHitInfo@@PEAVProjectile@@@ZEA 00000001804c0928     main.obj
 0003:001de930       ?original_updatevelos@hk_defs@@3P6AXPEAVPlayerWalkMovement@@@ZEA 00000001804c0930     main.obj
 0003:001de938       ?original_Update@hk_defs@@3P6AXPEAVProjectile@@@ZEA 00000001804c0938     main.obj
 0003:001de940       ?Original_EyePositionForPlayer@hk_defs@@3P6A?AVVector3@@PEAVBaseMountable@@PEAVBasePlayer@@PEAVQuaternion@@@ZEA 00000001804c0940     main.obj
 0003:001de948       ?original_dohit@hk_defs@@3P6A_NPEAVProjectile@@PEAVHitTest@@VVector3@@2@ZEA 00000001804c0948     main.obj
 0003:001de950       ?original_consolerun@hk_defs@@3P6APEAU_UncStr@@PEAVConsoleOptions@@PEAU2@_K@ZEA 00000001804c0950     main.obj
 0003:001de958       ?original_aimconedirection@hk_defs@@3P6A?AVVector3@@MV2@_N@ZEA 00000001804c0958     main.obj
 0003:001de960       ?Original_DoFirstPersonCamera_hk@hk_defs@@3P6AXPEAVPlayerEyes@@PEAVComponent@@@ZEA 00000001804c0960     main.obj
 0003:001de968       ?original_updateambient@hk_defs@@3P6AXPEAVTOD_Sky@@@ZEA 00000001804c0968     main.obj
 0003:001de970       ?original_addpunch@hk_defs@@3P6AXPEAVHeldEntity@@VVector3@@M@ZEA 00000001804c0970     main.obj
 0003:001de978       ?original_canattack@hk_defs@@3P6A_NPEAVBasePlayer@@@ZEA 00000001804c0978     main.obj
 0003:001de980       ?original_setflying@hk_defs@@3P6AXPEAVModelState@@_N@ZEA 00000001804c0980     main.obj
 0003:001de998       ?MoveTowards_@Vector3_@@2P6A?AVVector3@@V2@0M@ZEA 00000001804c0998     main.obj
 0003:001dea08       ?m_bInitFailed@CAtlBaseModule@ATL@@2_NA 00000001804c0a08     main.obj
 0003:001dea10       ?OnLand_@BasePlayer@@2P6AXPEAV1@M@ZEA 00000001804c0a10     main.obj
 0003:001dea18       ?tex@?1??create_texture@c_texture_cache2@@AEAAPEAUID3D11ShaderResourceView@@PEAUID3D11Device@@PEBXH@Z@4PEAU3@EA 00000001804c0a18     main.obj
 0003:001dea28       ?DoAttack_@FlintStrikeWeapon@@2P6AXPEAV1@@ZEA 00000001804c0a28     main.obj
 0003:001dea40       ?LaunchProjectile_@BaseProjectile@@2P6AXPEAV1@@ZEA 00000001804c0a40     main.obj
 0003:001dea48       ?_OptionsStorage@?1??__local_stdio_scanf_options@@9@4_KA 00000001804c0a48     imgui.obj
 0003:001deae8       ?off@?1??bobAmountRun@ViewmodelBob@@QEAAAEAMXZ@4_KA 00000001804c0ae8     main.obj
 0003:001deaf0       ?off@?1??TeleportTo@PlayerWalkMovement@@QEAAXVVector3@@@Z@4_KA 00000001804c0af0     main.obj
 0003:001deaf8       ?off@?1???$GetComponent@VProjectile@@@GameObject@@QEAAPEAVProjectile@@PEAVType@@@Z@4_KA 00000001804c0af8     main.obj
 0003:001deb00       ?off@?1??jumpTime@PlayerWalkMovement@@QEAAAEAMXZ@4_KA 00000001804c0b00     main.obj
 0003:001deb08       ?off@?1??GetWorldVelocity@BaseEntity@@QEAA?AVVector3@@XZ@4_KA 00000001804c0b08     main.obj
 0003:001deb10       ?Raycast@Physics@@2V?$UnmanagedPointer@$$A6A_NVVector3@@0PEAVRaycastHit@@MHW4QueryTriggerInteraction@@@Z@@A 00000001804c0b10     main.obj
 0003:001deb20       ?ptr@?1??GUIDToObject@GameManifest@@SAPEAVObject@@PEAVString@il2cpp@@@Z@4_KA 00000001804c0b20     main.obj
 0003:001deb28       ?$TSS0@?1??HitTransform@HitTest@@QEAAAEAPEAVTransform@@XZ@4HA 00000001804c0b28     main.obj
 0003:001deb2c       ?$TSS0@?1??LoadFromFile@AssetBundle@@SAPEAV2@PEBD@Z@4HA 00000001804c0b2c     main.obj
 0003:001deb30       ?$TSS0@?1???$GetComponentsInChildren@VComponent@@@Object@@QEAAPEAV?$Array@PEAVComponent@@@@PEAVType@@@Z@4HA 00000001804c0b30     main.obj
 0003:001deb34       ?$TSS0@?1??containerWear@PlayerInventory@@QEAAAEAPEAVItemContainer@@XZ@4HA 00000001804c0b34     main.obj
 0003:001deb38       ?$TSS0@?1??BodyForward@PlayerEyes@@QEAA?AVVector3@@XZ@4HA 00000001804c0b38     main.obj
 0003:001deb3c       ?$TSS0@?1??HasAttackCooldown@AttackEntity@@QEAA_NXZ@4HA 00000001804c0b3c     main.obj
 0003:001deb40       ?off@?1??tumbleSpeed@Projectile@@QEAAAEAMXZ@4_KA 00000001804c0b40     main.obj
 0003:001deb50       ?$TSS0@?1??Contains@StringIl@@QEAA_NPEAV2@@Z@4HA 00000001804c0b50     main.obj
 0003:001deb54       ?$TSS0@?1??tumbleSpeed@Projectile@@QEAAAEAMXZ@4HA 00000001804c0b54     main.obj
 0003:001deb58       ?$TSS0@?1??grounded@PlayerWalkMovement@@QEAAAEA_NXZ@4HA 00000001804c0b58     main.obj
 0003:001deb60       ?off@?1??projectileVelocityScale@BaseProjectile@@QEAAAEAMXZ@4_KA 00000001804c0b60     main.obj
 0003:001deb68       ?$TSS0@?1??_playerModel@BasePlayer@@QEAAAEAPEAVPlayerModel@@XZ@4HA 00000001804c0b68     main.obj
 0003:001deb70       ?off@?1??bobAmountWalk@ViewmodelBob@@QEAAAEAMXZ@4_KA 00000001804c0b70     main.obj
 0003:001deb78       ?off@?1??_displayName@BasePlayer@@QEAAPEB_WXZ@4_KA 00000001804c0b78     main.obj
 0003:001deb80       ?off@?1??groundAngle@PlayerWalkMovement@@QEAAAEAMXZ@4_KA 00000001804c0b80     main.obj
 0003:001deb88       ?$TSS0@?1??shouldLower@ViewmodelLower@@QEAAAEA_NXZ@4HA 00000001804c0b88     main.obj
 0003:001deb8c       ?$TSS0@?1??deployDelay@AttackEntity@@QEAAAEAMXZ@4HA 00000001804c0b8c     main.obj
 0003:001deb90       ?clazz@?1??_fov@Graphics@ConVar@@SAAEAMXZ@4PEAVIl2CppClass@il2cpp@@EA 00000001804c0b90     main.obj
 0003:001deb98       ?off@?1??UpdateAmmoDisplay@BaseProjectile@@QEAAXXZ@4_KA 00000001804c0b98     main.obj
 0003:001deba0       ?off@?1??bobSpeedWalk@ViewmodelBob@@QEAAAEAMXZ@4_KA 00000001804c0ba0     main.obj
 0003:001deba8       ?off@?1??set_material@Renderer_@@QEAAXPEAVMaterial@@@Z@4_KA 00000001804c0ba8     main.obj
 0003:001debb0       ?off@?1??HitNormalWorld@HitTest@@QEAA?AVVector3@@XZ@4_KA 00000001804c0bb0     main.obj
 0003:001debb8       ?$TSS0@?1??lifestate@BaseCombatEntity@@QEAAAEAW4LifeState@2@XZ@4HA 00000001804c0bb8     main.obj
 0003:001debc0       ?off@?1??PivotPoint@BasePlayer@@QEAA?AVVector3@@XZ@4_KA 00000001804c0bc0     main.obj
 0003:001debc8       ?off@?1??drag@Projectile@@QEAAAEAMXZ@4_KA 00000001804c0bc8     main.obj
 0003:001debd0       ?off@?1??lifestate@BaseCombatEntity@@QEAAAEAW4LifeState@2@XZ@4_KA 00000001804c0bd0     main.obj
 0003:001debd8       ?off@?1??repeatDelay@AttackEntity@@QEAAAEAMXZ@4_KA 00000001804c0bd8     main.obj
 0003:001debe0       ?off@?1??automatic@BaseProjectile@@QEAAAEA_NXZ@4_KA 00000001804c0be0     main.obj
 0003:001debe8       ?off@?1??set_radius@ModelState@@QEAAXM@Z@4_KA 00000001804c0be8     main.obj
 0003:001debf0       ?off@?1??ProcessAttack@BaseMelee@@QEAAXPEAVHitTest@@@Z@4_KA 00000001804c0bf0     main.obj
 0003:001debf8       ?off@?1??displayName@ItemDefinition@@QEAAAEAPEAVPhrase@@XZ@4_KA 00000001804c0bf8     main.obj
 0003:001dec00       ?off@?1??get_rotation@PlayerEyes@@QEAA?AVQuaternion@@XZ@4_KA 00000001804c0c00     main.obj
 0003:001dec08       ?$TSS0@?1??set_jumped@ModelState@@QEAAX_N@Z@4HA 00000001804c0c08     main.obj
 0003:001dec10       ?off@?1??sliding@PlayerWalkMovement@@QEAAAEA_NXZ@4_KA 00000001804c0c10     main.obj
 0003:001dec18       ?clazz@?1??Admintime@BasePlayer@@SAAEAMXZ@4PEAVIl2CppClass@il2cpp@@EA 00000001804c0c18     main.obj
 0003:001dec20       ?$TSS0@?1??HitEntity@HitTest@@QEAAAEAPEAVBaseEntity@@XZ@4HA 00000001804c0c20     main.obj
 0003:001dec24       ?$TSS0@?1??movement@BasePlayer@@QEAAAEAPEAVPlayerWalkMovement@@XZ@4HA 00000001804c0c24     main.obj
 0003:001dec28       ?off@?1??HitPointWorld@HitTest@@QEAA?AVVector3@@XZ@4_KA 00000001804c0c28     main.obj
 0003:001dec30       ?$TSS0@?1??ActiveModel@BaseViewModel@@SAPEAV2@XZ@4HA 00000001804c0c30     main.obj
 0003:001dec38       ?off@?1??shouldLower@ViewmodelLower@@QEAAAEA_NXZ@4_KA 00000001804c0c38     main.obj
 0003:001dec40       ?off@?1??HitNormal@HitTest@@QEAAAEAVVector3@@XZ@4_KA 00000001804c0c40     main.obj
 0003:001dec48       ?$TSS0@?1??MoveTowards_hk@combat@hk@@YA?AVVector3@@V4@0M@Z@4HA 00000001804c0c48     main.obj
 0003:001dec4c       ?$TSS0@?1??closeFlybyDistance@Projectile@@QEAAAEAMXZ@4HA 00000001804c0c4c     main.obj
 0003:001dec50       ?$TSS0@?1??BeginCycle@BaseProjectile@@QEAAXXZ@4HA 00000001804c0c50     main.obj
 0003:001dec54       ?$TSS0@?1??ladder@PlayerWalkMovement@@QEAAAEAPEAXXZ@4HA 00000001804c0c54     main.obj
 0003:001dec58       ?off@?1??closeFlybyDistance@Projectile@@QEAAAEAMXZ@4_KA 00000001804c0c58     main.obj
 0003:001dec60       ?$TSS0@?1??set_velocity@RigidBody@@QEAAXVVector3@@@Z@4HA 00000001804c0c60     main.obj
 0003:001dec68       ?off@?1??Magnitude2D@Misc@@SAMVVector3@@@Z@4_KA 00000001804c0c68     main.obj
 0003:001dec70       ?$TSS0@?1??GetRadius@BasePlayer@@QEAAMXZ@4HA 00000001804c0c70     main.obj
 0003:001dec78       ?off@?1??position@PlayerModel@@QEAA?AVVector3@@XZ@4_KA 00000001804c0c78     main.obj
 0003:001dec80       ?off@?1??Total@DamageTypeList@@QEAAMXZ@4_KA 00000001804c0c80     main.obj
 0003:001dec88       ?unscaledDeltaTime@Time@@2V?$UnmanagedPointer@$$A6AMXZ@@A 00000001804c0c88     main.obj
 0003:001dec98       ?strHeap@?1??GetInstance@CAtlStringMgr@ATL@@SAPEAUIAtlStringMgr@3@XZ@4VCWin32Heap@3@A 00000001804c0c98     main.obj
 0003:001decb0       ?off@?1??containerWear@PlayerInventory@@QEAAAEAPEAVItemContainer@@XZ@4_KA 00000001804c0cb0     main.obj
 0003:001decb8       ?$TSS0@?1??_fov@Graphics@ConVar@@SAAEAMXZ@4HA 00000001804c0cb8     main.obj
 0003:001decc0       ?off@?1??groundAngleNew@PlayerWalkMovement@@QEAAAEAMXZ@4_KA 00000001804c0cc0     main.obj
 0003:001decc8       ?off@?1??curPosition@PlayerProjectileUpdate@@QEAAAEAVVector3@@XZ@4_KA 00000001804c0cc8     main.obj
 0003:001decd0       ?off@?1??_ServerRPC@BaseEntity@@QEAAXPEBD@Z@4_KA 00000001804c0cd0     main.obj
 0003:001decd8       ?off@?1??lastSentTickTime@BasePlayer@@QEAAAEAMXZ@4_KA 00000001804c0cd8     main.obj
 0003:001dece0       ?off@?1??get_position@PlayerEyes@@QEAA?AVVector3@@XZ@4_KA 00000001804c0ce0     main.obj
 0003:001dece8       ?$TSS0@?1??projectileVelocityScale@BaseProjectile@@QEAAAEAMXZ@4HA 00000001804c0ce8     main.obj
 0003:001decf0       ?off@?1??GetVehicleParent@BaseMountable@@QEAAPEAV2@XZ@4_KA 00000001804c0cf0     main.obj
 0003:001decf8       ?off@?1??entityList@EntityRealm@BaseNetworkable@@QEAAAEAPEAVListDictionary@@XZ@4_KA 00000001804c0cf8     main.obj
 0003:001ded00       ?$TSS0@?1??GUIDToObject@GameManifest@@SAPEAVObject@@PEAVString@il2cpp@@@Z@4HA 00000001804c0d00     main.obj
 0003:001ded04       ?$TSS0@?1??currentPosition@Projectile@@QEAAAEAVVector3@@XZ@4HA 00000001804c0d04     main.obj
 0003:001ded08       ?$TSS0@?1??HitNormalWorld@HitTest@@QEAA?AVVector3@@XZ@4HA 00000001804c0d08     main.obj
 0003:001ded0c       ?$TSS0@?1??DoHit@Projectile@@QEAA_NPEAVHitTest@@VVector3@@1@Z@4HA 00000001804c0d0c     main.obj
 0003:001ded18       ?off@?1??DoAttack@BaseMelee@@QEAAXPEAVHitTest@@@Z@4_KA 00000001804c0d18     main.obj
 0003:001ded20       ?$TSS0@?1??GetVehicleParent@BaseMountable@@QEAAPEAV2@XZ@4HA 00000001804c0d20     main.obj
 0003:001ded28       ?off@?1??TargetMovement@PlayerWalkMovement@@QEAAAEAVVector3@@XZ@4_KA 00000001804c0d28     main.obj
 0003:001ded30       ?off@?1???$GetComponentsInChildren@VComponent@@@Object@@QEAAPEAV?$Array@PEAVComponent@@@@PEAVType@@@Z@4_KA 00000001804c0d30     main.obj
 0003:001ded38       ?off@?1??gravityModifier@BasePlayer@@QEAAAEAMXZ@4_KA 00000001804c0d38     main.obj
 0003:001ded40       ?CheckCapsule@GamePhysics@@2V?$UnmanagedPointer@$$A6A_NVVector3@@0MHW4QueryTriggerInteraction@GamePhysics@@@Z@@A 00000001804c0d40     main.obj
 0003:001ded50       ?off@?1??GetJumpHeight@BasePlayer@@QEAAMXZ@4_KA 00000001804c0d50     main.obj
 0003:001ded58       ?$TSS0@?1??gravityModifier@Projectile@@QEAAAEAMXZ@4HA 00000001804c0d58     main.obj
 0003:001ded5c       ?$TSS0@?1??GetType@Type@@SAPEAV2@PEBD@Z@4HA 00000001804c0d5c     main.obj
 0003:001ded60       ?off@?1??amount@Item@@QEAAAEAHXZ@4_KA 00000001804c0d60     main.obj
 0003:001ded68       ?$TSS0@?1??clientTickInterval@BasePlayer@@QEAAAEAMXZ@4HA 00000001804c0d68     main.obj
 0003:001ded6c       ?$TSS0@?1??StartAttackCooldown@BaseMelee@@QEAAXM@Z@4HA 00000001804c0d6c     main.obj
 0003:001ded70       ?$TSS0@?1??GetMaxSpeed@BasePlayer@@QEAAMXZ@4HA 00000001804c0d70     main.obj
 0003:001ded78       ?off@?1??inventory@BasePlayer@@QEAAAEAPEAVPlayerInventory@@XZ@4_KA 00000001804c0d78     main.obj
 0003:001ded80       ?off@?1??traveledDistance@Projectile@@QEAAAEAMXZ@4_KA 00000001804c0d80     main.obj
 0003:001ded88       ?off@?1??GetType@Type@@SAPEAV2@PEBD@Z@4_KA 00000001804c0d88     main.obj
 0003:001ded90       ?$TSS0@?1??EyeOffset@PlayerEyes@@SA?AVVector3@@XZ@4HA 00000001804c0d90     main.obj
 0003:001ded94       ?$TSS0@?1??AttackRay@HitTest@@QEAAAEAURay@@XZ@4HA 00000001804c0d94     main.obj
 0003:001ded98       ?$TSS0@?1??modelState@BasePlayer@@QEAAAEAPEAVModelState@@XZ@4HA 00000001804c0d98     main.obj
 0003:001deda0       ?off@?1??swimming@PlayerWalkMovement@@QEAAAEA_NXZ@4_KA 00000001804c0da0     main.obj
 0003:001deda8       ?off@?1??DoAttack@BaseProjectile@@QEAAXXZ@4_KA 00000001804c0da8     main.obj
 0003:001dedb0       ?$TSS0@?1??curVelocity@PlayerProjectileUpdate@@QEAAAEAVVector3@@XZ@4HA 00000001804c0db0     main.obj
 0003:001dedb4       ?$TSS0@?1??Ducking@PlayerWalkMovement@@QEAAAEAMXZ@4HA 00000001804c0db4     main.obj
 0003:001dedb8       ?off@?1??DidAttackClientside@BaseProjectile@@QEAAXXZ@4_KA 00000001804c0db8     main.obj
 0003:001dedc0       ?off@?1??position@Transform@@QEAA?AVVector3@@XZ@4_KA 00000001804c0dc0     main.obj
 0003:001dedc8       ?$TSS0@?1??automatic@BaseProjectile@@QEAAAEA_NXZ@4HA 00000001804c0dc8     main.obj
 0003:001dedd0       ?off@?1??currentPosition@Projectile@@QEAAAEAVVector3@@XZ@4_KA 00000001804c0dd0     main.obj
 0003:001dedd8       ?DrawList@@3PEAUImDrawList@@EA 00000001804c0dd8     main.obj
 0003:001dede0       ?off@?1??hitTest@Projectile@@QEAAAEAPEAVHitTest@@XZ@4_KA 00000001804c0de0     main.obj
 0003:001dede8       ?$TSS0@?1??displayName@ItemDefinition@@QEAAAEAPEAVPhrase@@XZ@4HA 00000001804c0de8     main.obj
 0003:001dedf0       ?off@?1??Contains@StringIl@@QEAA_NPEAV2@@Z@4_KA 00000001804c0df0     main.obj
 0003:001dedf8       ?$TSS0@?1??position@PlayerModel@@QEAA?AVVector3@@XZ@4HA 00000001804c0df8     main.obj
 0003:001dee00       ?off@?1??OnLadder@BasePlayer@@QEAA_NXZ@4_KA 00000001804c0e00     main.obj
 0003:001dee08       ?$TSS0@?1??previousPosition@Projectile@@QEAAAEAVVector3@@XZ@4HA 00000001804c0e08     main.obj
 0003:001dee0c       ?$TSS0@?1??GetWorldVelocity@BaseEntity@@QEAA?AVVector3@@XZ@4HA 00000001804c0e0c     main.obj
 0003:001dee10       ?$TSS0@?1??TargetMovement@PlayerWalkMovement@@QEAAAEAVVector3@@XZ@4HA 00000001804c0e10     main.obj
 0003:001dee14       ?$TSS0@?1??GetJumpHeight@BasePlayer@@QEAAMXZ@4HA 00000001804c0e14     main.obj
 0003:001dee18       ?off@?1??_HitEntity@HitTest@@QEAAAEAPEAVBaseNetworkable@@XZ@4_KA 00000001804c0e18     main.obj
 0003:001dee20       ?off@?1??MaxDistance@HitTest@@QEAAAEAMXZ@4_KA 00000001804c0e20     main.obj
 0003:001dee28       ?Max@Mathf@@2V?$UnmanagedPointer@$$A6AMMM@Z@@A 00000001804c0e28     main.obj
 0003:001dee38       ?$TSS0@?1??projectileObject@ItemModProjectile@@QEAAAEAPEAV?$ResourceRef@VGameObject@@@@XZ@4HA 00000001804c0e38     main.obj
 0003:001dee40       ?off@?1??IsDestroyed@BaseEntity@@QEAA_NXZ@4_KA 00000001804c0e40     main.obj
 0003:001dee48       ?ptr@?1??MoveTowards_hk@combat@hk@@YA?AVVector3@@V4@0M@Z@4_KA 00000001804c0e48     main.obj
 0003:001dee50       ?$TSS0@?1??lastSentTick@BasePlayer@@QEAAAEAPEAVPlayerTick@@XZ@4HA 00000001804c0e50     main.obj
 0003:001dee58       ?fixedTime@Time@@2V?$UnmanagedPointer@$$A6AMXZ@@A 00000001804c0e58     main.obj
 0003:001dee68       ?Min@Mathf@@2V?$UnmanagedPointer@$$A6AMMM@Z@@A 00000001804c0e68     main.obj
 0003:001dee78       ?$TSS0@?1??_Entity@_LocalPlayer@@SAPEAVBasePlayer@@XZ@4HA 00000001804c0e78     main.obj
 0003:001dee7c       ?$TSS0@?1???$LoadAsset@VShader@@@AssetBundle@@QEAAPEAVShader@@PEADPEAVType@@@Z@4HA 00000001804c0e7c     main.obj
 0003:001dee80       ?off@?1??grounded@PlayerWalkMovement@@QEAAAEA_NXZ@4_KA 00000001804c0e80     main.obj
 0003:001dee88       ?off@?1??ShotFired@BaseProjectile@@QEAAXXZ@4_KA 00000001804c0e88     main.obj
 0003:001dee90       ?off@?1??canWieldItems@BaseMountable@@QEAAAEA_NXZ@4_KA 00000001804c0e90     main.obj
 0003:001dee98       ?$TSS0@?1??lastSentTickTime@BasePlayer@@QEAAAEAMXZ@4HA 00000001804c0e98     main.obj
 0003:001deea0       ?off@?1??lastSentTick@BasePlayer@@QEAAAEAPEAVPlayerTick@@XZ@4_KA 00000001804c0ea0     main.obj
 0003:001deea8       ?off@?1??info@Item@@QEAAAEAPEAVItemDefinition@@XZ@4_KA 00000001804c0ea8     main.obj
 0003:001deeb0       ?$TSS0@?1??get_rotation@PlayerEyes@@QEAA?AVQuaternion@@XZ@4HA 00000001804c0eb0     main.obj
 0003:001deeb4       ?$TSS1@?1??GetInstance@CAtlStringMgr@ATL@@SAPEAUIAtlStringMgr@3@XZ@4HA 00000001804c0eb4     main.obj
 0003:001deeb8       ?$TSS0@?1???$GetComponent@VProjectile@@@GameObject@@QEAAPEAVProjectile@@PEAVType@@@Z@4HA 00000001804c0eb8     main.obj
 0003:001deec0       ?set_ambientMode@RenderSettings@@2V?$UnmanagedPointer@$$A6AXW4AmbientMode@RenderSettings@@@Z@@A 00000001804c0ec0     main.obj
 0003:001deed0       ?$TSS0@?1??position@PlayerTick@@QEAAAEAVVector3@@XZ@4HA 00000001804c0ed0     main.obj
 0003:001deed4       ?$TSS0@?1???$heldEntity@VHeldEntity@@@Item@@QEAAPEAVHeldEntity@@XZ@4HA 00000001804c0ed4     main.obj
 0003:001deed8       ?$TSS0@?1??SendSignalBroadcast@BaseProjectile@@QEAAXW4Signal@BaseEntity@@PEAD@Z@4HA 00000001804c0ed8     main.obj
 0003:001deee0       ?off@?1??projectileObject@ItemModProjectile@@QEAAAEAPEAV?$ResourceRef@VGameObject@@@@XZ@4_KA 00000001804c0ee0     main.obj
 0003:001deee8       ?off@?1??lower@BaseViewModel@@QEAAAEAPEAVViewmodelLower@@XZ@4_KA 00000001804c0ee8     main.obj
 0003:001deef0       ?off@?1??animator@BaseViewModel@@QEAAAEAPEAVAnimator@@XZ@4_KA 00000001804c0ef0     main.obj
 0003:001deef8       ?$TSS0@?1??viewOffset@PlayerEyes@@QEAAAEAVVector3@@XZ@4HA 00000001804c0ef8     main.obj
 0003:001def00       ?fixedDeltaTime@Time@@2V?$UnmanagedPointer@$$A6AMXZ@@A 00000001804c0f00     main.obj
 0003:001def10       ?$TSS0@?1??_HitEntity@HitTest@@QEAAAEAPEAVBaseNetworkable@@XZ@4HA 00000001804c0f10     main.obj
 0003:001def18       ?off@?1???$heldEntity@VBaseMelee@@@Item@@QEAAPEAVBaseMelee@@XZ@4_KA 00000001804c0f18     main.obj
 0003:001def20       ?$TSS0@?1??position@Transform@@QEAA?AVVector3@@XZ@4HA 00000001804c0f20     main.obj
 0003:001def28       ?clazz@?1??clientEntities@BaseNetworkable@@SAPEAVEntityRealm@2@XZ@4PEAVIl2CppClass@il2cpp@@EA 00000001804c0f28     main.obj
 0003:001def30       ?$TSS0@?1???$LoadAsset@VMaterial@@@AssetBundle@@QEAAPEAVMaterial@@PEADPEAVType@@@Z@4HA 00000001804c0f30     main.obj
 0003:001def38       ?time@Time@@2V?$UnmanagedPointer@$$A6AMXZ@@A 00000001804c0f38     main.obj
 0003:001def48       ?off@?1??viewOffset@PlayerEyes@@QEAAAEAVVector3@@XZ@4_KA 00000001804c0f48     main.obj
 0003:001def50       ?$TSS0@?1??groundAngleNew@PlayerWalkMovement@@QEAAAEAMXZ@4HA 00000001804c0f50     main.obj
 0003:001def58       ?off@?1??itemList@ItemContainer@@QEAAAEAPEAU?$List_@PEAVItem@@@@XZ@4_KA 00000001804c0f58     main.obj
 0003:001def60       ?off@?1??DoHit@Projectile@@QEAA_NPEAVHitTest@@VVector3@@1@Z@4_KA 00000001804c0f60     main.obj
 0003:001def68       ?off@?1??body@PlayerWalkMovement@@QEAAAEAPEAVRigidBody@@XZ@4_KA 00000001804c0f68     main.obj
 0003:001def70       ?off@?1???$heldEntity@VHeldEntity@@@Item@@QEAAPEAVHeldEntity@@XZ@4_KA 00000001804c0f70     main.obj
 0003:001def78       ?off@?1??IsDestroyed@BaseNetworkable@@QEAA_NXZ@4_KA 00000001804c0f78     main.obj
 0003:001def80       ?$TSS0@?1??projectileID@Projectile@@QEAAAEAHXZ@4HA 00000001804c0f80     main.obj
 0003:001def84       ?$TSS0@?1??DidAttackClientside@BaseProjectile@@QEAAXXZ@4HA 00000001804c0f84     main.obj
 0003:001def88       ?$TSS0@?1??inventory@BasePlayer@@QEAAAEAPEAVPlayerInventory@@XZ@4HA 00000001804c0f88     main.obj
 0003:001def8c       ?$TSS0@?1??traveledDistance@Projectile@@QEAAAEAMXZ@4HA 00000001804c0f8c     main.obj
 0003:001def90       ?off@?1??HitPoint@HitTest@@QEAAAEAVVector3@@XZ@4_KA 00000001804c0f90     main.obj
 0003:001def98       ?$TSS0@?1??gravityModifier@BasePlayer@@QEAAAEAMXZ@4HA 00000001804c0f98     main.obj
 0003:001def9c       ?$TSS0@?1??primaryMagazine@BaseProjectile@@QEAAAEAPEAVMagazine@2@XZ@4HA 00000001804c0f9c     main.obj
 0003:001defa0       ?$TSS0@?1??get_name@Material@@QEAAPEAVStringIl@@XZ@4HA 00000001804c0fa0     main.obj
 0003:001defa8       ?off@?1??transform@Object@@QEAAPEAVTransform@@XZ@4_KA 00000001804c0fa8     main.obj
 0003:001defb0       ?$TSS0@?1??damageTypes@HitInfo@@QEAAAEAPEAVDamageTypeList@@XZ@4HA 00000001804c0fb0     main.obj
 0003:001defb8       ?off@?1??isAuthoritative@Projectile@@QEAA_NXZ@4_KA 00000001804c0fb8     main.obj
 0003:001defc0       ?off@?1??ActiveModel@BaseViewModel@@SAPEAV2@XZ@4_KA 00000001804c0fc0     main.obj
 0003:001defc8       ?off@?1??flags@ModelState@@QEAAAEAHXZ@4_KA 00000001804c0fc8     main.obj
 0003:001defd0       ?off@?1??SendSignalBroadcast@BaseEntity@@QEAAXW4Signal@2@PEAD@Z@4_KA 00000001804c0fd0     main.obj
 0003:001defd8       ?$TSS0@?1??bobAmountWalk@ViewmodelBob@@QEAAAEAMXZ@4HA 00000001804c0fd8     main.obj
 0003:001defe0       ?off@?1??lastShotTime@BaseProjectile@@QEAAAEAMXZ@4_KA 00000001804c0fe0     main.obj
 0003:001defe8       ?$TSS0@?1??ShotFired@BaseProjectile@@QEAAXXZ@4HA 00000001804c0fe8     main.obj
 0003:001defec       ?$TSS0@?1??eyes@BasePlayer@@QEAAAEAPEAVPlayerEyes@@XZ@4HA 00000001804c0fec     main.obj
 0003:001deff0       ?off@?1??projectileID@Projectile@@QEAAAEAHXZ@4_KA 00000001804c0ff0     main.obj
 0003:001deff8       ?$TSS0@?1??GetInstance@CAtlStringMgr@ATL@@SAPEAUIAtlStringMgr@3@XZ@4HA 00000001804c0ff8     main.obj
 0003:001df000       ?SphereCast@Physics@@2V?$UnmanagedPointer@$$A6A_NURay@@MMH@Z@@A 00000001804c1000     main.obj
 0003:001df010       ?off@?1??LoadFromFile@AssetBundle@@SAPEAV2@PEBD@Z@4_KA 00000001804c1010     main.obj
 0003:001df018       ?outline@button@c@@3UImVec4@@A 00000001804c1018     main.obj
 0003:001df028       ?background_inactive@button@c@@3UImVec4@@A 00000001804c1028     main.obj
 0003:001df038       ?text@0c@@3UImVec4@@A      00000001804c1038     main.obj
 0003:001df048       ?text_active@text@c@@3UImVec4@@A 00000001804c1048     main.obj
 0003:001df058       ?text_hov@text@c@@3UImVec4@@A 00000001804c1058     main.obj
 0003:001df068       ?outline@input@c@@3UImVec4@@A 00000001804c1068     main.obj
 0003:001df078       ?background_inactive@input@c@@3UImVec4@@A 00000001804c1078     main.obj
 0003:001df088       ?outline@combo@c@@3UImVec4@@A 00000001804c1088     main.obj
 0003:001df098       ?outline@keybind@c@@3UImVec4@@A 00000001804c1098     main.obj
 0003:001df0a8       ?background_inactive@keybind@c@@3UImVec4@@A 00000001804c10a8     main.obj
 0003:001df0b8       ?outline@picker@c@@3UImVec4@@A 00000001804c10b8     main.obj
 0003:001df0c8       ?outline@tabs@c@@3UImVec4@@A 00000001804c10c8     main.obj
 0003:001df0d8       ?accent@c@@3UImVec4@@A     00000001804c10d8     main.obj
 0003:001df0e8       ?text_infobar@text_info_Bar@c@@3UImVec4@@A 00000001804c10e8     main.obj
 0003:001df0f8       ?outline@child@c@@3UImVec4@@A 00000001804c10f8     main.obj
 0003:001df108       ?off@?1??projectileID@PlayerProjectileUpdate@@QEAAAEAHXZ@4_KA 00000001804c1108     main.obj
 0003:001df110       ?off@?1??modelState@BasePlayer@@QEAAAEAPEAVModelState@@XZ@4_KA 00000001804c1110     main.obj
 0003:001df118       ?$TSS0@?1??itemList@ItemContainer@@QEAAAEAPEAU?$List_@PEAVItem@@@@XZ@4HA 00000001804c1118     main.obj
 0003:001df11c       ?$TSS0@?1??set_ducked@ModelState@@QEAAX_N@Z@4HA 00000001804c111c     main.obj
 0003:001df120       ?$TSS0@?1??InverseTransformPoint@Transform@@QEAA?AVVector3@@V3@@Z@4HA 00000001804c1120     main.obj
 0003:001df124       ?$TSS0@?1??reloadTime@BaseProjectile@@QEAAAEAMXZ@4HA 00000001804c1124     main.obj
 0003:001df128       ?off@?1??curVelocity@PlayerProjectileUpdate@@QEAAAEAVVector3@@XZ@4_KA 00000001804c1128     main.obj
 0003:001df130       ?off@?1??set_position@Transform@@QEAAXVVector3@@@Z@4_KA 00000001804c1130     main.obj
 0003:001df138       ?$TSS0@?1??HitMaterial_@HitTest@@QEAAAEAPEAVString@il2cpp@@XZ@4HA 00000001804c1138     main.obj
 0003:001df13c       ?$TSS0@?1??DoAttack@BaseMelee@@QEAAXPEAVHitTest@@@Z@4HA 00000001804c113c     main.obj
 0003:001df140       ?$TSS0@?1??maxDistance@BaseMelee@@QEAAAEAMXZ@4HA 00000001804c1140     main.obj
 0003:001df148       ?off@?1??transform@Projectile@@QEAAPEAVTransform@@XZ@4_KA 00000001804c1148     main.obj
 0003:001df150       ?off@?1??contents@Magazine@BaseProjectile@@QEAAAEAHXZ@4_KA 00000001804c1150     main.obj
 0003:001df158       ?off@?1??bob@BaseViewModel@@QEAAAEAPEAVViewmodelBob@@XZ@4_KA 00000001804c1158     main.obj
 0003:001df160       ?icon@combo@c@@3UImVec4@@A 00000001804c1160     main.obj
 0003:001df170       ?icon@input@c@@3UImVec4@@A 00000001804c1170     main.obj
 0003:001df180       ?$TSS0@?1??aimSway@BaseProjectile@@QEAAAEAMXZ@4HA 00000001804c1180     main.obj
 0003:001df190       ?$TSS0@?1??currentHoldProgress@CompoundBowWeapon@@QEAAAEAMXZ@4HA 00000001804c1190     main.obj
 0003:001df198       ?off@?1??climbing@PlayerWalkMovement@@QEAAAEA_NXZ@4_KA 00000001804c1198     main.obj
 0003:001df1a0       ?$TSS0@?1???$heldEntity@VBaseProjectile@@@Item@@QEAAPEAVBaseProjectile@@XZ@4HA 00000001804c11a0     main.obj
 0003:001df1a4       ?$TSS0@?1??playerFlags@BasePlayer@@QEAAAEAHXZ@4HA 00000001804c11a4     main.obj
 0003:001df1a8       ?off@?1??set_jumped@ModelState@@QEAAX_N@Z@4_KA 00000001804c11a8     main.obj
 0003:001df1b0       ?off@?1??AttackRay@HitTest@@QEAAAEAURay@@XZ@4_KA 00000001804c11b0     main.obj
 0003:001df1b8       ?$TSS0@?1??lower@BaseViewModel@@QEAAAEAPEAVViewmodelLower@@XZ@4HA 00000001804c11b8     main.obj
 0003:001df1c0       ?off@?1??itemid@ItemDefinition@@QEAAAEAHXZ@4_KA 00000001804c11c0     main.obj
 0003:001df1c8       ?off@?1??mounted@BasePlayer@@QEAAAEAPEAVBaseMountable@@XZ@4_KA 00000001804c11c8     main.obj
 0003:001df1d0       ?$TSS0@?1??ProcessAttack@BaseMelee@@QEAAXPEAVHitTest@@@Z@4HA 00000001804c11d0     main.obj
 0003:001df1d8       ?FloorToInt@Mathf@@2V?$UnmanagedPointer@$$A6AHM@Z@@A 00000001804c11d8     main.obj
 0003:001df1f0       ?inst@?1??get@?$singleton@Vhitmarker@@@@SAAEAVhitmarker@@XZ@4V3@A 00000001804c11f0     main.obj
 0003:001df230       ?off@?1??ladder@PlayerWalkMovement@@QEAAAEAPEAXXZ@4_KA 00000001804c1230     main.obj
 0003:001df238       ?$TSS0@?1??TeleportTo@PlayerWalkMovement@@QEAAXVVector3@@@Z@4HA 00000001804c1238     main.obj
 0003:001df240       ?off@?1??position@PlayerTick@@QEAAAEAVVector3@@XZ@4_KA 00000001804c1240     main.obj
 0003:001df248       ?$TSS0@?1??useViewModelCamera@BaseViewModel@@QEAAAEA_NXZ@4HA 00000001804c1248     main.obj
 0003:001df250       ?off@?1??GetHeight@BasePlayer@@QEAAM_N@Z@4_KA 00000001804c1250     main.obj
 0003:001df258       ?off@?1??GetMaxSpeed@BasePlayer@@QEAAMXZ@4_KA 00000001804c1258     main.obj
 0003:001df260       ?$TSS0@?1??HitNormal@HitTest@@QEAAAEAVVector3@@XZ@4HA 00000001804c1260     main.obj
 0003:001df268       ?off@?1??set_rotation@Transform@@QEAAXVQuaternion@@@Z@4_KA 00000001804c1268     main.obj
 0003:001df270       ?off@?1??StartAttackCooldown@BaseMelee@@QEAAXM@Z@4_KA 00000001804c1270     main.obj
 0003:001df278       ?LineOfSight@GamePhysics@@2V?$UnmanagedPointer@$$A6A_NVVector3@@0HM@Z@@A 00000001804c1278     main.obj
 0003:001df288       ?$TSS0@?1??itemid@ItemDefinition@@QEAAAEAHXZ@4HA 00000001804c1288     main.obj
 0003:001df28c       ?$TSS0@?1??Update@Projectile@@QEAAXXZ@4HA 00000001804c128c     main.obj
 0003:001df290       ?$TSS0@?1??IsDestroyed@BaseEntity@@QEAA_NXZ@4HA 00000001804c1290     main.obj
 0003:001df294       ?$TSS0@?1??_ServerRPC@BaseEntity@@QEAAXPEBD@Z@4HA 00000001804c1294     main.obj
 0003:001df298       ?g_Render@@3PEAVImGuiRendering@@EA 00000001804c1298     main.obj
 0003:001df2a0       ?off@?1??jumping@PlayerWalkMovement@@QEAAAEA_NXZ@4_KA 00000001804c12a0     main.obj
 0003:001df2a8       ?$TSS0@?1??bobAmountRun@ViewmodelBob@@QEAAAEAMXZ@4HA 00000001804c12a8     main.obj
 0003:001df2b0       ?off@?1??capsule@PlayerWalkMovement@@QEAAAEAPEAVModelState@@XZ@4_KA 00000001804c12b0     main.obj
 0003:001df2b8       ?$TSS0@?1??aimSwaySpeed@BaseProjectile@@QEAAAEAMXZ@4HA 00000001804c12b8     main.obj
 0003:001df2c0       ?off@?1??GetRadius@BasePlayer@@QEAAMXZ@4_KA 00000001804c12c0     main.obj
 0003:001df2c8       ?off@?1??_playerModel@BasePlayer@@QEAAAEAPEAVPlayerModel@@XZ@4_KA 00000001804c12c8     main.obj
 0003:001df2d8       ?$TSS0@?1??travelTime@PlayerProjectileUpdate@@QEAAAEAMXZ@4HA 00000001804c12d8     main.obj
 0003:001df2e0       ?off@?1??movement@BasePlayer@@QEAAAEAPEAVPlayerWalkMovement@@XZ@4_KA 00000001804c12e0     main.obj
 0003:001df2e8       ?$TSS0@?1??IsDestroyed@BaseNetworkable@@QEAA_NXZ@4HA 00000001804c12e8     main.obj
 0003:001df2f0       ?Clamp@Mathf@@2V?$UnmanagedPointer@$$A6AMMMM@Z@@A 00000001804c12f0     main.obj
 0003:001df300       ?off@?1??set_velocity@RigidBody@@QEAAXVVector3@@@Z@4_KA 00000001804c1300     main.obj
 0003:001df308       ?Get@dd1aw@@2V?$UnmanagedPointer@$$A6APEAVdd1aw@@XZ@@A 00000001804c1308     main.obj
 0003:001df318       ?Capsule@dd1aw@@2V?$UnmanagedPointer@$$A6AXVVector3@@VQuaternion@@MMVColor@@M_N@Z@@A 00000001804c1318     main.obj
 0003:001df328       ?frameCount@Time@@2V?$UnmanagedPointer@$$A6AHXZ@@A 00000001804c1328     main.obj
 0003:001df338       ?$TSS0@?1??HitPointWorld@HitTest@@QEAA?AVVector3@@XZ@4HA 00000001804c1338     main.obj
 0003:001df33c       ?$TSS0@?1??lastShotTime@BaseProjectile@@QEAAAEAMXZ@4HA 00000001804c133c     main.obj
 0003:001df340       ?off@?1??gameObject@Component@@QEAAPEAVGameObject@@XZ@4_KA 00000001804c1340     main.obj
 0003:001df348       ?$TSS0@?1??clientEntities@BaseNetworkable@@SAPEAVEntityRealm@2@XZ@4HA 00000001804c1348     main.obj
 0003:001df34c       ?$TSS0@?1??set_position@Transform@@QEAAXVVector3@@@Z@4HA 00000001804c134c     main.obj
 0003:001df350       ?off@?1??Update@Projectile@@QEAAXXZ@4_KA 00000001804c1350     main.obj
 0003:001df358       ?background_active@button@c@@3UImVec4@@A 00000001804c1358     main.obj
 0003:001df368       ?background_active@keybind@c@@3UImVec4@@A 00000001804c1368     main.obj
 0003:001df378       ?background_active@input@c@@3UImVec4@@A 00000001804c1378     main.obj
 0003:001df388       ?clazz@?1??_Entity@_LocalPlayer@@SAPEAVBasePlayer@@XZ@4PEAVIl2CppClass@il2cpp@@EA 00000001804c1388     main.obj
 0003:001df390       ?$TSS0@?1??contents@Magazine@BaseProjectile@@QEAAAEAHXZ@4HA 00000001804c1390     main.obj
 0003:001df394       ?$TSS0@?1??gameObject@Component@@QEAAPEAVGameObject@@XZ@4HA 00000001804c1394     main.obj
 0003:001df398       ?$TSS0@?1??traveledTime@Projectile@@QEAAAEAMXZ@4HA 00000001804c1398     main.obj
 0003:001df3a0       ?off@?1??BodyForward@PlayerEyes@@QEAA?AVVector3@@XZ@4_KA 00000001804c13a0     main.obj
 0003:001df3a8       ?$TSS0@?1??bob@BaseViewModel@@QEAAAEAPEAVViewmodelBob@@XZ@4HA 00000001804c13a8     main.obj
 0003:001df3b0       ?off@?1??integrity@Projectile@@QEAAAEAMXZ@4_KA 00000001804c13b0     main.obj
 0003:001df3b8       ?$TSS0@?1??GetHeight@BasePlayer@@QEAAM_N@Z@4HA 00000001804c13b8     main.obj
 0003:001df3bc       ?$TSS0@?1??nextAttackTime@AttackEntity@@QEAAAEAMXZ@4HA 00000001804c13bc     main.obj
 0003:001df3c0       ?off@?1??primaryMagazine@BaseProjectile@@QEAAAEAPEAVMagazine@2@XZ@4_KA 00000001804c13c0     main.obj
 0003:001df3c8       ?off@?1??travelTime@PlayerProjectileUpdate@@QEAAAEAMXZ@4_KA 00000001804c13c8     main.obj
 0003:001df3d4       ?$TSS0@?1??hitTest@Projectile@@QEAAAEAPEAVHitTest@@XZ@4HA 00000001804c13d4     main.obj
 0003:001df3d8       ?$TSS0@?1??Total@DamageTypeList@@QEAAMXZ@4HA 00000001804c13d8     main.obj
 0003:001df3dc       ?$TSS0@?1??entityList@EntityRealm@BaseNetworkable@@QEAAAEAPEAVListDictionary@@XZ@4HA 00000001804c13dc     main.obj
 0003:001df3e0       ?Range@Random@@2V?$UnmanagedPointer@$$A6AMMM@Z@@A 00000001804c13e0     main.obj
 0003:001df3f0       ?$TSS0@?1??climbing@PlayerWalkMovement@@QEAAAEA_NXZ@4HA 00000001804c13f0     main.obj
 0003:001df3f8       ?GetKeyDown@Input@@2V?$UnmanagedPointer@$$A6A_NW4KeyCode@@@Z@@A 00000001804c13f8     main.obj
 0003:001df408       ?$TSS0@?1??initialDistance@Projectile@@QEAAAEAMXZ@4HA 00000001804c1408     main.obj
 0003:001df40c       ?$TSS0@?1??sway@BaseViewModel@@QEAAAEAPEAVViewmodelSway@@XZ@4HA 00000001804c140c     main.obj
 0003:001df410       ?$TSS0@?1??info@Item@@QEAAAEAPEAVItemDefinition@@XZ@4HA 00000001804c1410     main.obj
 0003:001df414       ?$TSS0@?1??playerModel@BasePlayer@@QEAAAEAPEAVPlayerModel@@XZ@4HA 00000001804c1414     main.obj
 0003:001df418       ?off@?1??previousPosition@Projectile@@QEAAAEAVVector3@@XZ@4_KA 00000001804c1418     main.obj
 0003:001df420       ?Max@Mathx@@2V?$UnmanagedPointer@$$A6AMMMM@Z@@A 00000001804c1420     main.obj
 0003:001df430       ?off@?1??nextReloadTime@BaseProjectile@@QEAAAEAMXZ@4_KA 00000001804c1430     main.obj
 0003:001df438       ?circle_inactive@checkbox@c@@3UImVec4@@A 00000001804c1438     main.obj
 0003:001df448       ?circle_inactive@slider@c@@3UImVec4@@A 00000001804c1448     main.obj
 0003:001df458       ?off@?1??health@BaseCombatEntity@@QEAAAEAMXZ@4_KA 00000001804c1458     main.obj
 0003:001df460       ?$TSS0@?1??groundAngle@PlayerWalkMovement@@QEAAAEAMXZ@4HA 00000001804c1460     main.obj
 0003:001df464       ?$TSS0@?1??MaxDistance@HitTest@@QEAAAEAMXZ@4HA 00000001804c1464     main.obj
 0003:001df468       ?strMgr@?1??GetInstance@CAtlStringMgr@ATL@@SAPEAUIAtlStringMgr@3@XZ@4V23@A 00000001804c1468     main.obj
 0003:001df498       ?background_watermark@bg@c@@3UImVec4@@A 00000001804c1498     main.obj
 0003:001df4a8       ?off@?1??reloadTime@BaseProjectile@@QEAAAEAMXZ@4_KA 00000001804c14a8     main.obj
 0003:001df4b0       ?off@?1??useViewModelCamera@BaseViewModel@@QEAAAEA_NXZ@4_KA 00000001804c14b0     main.obj
 0003:001df4b8       ?maximumDeltaTime@Time@@2V?$UnmanagedPointer@$$A6AMXZ@@A 00000001804c14b8     main.obj
 0003:001df4c8       ?LineOfSight_@GamePhysics@@2V?$UnmanagedPointer@$$A6A_NVVector3@@0HM@Z@@A 00000001804c14c8     main.obj
 0003:001df4d8       ?off@?1??velocity@RigidBody@@QEAA?AVVector3@@XZ@4_KA 00000001804c14d8     main.obj
 0003:001df4e0       ?off@?1??traveledTime@Projectile@@QEAAAEAMXZ@4_KA 00000001804c14e0     main.obj
 0003:001df4e8       ?smoothDeltaTime@Time@@2V?$UnmanagedPointer@$$A6AMXZ@@A 00000001804c14e8     main.obj
 0003:001df4f8       ?off@?1???$GetComponent@VItemModProjectile@@@Component@@QEAAPEAVItemModProjectile@@PEAVType@@@Z@4_KA 00000001804c14f8     main.obj
